---
triple:          'arm64-apple-darwin'
binary-path:     '/Users/nagachaitanyavarma/Documents/zcash-bindings/target/debug/deps/libzcash_zip321.dylib'
relocations:
  - { offset: 0x1E, size: 0x8, addend: 0x0, symName: __ZN4core4iter6traits8iterator8Iterator6copied17h62d4081e9277c117E, symObjAddr: 0x0, symBinAddr: 0x890, symSize: 0x1C }
  - { offset: 0x62, size: 0x8, addend: 0x0, symName: __ZN4core4iter6traits8iterator8Iterator6copied17h62d4081e9277c117E, symObjAddr: 0x0, symBinAddr: 0x890, symSize: 0x1C }
  - { offset: 0xE17, size: 0x8, addend: 0x0, symName: '__ZN91_$LT$core..slice..iter..Iter$LT$T$GT$$u20$as$u20$core..iter..traits..iterator..Iterator$GT$4next17hec21bd9656dcffd7E', symObjAddr: 0x6C, symBinAddr: 0x8FC, symSize: 0xA8 }
  - { offset: 0xF51, size: 0x8, addend: 0x0, symName: '__ZN91_$LT$core..slice..iter..Iter$LT$T$GT$$u20$as$u20$core..iter..traits..iterator..Iterator$GT$4next17hfa7cc7216774d059E', symObjAddr: 0x114, symBinAddr: 0x9A4, symSize: 0xA8 }
  - { offset: 0x108B, size: 0x8, addend: 0x0, symName: '__ZN91_$LT$core..slice..iter..Iter$LT$T$GT$$u20$as$u20$core..iter..traits..iterator..Iterator$GT$8position17h593ae612edef376fE', symObjAddr: 0x1BC, symBinAddr: 0xA4C, symSize: 0x188 }
  - { offset: 0x1149, size: 0x8, addend: 0x0, symName: '__ZN91_$LT$core..slice..iter..Iter$LT$T$GT$$u20$as$u20$core..iter..traits..iterator..Iterator$GT$8position17h73ead645394f00f8E', symObjAddr: 0x344, symBinAddr: 0xBD4, symSize: 0x188 }
  - { offset: 0x1207, size: 0x8, addend: 0x0, symName: '__ZN91_$LT$core..slice..iter..Iter$LT$T$GT$$u20$as$u20$core..iter..traits..iterator..Iterator$GT$9rposition17h07dfd2213811568bE', symObjAddr: 0x4CC, symBinAddr: 0xD5C, symSize: 0x160 }
  - { offset: 0x12CC, size: 0x8, addend: 0x0, symName: '__ZN91_$LT$core..slice..iter..Iter$LT$T$GT$$u20$as$u20$core..iter..traits..iterator..Iterator$GT$9rposition17h09a5fabdb1c36e40E', symObjAddr: 0x62C, symBinAddr: 0xEBC, symSize: 0x160 }
  - { offset: 0x2323, size: 0x8, addend: 0x0, symName: '__ZN4core5slice4iter13Iter$LT$T$GT$3new17h2b35f4d6d989f425E', symObjAddr: 0x1C, symBinAddr: 0x8AC, symSize: 0x50 }
  - { offset: 0x25EF, size: 0x8, addend: 0x0, symName: '__ZN106_$LT$core..result..Result$LT$T$C$E$GT$$u20$as$u20$pyo3..impl_..callback..IntoPyCallbackOutput$LT$U$GT$$GT$7convert17h897c2fa5f27318f5E', symObjAddr: 0x0, symBinAddr: 0x101C, symSize: 0xC4 }
  - { offset: 0x2644, size: 0x8, addend: 0x0, symName: '__ZN136_$LT$core..result..Result$LT$V$C$E$GT$$u20$as$u20$core..iter..traits..collect..FromIterator$LT$core..result..Result$LT$A$C$E$GT$$GT$$GT$9from_iter17hd2372bfdda0d972cE', symObjAddr: 0x170, symBinAddr: 0x118C, symSize: 0x34 }
  - { offset: 0x269C, size: 0x8, addend: 0x0, symName: '__ZN136_$LT$core..result..Result$LT$V$C$E$GT$$u20$as$u20$core..iter..traits..collect..FromIterator$LT$core..result..Result$LT$A$C$E$GT$$GT$$GT$9from_iter28_$u7b$$u7b$closure$u7d$$u7d$17hdb8ee78eb4adb9dcE', symObjAddr: 0x1A4, symBinAddr: 0x11C0, symSize: 0x28 }
  - { offset: 0x2708, size: 0x8, addend: 0x0, symName: '__ZN153_$LT$core..result..Result$LT$T$C$F$GT$$u20$as$u20$core..ops..try_trait..FromResidual$LT$core..result..Result$LT$core..convert..Infallible$C$E$GT$$GT$$GT$13from_residual17h06a20c9e33722e41E', symObjAddr: 0x1CC, symBinAddr: 0x11E8, symSize: 0x64 }
  - { offset: 0x2770, size: 0x8, addend: 0x0, symName: '__ZN153_$LT$core..result..Result$LT$T$C$F$GT$$u20$as$u20$core..ops..try_trait..FromResidual$LT$core..result..Result$LT$core..convert..Infallible$C$E$GT$$GT$$GT$13from_residual17h0d881fc36c101c97E', symObjAddr: 0x230, symBinAddr: 0x124C, symSize: 0x6C }
  - { offset: 0x27F6, size: 0x8, addend: 0x0, symName: '__ZN153_$LT$core..result..Result$LT$T$C$F$GT$$u20$as$u20$core..ops..try_trait..FromResidual$LT$core..result..Result$LT$core..convert..Infallible$C$E$GT$$GT$$GT$13from_residual17h0dc72c794936efdfE', symObjAddr: 0x29C, symBinAddr: 0x12B8, symSize: 0x6C }
  - { offset: 0x287C, size: 0x8, addend: 0x0, symName: '__ZN153_$LT$core..result..Result$LT$T$C$F$GT$$u20$as$u20$core..ops..try_trait..FromResidual$LT$core..result..Result$LT$core..convert..Infallible$C$E$GT$$GT$$GT$13from_residual17h10e847c06fd99c06E', symObjAddr: 0x308, symBinAddr: 0x1324, symSize: 0x6C }
  - { offset: 0x2902, size: 0x8, addend: 0x0, symName: '__ZN153_$LT$core..result..Result$LT$T$C$F$GT$$u20$as$u20$core..ops..try_trait..FromResidual$LT$core..result..Result$LT$core..convert..Infallible$C$E$GT$$GT$$GT$13from_residual17h257c5531b3a13affE', symObjAddr: 0x374, symBinAddr: 0x1390, symSize: 0x6C }
  - { offset: 0x2988, size: 0x8, addend: 0x0, symName: '__ZN153_$LT$core..result..Result$LT$T$C$F$GT$$u20$as$u20$core..ops..try_trait..FromResidual$LT$core..result..Result$LT$core..convert..Infallible$C$E$GT$$GT$$GT$13from_residual17h373783aad4f6da30E', symObjAddr: 0x3E0, symBinAddr: 0x13FC, symSize: 0x6C }
  - { offset: 0x2A0E, size: 0x8, addend: 0x0, symName: '__ZN153_$LT$core..result..Result$LT$T$C$F$GT$$u20$as$u20$core..ops..try_trait..FromResidual$LT$core..result..Result$LT$core..convert..Infallible$C$E$GT$$GT$$GT$13from_residual17h37c6c76139b34d4cE', symObjAddr: 0x44C, symBinAddr: 0x1468, symSize: 0x6C }
  - { offset: 0x2A94, size: 0x8, addend: 0x0, symName: '__ZN153_$LT$core..result..Result$LT$T$C$F$GT$$u20$as$u20$core..ops..try_trait..FromResidual$LT$core..result..Result$LT$core..convert..Infallible$C$E$GT$$GT$$GT$13from_residual17h3f01522d13d10724E', symObjAddr: 0x4B8, symBinAddr: 0x14D4, symSize: 0x6C }
  - { offset: 0x2B1A, size: 0x8, addend: 0x0, symName: '__ZN153_$LT$core..result..Result$LT$T$C$F$GT$$u20$as$u20$core..ops..try_trait..FromResidual$LT$core..result..Result$LT$core..convert..Infallible$C$E$GT$$GT$$GT$13from_residual17h47f0c9050cc123e9E', symObjAddr: 0x524, symBinAddr: 0x1540, symSize: 0x6C }
  - { offset: 0x2BA0, size: 0x8, addend: 0x0, symName: '__ZN153_$LT$core..result..Result$LT$T$C$F$GT$$u20$as$u20$core..ops..try_trait..FromResidual$LT$core..result..Result$LT$core..convert..Infallible$C$E$GT$$GT$$GT$13from_residual17h5ef5d0ab461b5c4dE', symObjAddr: 0x590, symBinAddr: 0x15AC, symSize: 0x64 }
  - { offset: 0x2C08, size: 0x8, addend: 0x0, symName: '__ZN153_$LT$core..result..Result$LT$T$C$F$GT$$u20$as$u20$core..ops..try_trait..FromResidual$LT$core..result..Result$LT$core..convert..Infallible$C$E$GT$$GT$$GT$13from_residual17h6b12570aac83798aE', symObjAddr: 0x5F4, symBinAddr: 0x1610, symSize: 0x6C }
  - { offset: 0x2C8E, size: 0x8, addend: 0x0, symName: '__ZN153_$LT$core..result..Result$LT$T$C$F$GT$$u20$as$u20$core..ops..try_trait..FromResidual$LT$core..result..Result$LT$core..convert..Infallible$C$E$GT$$GT$$GT$13from_residual17h70351f789bd1f38bE', symObjAddr: 0x660, symBinAddr: 0x167C, symSize: 0x6C }
  - { offset: 0x2D14, size: 0x8, addend: 0x0, symName: '__ZN153_$LT$core..result..Result$LT$T$C$F$GT$$u20$as$u20$core..ops..try_trait..FromResidual$LT$core..result..Result$LT$core..convert..Infallible$C$E$GT$$GT$$GT$13from_residual17ha3a5f63984cb2a60E', symObjAddr: 0x6CC, symBinAddr: 0x16E8, symSize: 0x6C }
  - { offset: 0x2D9A, size: 0x8, addend: 0x0, symName: '__ZN153_$LT$core..result..Result$LT$T$C$F$GT$$u20$as$u20$core..ops..try_trait..FromResidual$LT$core..result..Result$LT$core..convert..Infallible$C$E$GT$$GT$$GT$13from_residual17hccb7814ddc331aa1E', symObjAddr: 0x738, symBinAddr: 0x1754, symSize: 0x6C }
  - { offset: 0x2E20, size: 0x8, addend: 0x0, symName: '__ZN153_$LT$core..result..Result$LT$T$C$F$GT$$u20$as$u20$core..ops..try_trait..FromResidual$LT$core..result..Result$LT$core..convert..Infallible$C$E$GT$$GT$$GT$13from_residual17hd760ac5340895da1E', symObjAddr: 0x7A4, symBinAddr: 0x17C0, symSize: 0x6C }
  - { offset: 0x3CA6, size: 0x8, addend: 0x0, symName: '__ZN4core6result23Result$LT$$RF$T$C$E$GT$6cloned28_$u7b$$u7b$closure$u7d$$u7d$17hb874fcf72ef0e90eE', symObjAddr: 0x27D4, symBinAddr: 0x37F0, symSize: 0x24 }
  - { offset: 0x3CF1, size: 0x8, addend: 0x0, symName: '__ZN4core6result23Result$LT$$RF$T$C$E$GT$6cloned28_$u7b$$u7b$closure$u7d$$u7d$17hc9f7cf55185f4788E', symObjAddr: 0x27F8, symBinAddr: 0x3814, symSize: 0x24 }
  - { offset: 0x5691, size: 0x8, addend: 0x0, symName: '__ZN79_$LT$core..result..Result$LT$T$C$E$GT$$u20$as$u20$core..ops..try_trait..Try$GT$11from_output17hf62f14a9ac7bd84cE', symObjAddr: 0x281C, symBinAddr: 0x3838, symSize: 0x18 }
  - { offset: 0x56D1, size: 0x8, addend: 0x0, symName: '__ZN79_$LT$core..result..Result$LT$T$C$E$GT$$u20$as$u20$core..ops..try_trait..Try$GT$6branch17h0079777f8761a12bE', symObjAddr: 0x2834, symBinAddr: 0x3850, symSize: 0xA0 }
  - { offset: 0x574E, size: 0x8, addend: 0x0, symName: '__ZN79_$LT$core..result..Result$LT$T$C$E$GT$$u20$as$u20$core..ops..try_trait..Try$GT$6branch17h084750f0ce9abc18E', symObjAddr: 0x28D4, symBinAddr: 0x38F0, symSize: 0xA0 }
  - { offset: 0x57CB, size: 0x8, addend: 0x0, symName: '__ZN79_$LT$core..result..Result$LT$T$C$E$GT$$u20$as$u20$core..ops..try_trait..Try$GT$6branch17h14a39c814022a232E', symObjAddr: 0x2974, symBinAddr: 0x3990, symSize: 0xA0 }
  - { offset: 0x5848, size: 0x8, addend: 0x0, symName: '__ZN79_$LT$core..result..Result$LT$T$C$E$GT$$u20$as$u20$core..ops..try_trait..Try$GT$6branch17h168f7ce2e5b519f8E', symObjAddr: 0x2A14, symBinAddr: 0x3A30, symSize: 0xA0 }
  - { offset: 0x58C5, size: 0x8, addend: 0x0, symName: '__ZN79_$LT$core..result..Result$LT$T$C$E$GT$$u20$as$u20$core..ops..try_trait..Try$GT$6branch17h1cd843dca17d9c0dE', symObjAddr: 0x2AB4, symBinAddr: 0x3AD0, symSize: 0xA0 }
  - { offset: 0x5942, size: 0x8, addend: 0x0, symName: '__ZN79_$LT$core..result..Result$LT$T$C$E$GT$$u20$as$u20$core..ops..try_trait..Try$GT$6branch17h1dcf546214cd97d3E', symObjAddr: 0x2B54, symBinAddr: 0x3B70, symSize: 0xAC }
  - { offset: 0x59BF, size: 0x8, addend: 0x0, symName: '__ZN79_$LT$core..result..Result$LT$T$C$E$GT$$u20$as$u20$core..ops..try_trait..Try$GT$6branch17h29c22b86c4b9642aE', symObjAddr: 0x2C00, symBinAddr: 0x3C1C, symSize: 0xB4 }
  - { offset: 0x5A3D, size: 0x8, addend: 0x0, symName: '__ZN79_$LT$core..result..Result$LT$T$C$E$GT$$u20$as$u20$core..ops..try_trait..Try$GT$6branch17h2d8b528e13ea087cE', symObjAddr: 0x2CB4, symBinAddr: 0x3CD0, symSize: 0xA0 }
  - { offset: 0x5ABA, size: 0x8, addend: 0x0, symName: '__ZN79_$LT$core..result..Result$LT$T$C$E$GT$$u20$as$u20$core..ops..try_trait..Try$GT$6branch17h2daff06ec9aa8c8fE', symObjAddr: 0x2D54, symBinAddr: 0x3D70, symSize: 0xA0 }
  - { offset: 0x5B37, size: 0x8, addend: 0x0, symName: '__ZN79_$LT$core..result..Result$LT$T$C$E$GT$$u20$as$u20$core..ops..try_trait..Try$GT$6branch17h2e60a134d706453dE', symObjAddr: 0x2DF4, symBinAddr: 0x3E10, symSize: 0x90 }
  - { offset: 0x5BB4, size: 0x8, addend: 0x0, symName: '__ZN79_$LT$core..result..Result$LT$T$C$E$GT$$u20$as$u20$core..ops..try_trait..Try$GT$6branch17h32b5b9d29eb48b61E', symObjAddr: 0x2E84, symBinAddr: 0x3EA0, symSize: 0xB4 }
  - { offset: 0x5C32, size: 0x8, addend: 0x0, symName: '__ZN79_$LT$core..result..Result$LT$T$C$E$GT$$u20$as$u20$core..ops..try_trait..Try$GT$6branch17h37aa725f55a3cf66E', symObjAddr: 0x2F38, symBinAddr: 0x3F54, symSize: 0xAC }
  - { offset: 0x5CAF, size: 0x8, addend: 0x0, symName: '__ZN79_$LT$core..result..Result$LT$T$C$E$GT$$u20$as$u20$core..ops..try_trait..Try$GT$6branch17h3e1ba30e8ed7a911E', symObjAddr: 0x2FE4, symBinAddr: 0x4000, symSize: 0xA0 }
  - { offset: 0x5D2C, size: 0x8, addend: 0x0, symName: '__ZN79_$LT$core..result..Result$LT$T$C$E$GT$$u20$as$u20$core..ops..try_trait..Try$GT$6branch17h4d63840747762690E', symObjAddr: 0x3084, symBinAddr: 0x40A0, symSize: 0xB4 }
  - { offset: 0x5DAA, size: 0x8, addend: 0x0, symName: '__ZN79_$LT$core..result..Result$LT$T$C$E$GT$$u20$as$u20$core..ops..try_trait..Try$GT$6branch17h67d317c91a0cc7b1E', symObjAddr: 0x3138, symBinAddr: 0x4154, symSize: 0x88 }
  - { offset: 0x5E28, size: 0x8, addend: 0x0, symName: '__ZN79_$LT$core..result..Result$LT$T$C$E$GT$$u20$as$u20$core..ops..try_trait..Try$GT$6branch17h72e12bd99f9ac831E', symObjAddr: 0x31C0, symBinAddr: 0x41DC, symSize: 0xC8 }
  - { offset: 0x5EA7, size: 0x8, addend: 0x0, symName: '__ZN79_$LT$core..result..Result$LT$T$C$E$GT$$u20$as$u20$core..ops..try_trait..Try$GT$6branch17h7ca33db8780c407cE', symObjAddr: 0x3288, symBinAddr: 0x42A4, symSize: 0xA0 }
  - { offset: 0x5F24, size: 0x8, addend: 0x0, symName: '__ZN79_$LT$core..result..Result$LT$T$C$E$GT$$u20$as$u20$core..ops..try_trait..Try$GT$6branch17ha6b1bfd61817852eE', symObjAddr: 0x3328, symBinAddr: 0x4344, symSize: 0x88 }
  - { offset: 0x5FA2, size: 0x8, addend: 0x0, symName: '__ZN79_$LT$core..result..Result$LT$T$C$E$GT$$u20$as$u20$core..ops..try_trait..Try$GT$6branch17haa9668aecb577570E', symObjAddr: 0x33B0, symBinAddr: 0x43CC, symSize: 0xB4 }
  - { offset: 0x6020, size: 0x8, addend: 0x0, symName: '__ZN79_$LT$core..result..Result$LT$T$C$E$GT$$u20$as$u20$core..ops..try_trait..Try$GT$6branch17had709b025b3f5c72E', symObjAddr: 0x3464, symBinAddr: 0x4480, symSize: 0xCC }
  - { offset: 0x609E, size: 0x8, addend: 0x0, symName: '__ZN79_$LT$core..result..Result$LT$T$C$E$GT$$u20$as$u20$core..ops..try_trait..Try$GT$6branch17hb57beb01bb2ae6f2E', symObjAddr: 0x3530, symBinAddr: 0x454C, symSize: 0xB4 }
  - { offset: 0x611C, size: 0x8, addend: 0x0, symName: '__ZN79_$LT$core..result..Result$LT$T$C$E$GT$$u20$as$u20$core..ops..try_trait..Try$GT$6branch17hbf8641fea33164deE', symObjAddr: 0x35E4, symBinAddr: 0x4600, symSize: 0xA0 }
  - { offset: 0x6199, size: 0x8, addend: 0x0, symName: '__ZN79_$LT$core..result..Result$LT$T$C$E$GT$$u20$as$u20$core..ops..try_trait..Try$GT$6branch17hd37e8f0a37e68d29E', symObjAddr: 0x3684, symBinAddr: 0x46A0, symSize: 0xB4 }
  - { offset: 0x6217, size: 0x8, addend: 0x0, symName: '__ZN79_$LT$core..result..Result$LT$T$C$E$GT$$u20$as$u20$core..ops..try_trait..Try$GT$6branch17hd406171019ce4b7eE', symObjAddr: 0x3738, symBinAddr: 0x4754, symSize: 0xA0 }
  - { offset: 0x6294, size: 0x8, addend: 0x0, symName: '__ZN79_$LT$core..result..Result$LT$T$C$E$GT$$u20$as$u20$core..ops..try_trait..Try$GT$6branch17he81b4f8bb5112729E', symObjAddr: 0x37D8, symBinAddr: 0x47F4, symSize: 0xAC }
  - { offset: 0x6311, size: 0x8, addend: 0x0, symName: '__ZN79_$LT$core..result..Result$LT$T$C$E$GT$$u20$as$u20$core..ops..try_trait..Try$GT$6branch17hec97362b506c3b8eE', symObjAddr: 0x3884, symBinAddr: 0x48A0, symSize: 0xC0 }
  - { offset: 0x9A1F, size: 0x8, addend: 0x0, symName: '__ZN106_$LT$core..result..Result$LT$T$C$E$GT$$u20$as$u20$pyo3..impl_..callback..IntoPyCallbackOutput$LT$U$GT$$GT$7convert17h897c2fa5f27318f5E', symObjAddr: 0x0, symBinAddr: 0x101C, symSize: 0xC4 }
  - { offset: 0x9ABB, size: 0x8, addend: 0x0, symName: '__ZN106_$LT$core..result..Result$LT$T$C$E$GT$$u20$as$u20$pyo3..impl_..callback..IntoPyCallbackOutput$LT$U$GT$$GT$7convert17ha0e4a54bb47b7613E', symObjAddr: 0xC4, symBinAddr: 0x10E0, symSize: 0xAC }
  - { offset: 0xAB93, size: 0x8, addend: 0x0, symName: '__ZN4core6result19Result$LT$T$C$E$GT$14unwrap_or_else17hb9412dd06889d698E', symObjAddr: 0x810, symBinAddr: 0x182C, symSize: 0x88 }
  - { offset: 0xAC6F, size: 0x8, addend: 0x0, symName: '__ZN4core6result19Result$LT$T$C$E$GT$14unwrap_or_else17hdcc046b0bd5059caE', symObjAddr: 0x898, symBinAddr: 0x18B4, symSize: 0x90 }
  - { offset: 0xACF9, size: 0x8, addend: 0x0, symName: '__ZN4core6result19Result$LT$T$C$E$GT$14unwrap_or_else17he7c16fdeecb89405E', symObjAddr: 0x928, symBinAddr: 0x1944, symSize: 0x90 }
  - { offset: 0xAD83, size: 0x8, addend: 0x0, symName: '__ZN4core6result19Result$LT$T$C$E$GT$2ok17h447e47099637b026E', symObjAddr: 0x9B8, symBinAddr: 0x19D4, symSize: 0x60 }
  - { offset: 0xADEF, size: 0x8, addend: 0x0, symName: '__ZN4core6result19Result$LT$T$C$E$GT$3map17h0a16cd902e8a6c70E', symObjAddr: 0xA18, symBinAddr: 0x1A34, symSize: 0x90 }
  - { offset: 0xB8AC, size: 0x8, addend: 0x0, symName: '__ZN4core6result19Result$LT$T$C$E$GT$3map17h0d598c3ca0ed6927E', symObjAddr: 0xAA8, symBinAddr: 0x1AC4, symSize: 0x4C }
  - { offset: 0xB9DC, size: 0x8, addend: 0x0, symName: '__ZN4core6result19Result$LT$T$C$E$GT$3map17h10ecc67c5f0ef821E', symObjAddr: 0xAF4, symBinAddr: 0x1B10, symSize: 0x4C }
  - { offset: 0xBA86, size: 0x8, addend: 0x0, symName: '__ZN4core6result19Result$LT$T$C$E$GT$3map17h3032033d017ba3c6E', symObjAddr: 0xB40, symBinAddr: 0x1B5C, symSize: 0x90 }
  - { offset: 0xBB31, size: 0x8, addend: 0x0, symName: '__ZN4core6result19Result$LT$T$C$E$GT$3map17h30da9d51bb01b431E', symObjAddr: 0xBD0, symBinAddr: 0x1BEC, symSize: 0x38 }
  - { offset: 0xBBBD, size: 0x8, addend: 0x0, symName: '__ZN4core6result19Result$LT$T$C$E$GT$3map17h30dde6d1ca6fef5cE', symObjAddr: 0xC08, symBinAddr: 0x1C24, symSize: 0x90 }
  - { offset: 0xBC68, size: 0x8, addend: 0x0, symName: '__ZN4core6result19Result$LT$T$C$E$GT$3map17h3d0f193c11167135E', symObjAddr: 0xC98, symBinAddr: 0x1CB4, symSize: 0x90 }
  - { offset: 0xBCFB, size: 0x8, addend: 0x0, symName: '__ZN4core6result19Result$LT$T$C$E$GT$3map17h46d4790cc345b7a5E', symObjAddr: 0xD28, symBinAddr: 0x1D44, symSize: 0x90 }
  - { offset: 0xBD95, size: 0x8, addend: 0x0, symName: '__ZN4core6result19Result$LT$T$C$E$GT$3map17h588ffcbecb34e97eE', symObjAddr: 0xDB8, symBinAddr: 0x1DD4, symSize: 0xA8 }
  - { offset: 0xBE42, size: 0x8, addend: 0x0, symName: '__ZN4core6result19Result$LT$T$C$E$GT$3map17h5a63600ef3e9159bE', symObjAddr: 0xE60, symBinAddr: 0x1E7C, symSize: 0x88 }
  - { offset: 0xBEED, size: 0x8, addend: 0x0, symName: '__ZN4core6result19Result$LT$T$C$E$GT$3map17h63fbaec6edc2ee9bE', symObjAddr: 0xEE8, symBinAddr: 0x1F04, symSize: 0x90 }
  - { offset: 0xBF80, size: 0x8, addend: 0x0, symName: '__ZN4core6result19Result$LT$T$C$E$GT$3map17h6a6c457c6d2f02b4E', symObjAddr: 0xF78, symBinAddr: 0x1F94, symSize: 0x90 }
  - { offset: 0xC013, size: 0x8, addend: 0x0, symName: '__ZN4core6result19Result$LT$T$C$E$GT$3map17h70b1e294517179ddE', symObjAddr: 0x1008, symBinAddr: 0x2024, symSize: 0x38 }
  - { offset: 0xC09F, size: 0x8, addend: 0x0, symName: '__ZN4core6result19Result$LT$T$C$E$GT$3map17h72f63effcc1c0d41E', symObjAddr: 0x1040, symBinAddr: 0x205C, symSize: 0x38 }
  - { offset: 0xC120, size: 0x8, addend: 0x0, symName: '__ZN4core6result19Result$LT$T$C$E$GT$3map17ha670f34d23ef1b58E', symObjAddr: 0x1078, symBinAddr: 0x2094, symSize: 0x88 }
  - { offset: 0xC1B3, size: 0x8, addend: 0x0, symName: '__ZN4core6result19Result$LT$T$C$E$GT$3map17hb8e0fe9eb5b2dd9bE', symObjAddr: 0x1100, symBinAddr: 0x211C, symSize: 0x90 }
  - { offset: 0xC25E, size: 0x8, addend: 0x0, symName: '__ZN4core6result19Result$LT$T$C$E$GT$3map17hbc907a4d95994c51E', symObjAddr: 0x1190, symBinAddr: 0x21AC, symSize: 0xBC }
  - { offset: 0xC2F2, size: 0x8, addend: 0x0, symName: '__ZN4core6result19Result$LT$T$C$E$GT$3map17hc5bafa2497d51a52E', symObjAddr: 0x124C, symBinAddr: 0x2268, symSize: 0x38 }
  - { offset: 0xC37E, size: 0x8, addend: 0x0, symName: '__ZN4core6result19Result$LT$T$C$E$GT$3map17hd07602fe32376792E', symObjAddr: 0x1284, symBinAddr: 0x22A0, symSize: 0x94 }
  - { offset: 0xC429, size: 0x8, addend: 0x0, symName: '__ZN4core6result19Result$LT$T$C$E$GT$3map17hdff3a97a93ddeb40E', symObjAddr: 0x1318, symBinAddr: 0x2334, symSize: 0x38 }
  - { offset: 0xC507, size: 0x8, addend: 0x0, symName: '__ZN4core6result19Result$LT$T$C$E$GT$3map17hf11cc241f911074cE', symObjAddr: 0x1350, symBinAddr: 0x236C, symSize: 0x94 }
  - { offset: 0xC5A1, size: 0x8, addend: 0x0, symName: '__ZN4core6result19Result$LT$T$C$E$GT$3map17hf3b5841bbb479466E', symObjAddr: 0x13E4, symBinAddr: 0x2400, symSize: 0x9C }
  - { offset: 0xC659, size: 0x8, addend: 0x0, symName: '__ZN4core6result19Result$LT$T$C$E$GT$3map17hfe4b46015e079c7eE', symObjAddr: 0x1480, symBinAddr: 0x249C, symSize: 0x38 }
  - { offset: 0xC6E5, size: 0x8, addend: 0x0, symName: '__ZN4core6result19Result$LT$T$C$E$GT$3map17hfe621b90b81119c0E', symObjAddr: 0x14B8, symBinAddr: 0x24D4, symSize: 0x38 }
  - { offset: 0xC78B, size: 0x8, addend: 0x0, symName: '__ZN4core6result19Result$LT$T$C$E$GT$6is_err17h38d5722180045949E', symObjAddr: 0x14F0, symBinAddr: 0x250C, symSize: 0x20 }
  - { offset: 0xD04C, size: 0x8, addend: 0x0, symName: '__ZN4core6result19Result$LT$T$C$E$GT$7map_err17h0f3a368995f87affE', symObjAddr: 0x1510, symBinAddr: 0x252C, symSize: 0xDC }
  - { offset: 0xD0F8, size: 0x8, addend: 0x0, symName: '__ZN4core6result19Result$LT$T$C$E$GT$7map_err17h1d3461854ad3a350E', symObjAddr: 0x15EC, symBinAddr: 0x2608, symSize: 0xB0 }
  - { offset: 0xD18B, size: 0x8, addend: 0x0, symName: '__ZN4core6result19Result$LT$T$C$E$GT$7map_err17h2d762faf07745b8bE', symObjAddr: 0x169C, symBinAddr: 0x26B8, symSize: 0x9C }
  - { offset: 0xD295, size: 0x8, addend: 0x0, symName: '__ZN4core6result19Result$LT$T$C$E$GT$7map_err17h38185a6e8df6aaeeE', symObjAddr: 0x1738, symBinAddr: 0x2754, symSize: 0x48 }
  - { offset: 0xD323, size: 0x8, addend: 0x0, symName: '__ZN4core6result19Result$LT$T$C$E$GT$7map_err17h3b830d44fdc4d599E', symObjAddr: 0x1780, symBinAddr: 0x279C, symSize: 0xCC }
  - { offset: 0xD3C4, size: 0x8, addend: 0x0, symName: '__ZN4core6result19Result$LT$T$C$E$GT$7map_err17h433b4db972d726beE', symObjAddr: 0x184C, symBinAddr: 0x2868, symSize: 0xA0 }
  - { offset: 0xD457, size: 0x8, addend: 0x0, symName: '__ZN4core6result19Result$LT$T$C$E$GT$7map_err17h47fcb6b647eb36a6E', symObjAddr: 0x18EC, symBinAddr: 0x2908, symSize: 0xCC }
  - { offset: 0xD503, size: 0x8, addend: 0x0, symName: '__ZN4core6result19Result$LT$T$C$E$GT$7map_err17h5e104b6257df08ddE', symObjAddr: 0x19B8, symBinAddr: 0x29D4, symSize: 0x84 }
  - { offset: 0xD595, size: 0x8, addend: 0x0, symName: '__ZN4core6result19Result$LT$T$C$E$GT$7map_err17h6663ec4db3fa5ed3E', symObjAddr: 0x1A3C, symBinAddr: 0x2A58, symSize: 0xCC }
  - { offset: 0xD636, size: 0x8, addend: 0x0, symName: '__ZN4core6result19Result$LT$T$C$E$GT$7map_err17h75d1924f0cd56c44E', symObjAddr: 0x1B08, symBinAddr: 0x2B24, symSize: 0xA0 }
  - { offset: 0xD6C9, size: 0x8, addend: 0x0, symName: '__ZN4core6result19Result$LT$T$C$E$GT$7map_err17h7c5cfdb6f6ac7659E', symObjAddr: 0x1BA8, symBinAddr: 0x2BC4, symSize: 0xB8 }
  - { offset: 0xD75C, size: 0x8, addend: 0x0, symName: '__ZN4core6result19Result$LT$T$C$E$GT$7map_err17h9645556d6876087bE', symObjAddr: 0x1C60, symBinAddr: 0x2C7C, symSize: 0x7C }
  - { offset: 0xD7EE, size: 0x8, addend: 0x0, symName: '__ZN4core6result19Result$LT$T$C$E$GT$7map_err17h9c9cb02d036ccfe0E', symObjAddr: 0x1CDC, symBinAddr: 0x2CF8, symSize: 0xB0 }
  - { offset: 0xD881, size: 0x8, addend: 0x0, symName: '__ZN4core6result19Result$LT$T$C$E$GT$7map_err17ha0d531dfa67c3750E', symObjAddr: 0x1D8C, symBinAddr: 0x2DA8, symSize: 0xC8 }
  - { offset: 0xD915, size: 0x8, addend: 0x0, symName: '__ZN4core6result19Result$LT$T$C$E$GT$7map_err17hac74e05ce6ac2c1bE', symObjAddr: 0x1E54, symBinAddr: 0x2E70, symSize: 0x84 }
  - { offset: 0xD9A7, size: 0x8, addend: 0x0, symName: '__ZN4core6result19Result$LT$T$C$E$GT$7map_err17hb37bd71329b1298bE', symObjAddr: 0x1ED8, symBinAddr: 0x2EF4, symSize: 0xC4 }
  - { offset: 0xDA3A, size: 0x8, addend: 0x0, symName: '__ZN4core6result19Result$LT$T$C$E$GT$7map_err17hd4e42eef7f5435dcE', symObjAddr: 0x1F9C, symBinAddr: 0x2FB8, symSize: 0xC4 }
  - { offset: 0xDACD, size: 0x8, addend: 0x0, symName: '__ZN4core6result19Result$LT$T$C$E$GT$7map_err17hda78b9f2832d9770E', symObjAddr: 0x2060, symBinAddr: 0x307C, symSize: 0xC8 }
  - { offset: 0xDB61, size: 0x8, addend: 0x0, symName: '__ZN4core6result19Result$LT$T$C$E$GT$7map_err17hde6fe3d4d18b6ab8E', symObjAddr: 0x2128, symBinAddr: 0x3144, symSize: 0x30 }
  - { offset: 0xDBD7, size: 0x8, addend: 0x0, symName: '__ZN4core6result19Result$LT$T$C$E$GT$7map_err17he5b38a23a2007a60E', symObjAddr: 0x2158, symBinAddr: 0x3174, symSize: 0xC8 }
  - { offset: 0xDC6A, size: 0x8, addend: 0x0, symName: '__ZN4core6result19Result$LT$T$C$E$GT$7map_err17hfb566a856bf3f816E', symObjAddr: 0x2220, symBinAddr: 0x323C, symSize: 0x9C }
  - { offset: 0xDCFD, size: 0x8, addend: 0x0, symName: '__ZN4core6result19Result$LT$T$C$E$GT$8and_then17h206252010ef1d68eE', symObjAddr: 0x22BC, symBinAddr: 0x32D8, symSize: 0xB0 }
  - { offset: 0xDD91, size: 0x8, addend: 0x0, symName: '__ZN4core6result19Result$LT$T$C$E$GT$8and_then17h3557f69ab2afc79dE', symObjAddr: 0x236C, symBinAddr: 0x3388, symSize: 0x9C }
  - { offset: 0xDE24, size: 0x8, addend: 0x0, symName: '__ZN4core6result19Result$LT$T$C$E$GT$8and_then17had8c23ee8899e6a7E', symObjAddr: 0x2408, symBinAddr: 0x3424, symSize: 0xB0 }
  - { offset: 0xDEB8, size: 0x8, addend: 0x0, symName: '__ZN4core6result19Result$LT$T$C$E$GT$8and_then17hb4d21423295d137bE', symObjAddr: 0x24B8, symBinAddr: 0x34D4, symSize: 0x88 }
  - { offset: 0xDF4B, size: 0x8, addend: 0x0, symName: '__ZN4core6result19Result$LT$T$C$E$GT$8and_then17hbf5b5aa420dffb9eE', symObjAddr: 0x2540, symBinAddr: 0x355C, symSize: 0xB0 }
  - { offset: 0xDFDF, size: 0x8, addend: 0x0, symName: '__ZN4core6result19Result$LT$T$C$E$GT$8and_then17hd19febba8f874a7cE', symObjAddr: 0x25F0, symBinAddr: 0x360C, symSize: 0xB0 }
  - { offset: 0xE073, size: 0x8, addend: 0x0, symName: '__ZN4core6result19Result$LT$T$C$E$GT$8and_then17he0b000bfebd955dfE', symObjAddr: 0x26A0, symBinAddr: 0x36BC, symSize: 0x9C }
  - { offset: 0xE106, size: 0x8, addend: 0x0, symName: '__ZN4core6result19Result$LT$T$C$E$GT$9unwrap_or17hccf618cfc2893bbeE', symObjAddr: 0x273C, symBinAddr: 0x3758, symSize: 0x70 }
  - { offset: 0xE169, size: 0x8, addend: 0x0, symName: '__ZN4core6result23Result$LT$$RF$T$C$E$GT$6cloned17h45f9b507cd434e73E', symObjAddr: 0x27AC, symBinAddr: 0x37C8, symSize: 0x14 }
  - { offset: 0xE19F, size: 0x8, addend: 0x0, symName: '__ZN4core6result23Result$LT$$RF$T$C$E$GT$6cloned17h7cb5e1f55dd7e17bE', symObjAddr: 0x27C0, symBinAddr: 0x37DC, symSize: 0x14 }
  - { offset: 0xE2B9, size: 0x8, addend: 0x0, symName: '__ZN4pyo35types5float64_$LT$impl$u20$pyo3..conversion..IntoPyObject$u20$for$u20$f64$GT$13into_pyobject17hab83ffcab8d2d255E', symObjAddr: 0x0, symBinAddr: 0x4960, symSize: 0x20 }
  - { offset: 0xF402, size: 0x8, addend: 0x0, symName: '__ZN4pyo35types5float64_$LT$impl$u20$pyo3..conversion..IntoPyObject$u20$for$u20$f64$GT$13into_pyobject17hab83ffcab8d2d255E', symObjAddr: 0x0, symBinAddr: 0x4960, symSize: 0x20 }
  - { offset: 0xF9F1, size: 0x8, addend: 0x0, symName: '__ZN4core3cmp5impls50_$LT$impl$u20$core..cmp..Ord$u20$for$u20$usize$GT$3cmp17h5b8675bb7d3da69bE', symObjAddr: 0x0, symBinAddr: 0x4980, symSize: 0x38 }
  - { offset: 0xFA30, size: 0x8, addend: 0x0, symName: '__ZN4core3cmp5impls50_$LT$impl$u20$core..cmp..Ord$u20$for$u20$usize$GT$3cmp17h5b8675bb7d3da69bE', symObjAddr: 0x0, symBinAddr: 0x4980, symSize: 0x38 }
  - { offset: 0xFA73, size: 0x8, addend: 0x0, symName: '__ZN4core3cmp5impls54_$LT$impl$u20$core..cmp..PartialEq$u20$for$u20$u64$GT$2eq17hade21521ebcf72d6E', symObjAddr: 0x38, symBinAddr: 0x49B8, symSize: 0x2C }
  - { offset: 0xFAB6, size: 0x8, addend: 0x0, symName: '__ZN4core3cmp5impls56_$LT$impl$u20$core..cmp..PartialEq$u20$for$u20$usize$GT$2ne17h9c79ff3b2bd5ba66E', symObjAddr: 0x64, symBinAddr: 0x49E4, symSize: 0x2C }
  - { offset: 0xFB4B, size: 0x8, addend: 0x0, symName: __ZN4core5slice4sort6shared5pivot11median3_rec17h7db1658efc5b9bf5E, symObjAddr: 0x0, symBinAddr: 0x4A10, symSize: 0x1F4 }
  - { offset: 0xFF2F, size: 0x8, addend: 0x0, symName: __ZN4core5slice4sort6shared5pivot11median3_rec17h7db1658efc5b9bf5E, symObjAddr: 0x0, symBinAddr: 0x4A10, symSize: 0x1F4 }
  - { offset: 0x101AE, size: 0x8, addend: 0x0, symName: __ZN4core5slice4sort6shared5pivot11median3_rec17hfd365ed7325d61f3E, symObjAddr: 0x1F4, symBinAddr: 0x4C04, symSize: 0x1F4 }
  - { offset: 0x103B4, size: 0x8, addend: 0x0, symName: __ZN4core5slice4sort6shared5pivot12choose_pivot17h59a2f58044b1076fE, symObjAddr: 0x3E8, symBinAddr: 0x4DF8, symSize: 0x244 }
  - { offset: 0x10648, size: 0x8, addend: 0x0, symName: __ZN4core5slice4sort6shared5pivot12choose_pivot17h829de2fbd9b12ba0E, symObjAddr: 0x62C, symBinAddr: 0x503C, symSize: 0x244 }
  - { offset: 0x10C7B, size: 0x8, addend: 0x0, symName: '__ZN4core4iter8adapters8peekable17Peekable$LT$I$GT$4peek28_$u7b$$u7b$closure$u7d$$u7d$17hb3a451c3b3dfebc8E', symObjAddr: 0x0, symBinAddr: 0x5280, symSize: 0x24 }
  - { offset: 0x10CA6, size: 0x8, addend: 0x0, symName: '__ZN4core4iter8adapters8peekable17Peekable$LT$I$GT$4peek28_$u7b$$u7b$closure$u7d$$u7d$17hb3a451c3b3dfebc8E', symObjAddr: 0x0, symBinAddr: 0x5280, symSize: 0x24 }
  - { offset: 0x10CDD, size: 0x8, addend: 0x0, symName: '__ZN4core4iter8adapters8peekable17Peekable$LT$I$GT$4peek28_$u7b$$u7b$closure$u7d$$u7d$17he6fd9982fb5cb7d9E', symObjAddr: 0x24, symBinAddr: 0x52A4, symSize: 0x24 }
  - { offset: 0x112CA, size: 0x8, addend: 0x0, symName: '__ZN47_$LT$T$u20$as$u20$pyo3..err..PyErrArguments$GT$9arguments17he4bb2b20e2894e3dE', symObjAddr: 0x0, symBinAddr: 0x52C8, symSize: 0x34 }
  - { offset: 0x113CA, size: 0x8, addend: 0x0, symName: '__ZN4pyo33err5PyErr3new28_$u7b$$u7b$closure$u7d$$u7d$17h0c43237a0f997e5aE', symObjAddr: 0x6D8, symBinAddr: 0x59A0, symSize: 0xC0 }
  - { offset: 0x11422, size: 0x8, addend: 0x0, symName: '__ZN4pyo33err5PyErr3new28_$u7b$$u7b$closure$u7d$$u7d$17h0d8a4c9de80c374fE', symObjAddr: 0x798, symBinAddr: 0x5A60, symSize: 0xD4 }
  - { offset: 0x1147B, size: 0x8, addend: 0x0, symName: '__ZN4pyo33err5PyErr3new28_$u7b$$u7b$closure$u7d$$u7d$17h188494adc4c3ee8cE', symObjAddr: 0x86C, symBinAddr: 0x5B34, symSize: 0xB0 }
  - { offset: 0x114D3, size: 0x8, addend: 0x0, symName: '__ZN4pyo33err5PyErr3new28_$u7b$$u7b$closure$u7d$$u7d$17h1eab55c5d14116f8E', symObjAddr: 0x91C, symBinAddr: 0x5BE4, symSize: 0xD4 }
  - { offset: 0x1152C, size: 0x8, addend: 0x0, symName: '__ZN4pyo33err5PyErr3new28_$u7b$$u7b$closure$u7d$$u7d$17h49f03a3b1dca4d62E', symObjAddr: 0x9F0, symBinAddr: 0x5CB8, symSize: 0xD4 }
  - { offset: 0x11585, size: 0x8, addend: 0x0, symName: '__ZN4pyo33err5PyErr3new28_$u7b$$u7b$closure$u7d$$u7d$17h7b42f03802399afdE', symObjAddr: 0xAC4, symBinAddr: 0x5D8C, symSize: 0xD4 }
  - { offset: 0x115DE, size: 0x8, addend: 0x0, symName: '__ZN4pyo33err5PyErr3new28_$u7b$$u7b$closure$u7d$$u7d$17h991a01fd00e52504E', symObjAddr: 0xB98, symBinAddr: 0x5E60, symSize: 0xD4 }
  - { offset: 0x11637, size: 0x8, addend: 0x0, symName: '__ZN4pyo33err5PyErr3new28_$u7b$$u7b$closure$u7d$$u7d$17hb2c7aa5f7bc8e99eE', symObjAddr: 0xC6C, symBinAddr: 0x5F34, symSize: 0xD4 }
  - { offset: 0x11690, size: 0x8, addend: 0x0, symName: '__ZN4pyo33err5PyErr3new28_$u7b$$u7b$closure$u7d$$u7d$17hbb79d632de409bf5E', symObjAddr: 0xD40, symBinAddr: 0x6008, symSize: 0xD4 }
  - { offset: 0x116E9, size: 0x8, addend: 0x0, symName: '__ZN4pyo33err5PyErr3new28_$u7b$$u7b$closure$u7d$$u7d$17he680a8d82c2518bcE', symObjAddr: 0xE14, symBinAddr: 0x60DC, symSize: 0xC0 }
  - { offset: 0x11741, size: 0x8, addend: 0x0, symName: '__ZN4pyo33err5PyErr3new28_$u7b$$u7b$closure$u7d$$u7d$17hec2ec8e7609c4c2cE', symObjAddr: 0xED4, symBinAddr: 0x619C, symSize: 0xD4 }
  - { offset: 0x117A1, size: 0x8, addend: 0x0, symName: '__ZN47_$LT$T$u20$as$u20$pyo3..err..PyErrArguments$GT$9arguments17he4bb2b20e2894e3dE', symObjAddr: 0x0, symBinAddr: 0x52C8, symSize: 0x34 }
  - { offset: 0x13A4C, size: 0x8, addend: 0x0, symName: __ZN4pyo33err5PyErr3new17h0790bd04420bc996E, symObjAddr: 0x34, symBinAddr: 0x52FC, symSize: 0x9C }
  - { offset: 0x13AAA, size: 0x8, addend: 0x0, symName: __ZN4pyo33err5PyErr3new17h179c351b4322f113E, symObjAddr: 0xD0, symBinAddr: 0x5398, symSize: 0xA0 }
  - { offset: 0x13B09, size: 0x8, addend: 0x0, symName: __ZN4pyo33err5PyErr3new17h1cce0473facd314dE, symObjAddr: 0x170, symBinAddr: 0x5438, symSize: 0xA0 }
  - { offset: 0x13B68, size: 0x8, addend: 0x0, symName: __ZN4pyo33err5PyErr3new17h259e79f8757f7970E, symObjAddr: 0x210, symBinAddr: 0x54D8, symSize: 0x9C }
  - { offset: 0x13BC6, size: 0x8, addend: 0x0, symName: __ZN4pyo33err5PyErr3new17h2ac1d4fd7af267fbE, symObjAddr: 0x2AC, symBinAddr: 0x5574, symSize: 0xA0 }
  - { offset: 0x13C25, size: 0x8, addend: 0x0, symName: __ZN4pyo33err5PyErr3new17h357921fd544723b5E, symObjAddr: 0x34C, symBinAddr: 0x5614, symSize: 0xA0 }
  - { offset: 0x13C84, size: 0x8, addend: 0x0, symName: __ZN4pyo33err5PyErr3new17h42a05af82c4f2d04E, symObjAddr: 0x3EC, symBinAddr: 0x56B4, symSize: 0xA0 }
  - { offset: 0x13CE3, size: 0x8, addend: 0x0, symName: __ZN4pyo33err5PyErr3new17h673aa1e0e98dec1dE, symObjAddr: 0x48C, symBinAddr: 0x5754, symSize: 0xA0 }
  - { offset: 0x13D42, size: 0x8, addend: 0x0, symName: __ZN4pyo33err5PyErr3new17ha1e3953ca4702550E, symObjAddr: 0x52C, symBinAddr: 0x57F4, symSize: 0xA0 }
  - { offset: 0x13DA1, size: 0x8, addend: 0x0, symName: __ZN4pyo33err5PyErr3new17haf928a87a416e377E, symObjAddr: 0x5CC, symBinAddr: 0x5894, symSize: 0x6C }
  - { offset: 0x13DF6, size: 0x8, addend: 0x0, symName: __ZN4pyo33err5PyErr3new17hb8ac5d3ff5de1251E, symObjAddr: 0x638, symBinAddr: 0x5900, symSize: 0xA0 }
  - { offset: 0x13E9E, size: 0x8, addend: 0x0, symName: '__ZN4pyo35types10boolobject65_$LT$impl$u20$pyo3..conversion..IntoPyObject$u20$for$u20$bool$GT$13into_pyobject17hf94d799f17440bbaE', symObjAddr: 0x0, symBinAddr: 0x6270, symSize: 0x20 }
  - { offset: 0x14FCF, size: 0x8, addend: 0x0, symName: '__ZN4pyo35types10boolobject65_$LT$impl$u20$pyo3..conversion..IntoPyObject$u20$for$u20$bool$GT$13into_pyobject17hf94d799f17440bbaE', symObjAddr: 0x0, symBinAddr: 0x6270, symSize: 0x20 }
  - { offset: 0x155D3, size: 0x8, addend: 0x0, symName: __ZN4pyo35types10boolobject6PyBool3new17h1138b4eddb4b59c4E, symObjAddr: 0x20, symBinAddr: 0x6290, symSize: 0x50 }
  - { offset: 0x1562C, size: 0x8, addend: 0x0, symName: '__ZN5alloc3vec16Vec$LT$T$C$A$GT$7set_len18precondition_check17h0e89000a57e35291E', symObjAddr: 0x0, symBinAddr: 0x62E0, symSize: 0xAC }
  - { offset: 0x15ADE, size: 0x8, addend: 0x0, symName: '__ZN5alloc3vec16Vec$LT$T$C$A$GT$7set_len18precondition_check17h0e89000a57e35291E', symObjAddr: 0x0, symBinAddr: 0x62E0, symSize: 0xAC }
  - { offset: 0x15B68, size: 0x8, addend: 0x0, symName: '__ZN96_$LT$pyo3..pycell..impl_..BorrowChecker$u20$as$u20$pyo3..pycell..impl_..PyClassBorrowChecker$GT$3new17h9927cce892419dd9E', symObjAddr: 0x0, symBinAddr: 0x638C, symSize: 0x40 }
  - { offset: 0x15B89, size: 0x8, addend: 0x0, symName: '__ZN96_$LT$pyo3..pycell..impl_..BorrowChecker$u20$as$u20$pyo3..pycell..impl_..PyClassBorrowChecker$GT$3new17h9927cce892419dd9E', symObjAddr: 0x0, symBinAddr: 0x638C, symSize: 0x40 }
  - { offset: 0x15C44, size: 0x8, addend: 0x0, symName: '__ZN185_$LT$core..ops..control_flow..ControlFlow$LT$B$C$C$GT$$u20$as$u20$core..ops..try_trait..FromResidual$LT$core..ops..control_flow..ControlFlow$LT$B$C$core..convert..Infallible$GT$$GT$$GT$13from_residual17h24efba47e26fa4aeE', symObjAddr: 0x0, symBinAddr: 0x63CC, symSize: 0x48 }
  - { offset: 0x15CCC, size: 0x8, addend: 0x0, symName: '__ZN185_$LT$core..ops..control_flow..ControlFlow$LT$B$C$C$GT$$u20$as$u20$core..ops..try_trait..FromResidual$LT$core..ops..control_flow..ControlFlow$LT$B$C$core..convert..Infallible$GT$$GT$$GT$13from_residual17h24efba47e26fa4aeE', symObjAddr: 0x0, symBinAddr: 0x63CC, symSize: 0x48 }
  - { offset: 0x15D0B, size: 0x8, addend: 0x0, symName: '__ZN185_$LT$core..ops..control_flow..ControlFlow$LT$B$C$C$GT$$u20$as$u20$core..ops..try_trait..FromResidual$LT$core..ops..control_flow..ControlFlow$LT$B$C$core..convert..Infallible$GT$$GT$$GT$13from_residual17h959feb22b4c97eb9E', symObjAddr: 0x48, symBinAddr: 0x6414, symSize: 0x48 }
  - { offset: 0x15D55, size: 0x8, addend: 0x0, symName: __ZN4core3ops12control_flow11ControlFlow5Break17hff146d4205c7ed8dE, symObjAddr: 0x90, symBinAddr: 0x645C, symSize: 0x30 }
  - { offset: 0x15D97, size: 0x8, addend: 0x0, symName: '__ZN95_$LT$core..ops..control_flow..ControlFlow$LT$B$C$C$GT$$u20$as$u20$core..ops..try_trait..Try$GT$11from_output17h2648df15f5318d59E', symObjAddr: 0xC0, symBinAddr: 0x648C, symSize: 0x18 }
  - { offset: 0x15DD5, size: 0x8, addend: 0x0, symName: '__ZN95_$LT$core..ops..control_flow..ControlFlow$LT$B$C$C$GT$$u20$as$u20$core..ops..try_trait..Try$GT$11from_output17h2a410c071a19a463E', symObjAddr: 0xD8, symBinAddr: 0x64A4, symSize: 0x18 }
  - { offset: 0x15E13, size: 0x8, addend: 0x0, symName: '__ZN95_$LT$core..ops..control_flow..ControlFlow$LT$B$C$C$GT$$u20$as$u20$core..ops..try_trait..Try$GT$6branch17h67c5bed827ec29daE', symObjAddr: 0xF0, symBinAddr: 0x64BC, symSize: 0x94 }
  - { offset: 0x15E8C, size: 0x8, addend: 0x0, symName: '__ZN95_$LT$core..ops..control_flow..ControlFlow$LT$B$C$C$GT$$u20$as$u20$core..ops..try_trait..Try$GT$6branch17h9bd4570f143b1ec7E', symObjAddr: 0x184, symBinAddr: 0x6550, symSize: 0x94 }
  - { offset: 0x1684C, size: 0x8, addend: 0x0, symName: '__ZN4core3ptr8non_null16NonNull$LT$T$GT$20offset_from_unsigned17h1464e84a1ee7dba6E', symObjAddr: 0x0, symBinAddr: 0x65E4, symSize: 0x7C }
  - { offset: 0x16DD7, size: 0x8, addend: 0x0, symName: '__ZN4core3ptr8non_null16NonNull$LT$T$GT$20offset_from_unsigned17h1464e84a1ee7dba6E', symObjAddr: 0x0, symBinAddr: 0x65E4, symSize: 0x7C }
  - { offset: 0x16EFF, size: 0x8, addend: 0x0, symName: '__ZN4core3ptr8non_null16NonNull$LT$T$GT$20offset_from_unsigned17hc5d6e90d265f8e1bE', symObjAddr: 0x7C, symBinAddr: 0x6660, symSize: 0x7C }
  - { offset: 0x16FF1, size: 0x8, addend: 0x0, symName: '__ZN5alloc11collections5btree3fix178_$LT$impl$u20$alloc..collections..btree..node..NodeRef$LT$alloc..collections..btree..node..marker..Owned$C$K$C$V$C$alloc..collections..btree..node..marker..LeafOrInternal$GT$$GT$29fix_right_border_of_plentiful17h265acb79b4b2a020E', symObjAddr: 0x0, symBinAddr: 0x66DC, symSize: 0x188 }
  - { offset: 0x204EF, size: 0x8, addend: 0x0, symName: '__ZN5alloc11collections5btree4node127NodeRef$LT$alloc..collections..btree..node..marker..Owned$C$K$C$V$C$alloc..collections..btree..node..marker..LeafOrInternal$GT$19push_internal_level28_$u7b$$u7b$closure$u7d$$u7d$17h83ef13b8602f2d5aE', symObjAddr: 0x1598, symBinAddr: 0x7C74, symSize: 0x34 }
  - { offset: 0x20548, size: 0x8, addend: 0x0, symName: '__ZN5alloc11collections5btree4node127NodeRef$LT$alloc..collections..btree..node..marker..Owned$C$K$C$V$C$alloc..collections..btree..node..marker..LeafOrInternal$GT$19push_internal_level28_$u7b$$u7b$closure$u7d$$u7d$17hc4d8850a621d9110E', symObjAddr: 0x15CC, symBinAddr: 0x7CA8, symSize: 0x34 }
  - { offset: 0x205C9, size: 0x8, addend: 0x0, symName: __ZN5alloc11collections5btree4node12slice_insert17h54a70d53d3474b51E, symObjAddr: 0x1600, symBinAddr: 0x7CDC, symSize: 0x16C }
  - { offset: 0x20754, size: 0x8, addend: 0x0, symName: __ZN5alloc11collections5btree4node12slice_insert17h83f6d7e1abe5b8bbE, symObjAddr: 0x176C, symBinAddr: 0x7E48, symSize: 0x114 }
  - { offset: 0x208BA, size: 0x8, addend: 0x0, symName: __ZN5alloc11collections5btree4node13move_to_slice17h3f6ec0b2a6cb1d95E, symObjAddr: 0x1880, symBinAddr: 0x7F5C, symSize: 0xB8 }
  - { offset: 0x20966, size: 0x8, addend: 0x0, symName: __ZN5alloc11collections5btree4node13move_to_slice17h644959c7799c043dE, symObjAddr: 0x1938, symBinAddr: 0x8014, symSize: 0xB0 }
  - { offset: 0x20A12, size: 0x8, addend: 0x0, symName: __ZN5alloc11collections5btree4node13move_to_slice17ha038413728307e9cE, symObjAddr: 0x19E8, symBinAddr: 0x80C4, symSize: 0xB8 }
  - { offset: 0x20ABE, size: 0x8, addend: 0x0, symName: __ZN5alloc11collections5btree4node13move_to_slice17hcd09e31ec0326a90E, symObjAddr: 0x1AA0, symBinAddr: 0x817C, symSize: 0xB0 }
  - { offset: 0x21AA3, size: 0x8, addend: 0x0, symName: __ZN5alloc11collections5btree4node9slice_shr17h061ec642e6c6aaaeE, symObjAddr: 0x6900, symBinAddr: 0xCFDC, symSize: 0xB8 }
  - { offset: 0x21B65, size: 0x8, addend: 0x0, symName: __ZN5alloc11collections5btree4node9slice_shr17h52d796f0f2c88317E, symObjAddr: 0x69B8, symBinAddr: 0xD094, symSize: 0xB4 }
  - { offset: 0x21C27, size: 0x8, addend: 0x0, symName: __ZN5alloc11collections5btree4node9slice_shr17h6668457978286c0eE, symObjAddr: 0x6A6C, symBinAddr: 0xD148, symSize: 0xB4 }
  - { offset: 0x21CE9, size: 0x8, addend: 0x0, symName: __ZN5alloc11collections5btree4node9slice_shr17h91f579db97b8c6e2E, symObjAddr: 0x6B20, symBinAddr: 0xD1FC, symSize: 0xB8 }
  - { offset: 0x23932, size: 0x8, addend: 0x0, symName: '__ZN5alloc11collections5btree3fix178_$LT$impl$u20$alloc..collections..btree..node..NodeRef$LT$alloc..collections..btree..node..marker..Owned$C$K$C$V$C$alloc..collections..btree..node..marker..LeafOrInternal$GT$$GT$29fix_right_border_of_plentiful17h265acb79b4b2a020E', symObjAddr: 0x0, symBinAddr: 0x66DC, symSize: 0x188 }
  - { offset: 0x23D03, size: 0x8, addend: 0x0, symName: '__ZN5alloc11collections5btree3fix178_$LT$impl$u20$alloc..collections..btree..node..NodeRef$LT$alloc..collections..btree..node..marker..Owned$C$K$C$V$C$alloc..collections..btree..node..marker..LeafOrInternal$GT$$GT$29fix_right_border_of_plentiful17h8d0ac52062bb9d08E', symObjAddr: 0x188, symBinAddr: 0x6864, symSize: 0x188 }
  - { offset: 0x241D7, size: 0x8, addend: 0x0, symName: '__ZN5alloc11collections5btree4node115NodeRef$LT$alloc..collections..btree..node..marker..Mut$C$K$C$V$C$alloc..collections..btree..node..marker..Leaf$GT$16push_with_handle17h3ad1b01eb31a8ab6E', symObjAddr: 0x310, symBinAddr: 0x69EC, symSize: 0x210 }
  - { offset: 0x247A0, size: 0x8, addend: 0x0, symName: '__ZN5alloc11collections5btree4node115NodeRef$LT$alloc..collections..btree..node..marker..Mut$C$K$C$V$C$alloc..collections..btree..node..marker..Leaf$GT$16push_with_handle17had8f9464de8b0116E', symObjAddr: 0x520, symBinAddr: 0x6BFC, symSize: 0x210 }
  - { offset: 0x24B5D, size: 0x8, addend: 0x0, symName: '__ZN5alloc11collections5btree4node119NodeRef$LT$alloc..collections..btree..node..marker..Mut$C$K$C$V$C$alloc..collections..btree..node..marker..Internal$GT$30correct_childrens_parent_links17h30874c08baa90a59E', symObjAddr: 0x730, symBinAddr: 0x6E0C, symSize: 0xB4 }
  - { offset: 0x24CA7, size: 0x8, addend: 0x0, symName: '__ZN5alloc11collections5btree4node119NodeRef$LT$alloc..collections..btree..node..marker..Mut$C$K$C$V$C$alloc..collections..btree..node..marker..Internal$GT$30correct_childrens_parent_links17h397fe2f7b7d6c892E', symObjAddr: 0x7E4, symBinAddr: 0x6EC0, symSize: 0xB4 }
  - { offset: 0x24DDE, size: 0x8, addend: 0x0, symName: '__ZN5alloc11collections5btree4node119NodeRef$LT$alloc..collections..btree..node..marker..Mut$C$K$C$V$C$alloc..collections..btree..node..marker..Internal$GT$30correct_childrens_parent_links17h5e70bc15765081ceE', symObjAddr: 0x898, symBinAddr: 0x6F74, symSize: 0xB4 }
  - { offset: 0x24F14, size: 0x8, addend: 0x0, symName: '__ZN5alloc11collections5btree4node119NodeRef$LT$alloc..collections..btree..node..marker..Mut$C$K$C$V$C$alloc..collections..btree..node..marker..Internal$GT$30correct_childrens_parent_links17hd833a8c3cd109c14E', symObjAddr: 0x94C, symBinAddr: 0x7028, symSize: 0xB4 }
  - { offset: 0x25343, size: 0x8, addend: 0x0, symName: '__ZN5alloc11collections5btree4node119NodeRef$LT$alloc..collections..btree..node..marker..Mut$C$K$C$V$C$alloc..collections..btree..node..marker..Internal$GT$4push17h557817bd5f62dbabE', symObjAddr: 0xA00, symBinAddr: 0x70DC, symSize: 0x308 }
  - { offset: 0x25B30, size: 0x8, addend: 0x0, symName: '__ZN5alloc11collections5btree4node119NodeRef$LT$alloc..collections..btree..node..marker..Mut$C$K$C$V$C$alloc..collections..btree..node..marker..Internal$GT$4push17hb7d67a5bd6b1d5c2E', symObjAddr: 0xD08, symBinAddr: 0x73E4, symSize: 0x308 }
  - { offset: 0x25FFA, size: 0x8, addend: 0x0, symName: '__ZN5alloc11collections5btree4node121NodeRef$LT$alloc..collections..btree..node..marker..Owned$C$K$C$V$C$alloc..collections..btree..node..marker..Internal$GT$12new_internal17h3de71f2a2a1fcdd2E', symObjAddr: 0x1010, symBinAddr: 0x76EC, symSize: 0x90 }
  - { offset: 0x260AF, size: 0x8, addend: 0x0, symName: '__ZN5alloc11collections5btree4node121NodeRef$LT$alloc..collections..btree..node..marker..Owned$C$K$C$V$C$alloc..collections..btree..node..marker..Internal$GT$12new_internal17h7176e3f7c1fbc198E', symObjAddr: 0x10A0, symBinAddr: 0x777C, symSize: 0x90 }
  - { offset: 0x262AE, size: 0x8, addend: 0x0, symName: '__ZN5alloc11collections5btree4node121NodeRef$LT$alloc..collections..btree..node..marker..Owned$C$K$C$V$C$alloc..collections..btree..node..marker..Internal$GT$17from_new_internal17h18f8658a92b026b2E', symObjAddr: 0x1130, symBinAddr: 0x780C, symSize: 0xAC }
  - { offset: 0x265D5, size: 0x8, addend: 0x0, symName: '__ZN5alloc11collections5btree4node121NodeRef$LT$alloc..collections..btree..node..marker..Owned$C$K$C$V$C$alloc..collections..btree..node..marker..Internal$GT$17from_new_internal17hf298cc518e6df21bE', symObjAddr: 0x11DC, symBinAddr: 0x78B8, symSize: 0xAC }
  - { offset: 0x268E2, size: 0x8, addend: 0x0, symName: '__ZN5alloc11collections5btree4node127NodeRef$LT$alloc..collections..btree..node..marker..Dying$C$K$C$V$C$alloc..collections..btree..node..marker..LeafOrInternal$GT$21deallocate_and_ascend17h914c57f24fe142d0E', symObjAddr: 0x1288, symBinAddr: 0x7964, symSize: 0x188 }
  - { offset: 0x26B61, size: 0x8, addend: 0x0, symName: '__ZN5alloc11collections5btree4node127NodeRef$LT$alloc..collections..btree..node..marker..Dying$C$K$C$V$C$alloc..collections..btree..node..marker..LeafOrInternal$GT$21deallocate_and_ascend17he0ce77b6c8a06878E', symObjAddr: 0x1410, symBinAddr: 0x7AEC, symSize: 0x188 }
  - { offset: 0x26E16, size: 0x8, addend: 0x0, symName: '__ZN5alloc11collections5btree4node171Handle$LT$alloc..collections..btree..node..NodeRef$LT$alloc..collections..btree..node..marker..Mut$C$K$C$V$C$NodeType$GT$$C$alloc..collections..btree..node..marker..KV$GT$10replace_kv17h02a4bf2e0264c637E', symObjAddr: 0x1B50, symBinAddr: 0x822C, symSize: 0xF4 }
  - { offset: 0x26F1A, size: 0x8, addend: 0x0, symName: '__ZN5alloc11collections5btree4node171Handle$LT$alloc..collections..btree..node..NodeRef$LT$alloc..collections..btree..node..marker..Mut$C$K$C$V$C$NodeType$GT$$C$alloc..collections..btree..node..marker..KV$GT$10replace_kv17hc2fc62617f004ac0E', symObjAddr: 0x1C44, symBinAddr: 0x8320, symSize: 0xF4 }
  - { offset: 0x27069, size: 0x8, addend: 0x0, symName: '__ZN5alloc11collections5btree4node171Handle$LT$alloc..collections..btree..node..NodeRef$LT$alloc..collections..btree..node..marker..Mut$C$K$C$V$C$NodeType$GT$$C$alloc..collections..btree..node..marker..KV$GT$12into_val_mut17h0fe6091a0fa3eb74E', symObjAddr: 0x1D38, symBinAddr: 0x8414, symSize: 0x88 }
  - { offset: 0x271D8, size: 0x8, addend: 0x0, symName: '__ZN5alloc11collections5btree4node171Handle$LT$alloc..collections..btree..node..NodeRef$LT$alloc..collections..btree..node..marker..Mut$C$K$C$V$C$NodeType$GT$$C$alloc..collections..btree..node..marker..KV$GT$12into_val_mut17h8ec577432f6fc58bE', symObjAddr: 0x1DC0, symBinAddr: 0x849C, symSize: 0x88 }
  - { offset: 0x27347, size: 0x8, addend: 0x0, symName: '__ZN5alloc11collections5btree4node171Handle$LT$alloc..collections..btree..node..NodeRef$LT$alloc..collections..btree..node..marker..Mut$C$K$C$V$C$NodeType$GT$$C$alloc..collections..btree..node..marker..KV$GT$12into_val_mut17he872dd6d62eb7d9fE', symObjAddr: 0x1E48, symBinAddr: 0x8524, symSize: 0x88 }
  - { offset: 0x276E0, size: 0x8, addend: 0x0, symName: '__ZN5alloc11collections5btree4node171Handle$LT$alloc..collections..btree..node..NodeRef$LT$alloc..collections..btree..node..marker..Mut$C$K$C$V$C$NodeType$GT$$C$alloc..collections..btree..node..marker..KV$GT$15split_leaf_data17h365110ab166f91fdE', symObjAddr: 0x1ED0, symBinAddr: 0x85AC, symSize: 0x438 }
  - { offset: 0x28182, size: 0x8, addend: 0x0, symName: '__ZN5alloc11collections5btree4node171Handle$LT$alloc..collections..btree..node..NodeRef$LT$alloc..collections..btree..node..marker..Mut$C$K$C$V$C$NodeType$GT$$C$alloc..collections..btree..node..marker..KV$GT$15split_leaf_data17hcf4daa6640548aa5E', symObjAddr: 0x2308, symBinAddr: 0x89E4, symSize: 0x438 }
  - { offset: 0x28A76, size: 0x8, addend: 0x0, symName: '__ZN5alloc11collections5btree4node171Handle$LT$alloc..collections..btree..node..NodeRef$LT$alloc..collections..btree..node..marker..Mut$C$K$C$V$C$NodeType$GT$$C$alloc..collections..btree..node..marker..KV$GT$6kv_mut17h4392dbbc5ac94e87E', symObjAddr: 0x2740, symBinAddr: 0x8E1C, symSize: 0xFC }
  - { offset: 0x28D0F, size: 0x8, addend: 0x0, symName: '__ZN5alloc11collections5btree4node171Handle$LT$alloc..collections..btree..node..NodeRef$LT$alloc..collections..btree..node..marker..Mut$C$K$C$V$C$NodeType$GT$$C$alloc..collections..btree..node..marker..KV$GT$6kv_mut17hd306b14d1fa448acE', symObjAddr: 0x283C, symBinAddr: 0x8F18, symSize: 0xFC }
  - { offset: 0x28F70, size: 0x8, addend: 0x0, symName: '__ZN5alloc11collections5btree4node171Handle$LT$alloc..collections..btree..node..NodeRef$LT$alloc..collections..btree..node..marker..Mut$C$K$C$V$C$NodeType$GT$$C$alloc..collections..btree..node..marker..KV$GT$6kv_mut17he55501c052a2b3fbE', symObjAddr: 0x2938, symBinAddr: 0x9014, symSize: 0xFC }
  - { offset: 0x291CF, size: 0x8, addend: 0x0, symName: '__ZN5alloc11collections5btree4node173Handle$LT$alloc..collections..btree..node..NodeRef$LT$alloc..collections..btree..node..marker..Dying$C$K$C$V$C$NodeType$GT$$C$alloc..collections..btree..node..marker..KV$GT$12drop_key_val17hce5e89b372524d00E', symObjAddr: 0x2A34, symBinAddr: 0x9110, symSize: 0xF8 }
  - { offset: 0x2942F, size: 0x8, addend: 0x0, symName: '__ZN5alloc11collections5btree4node173Handle$LT$alloc..collections..btree..node..NodeRef$LT$alloc..collections..btree..node..marker..Dying$C$K$C$V$C$NodeType$GT$$C$alloc..collections..btree..node..marker..KV$GT$12drop_key_val17hf40af7038a781434E', symObjAddr: 0x2B2C, symBinAddr: 0x9208, symSize: 0xF8 }
  - { offset: 0x296E3, size: 0x8, addend: 0x0, symName: '__ZN5alloc11collections5btree4node173Handle$LT$alloc..collections..btree..node..NodeRef$LT$alloc..collections..btree..node..marker..Dying$C$K$C$V$C$NodeType$GT$$C$alloc..collections..btree..node..marker..KV$GT$12into_key_val17h635416c7f166e63eE', symObjAddr: 0x2C24, symBinAddr: 0x9300, symSize: 0x13C }
  - { offset: 0x29B01, size: 0x8, addend: 0x0, symName: '__ZN5alloc11collections5btree4node173Handle$LT$alloc..collections..btree..node..NodeRef$LT$alloc..collections..btree..node..marker..Immut$C$K$C$V$C$NodeType$GT$$C$alloc..collections..btree..node..marker..KV$GT$7into_kv17h17be1c01b43ffcf9E', symObjAddr: 0x2D60, symBinAddr: 0x943C, symSize: 0xE8 }
  - { offset: 0x29D8C, size: 0x8, addend: 0x0, symName: '__ZN5alloc11collections5btree4node180Handle$LT$alloc..collections..btree..node..NodeRef$LT$BorrowType$C$K$C$V$C$alloc..collections..btree..node..marker..Internal$GT$$C$alloc..collections..btree..node..marker..Edge$GT$7descend17h351b47c54b526cbcE', symObjAddr: 0x2E48, symBinAddr: 0x9524, symSize: 0x9C }
  - { offset: 0x29F84, size: 0x8, addend: 0x0, symName: '__ZN5alloc11collections5btree4node180Handle$LT$alloc..collections..btree..node..NodeRef$LT$BorrowType$C$K$C$V$C$alloc..collections..btree..node..marker..Internal$GT$$C$alloc..collections..btree..node..marker..Edge$GT$7descend17h8fe9c87f6510ba79E', symObjAddr: 0x2EE4, symBinAddr: 0x95C0, symSize: 0x9C }
  - { offset: 0x2A144, size: 0x8, addend: 0x0, symName: '__ZN5alloc11collections5btree4node180Handle$LT$alloc..collections..btree..node..NodeRef$LT$BorrowType$C$K$C$V$C$alloc..collections..btree..node..marker..Internal$GT$$C$alloc..collections..btree..node..marker..Edge$GT$7descend17h93162974b8dd2371E', symObjAddr: 0x2F80, symBinAddr: 0x965C, symSize: 0x9C }
  - { offset: 0x2A322, size: 0x8, addend: 0x0, symName: '__ZN5alloc11collections5btree4node180Handle$LT$alloc..collections..btree..node..NodeRef$LT$BorrowType$C$K$C$V$C$alloc..collections..btree..node..marker..Internal$GT$$C$alloc..collections..btree..node..marker..Edge$GT$7descend17hc6d0c87ce786c35eE', symObjAddr: 0x301C, symBinAddr: 0x96F8, symSize: 0x9C }
  - { offset: 0x2A4D5, size: 0x8, addend: 0x0, symName: '__ZN5alloc11collections5btree4node180Handle$LT$alloc..collections..btree..node..NodeRef$LT$BorrowType$C$K$C$V$C$alloc..collections..btree..node..marker..Internal$GT$$C$alloc..collections..btree..node..marker..Edge$GT$7descend17hfdb69ede0ce36175E', symObjAddr: 0x30B8, symBinAddr: 0x9794, symSize: 0x9C }
  - { offset: 0x2A67B, size: 0x8, addend: 0x0, symName: '__ZN5alloc11collections5btree4node208Handle$LT$alloc..collections..btree..node..NodeRef$LT$alloc..collections..btree..node..marker..Mut$C$K$C$V$C$alloc..collections..btree..node..marker..Leaf$GT$$C$alloc..collections..btree..node..marker..KV$GT$5split17hb5dade8fd1721f6aE', symObjAddr: 0x3154, symBinAddr: 0x9830, symSize: 0xB4 }
  - { offset: 0x2A8E0, size: 0x8, addend: 0x0, symName: '__ZN5alloc11collections5btree4node210Handle$LT$alloc..collections..btree..node..NodeRef$LT$alloc..collections..btree..node..marker..Mut$C$K$C$V$C$alloc..collections..btree..node..marker..Leaf$GT$$C$alloc..collections..btree..node..marker..Edge$GT$10insert_fit17h1be42a3666248bb4E', symObjAddr: 0x3208, symBinAddr: 0x98E4, symSize: 0x208 }
  - { offset: 0x2AD43, size: 0x8, addend: 0x0, symName: '__ZN5alloc11collections5btree4node210Handle$LT$alloc..collections..btree..node..NodeRef$LT$alloc..collections..btree..node..marker..Mut$C$K$C$V$C$alloc..collections..btree..node..marker..Leaf$GT$$C$alloc..collections..btree..node..marker..Edge$GT$16insert_recursing17hfe9df7e53c4b1c73E', symObjAddr: 0x3410, symBinAddr: 0x9AEC, symSize: 0x538 }
  - { offset: 0x2B1C0, size: 0x8, addend: 0x0, symName: '__ZN5alloc11collections5btree4node210Handle$LT$alloc..collections..btree..node..NodeRef$LT$alloc..collections..btree..node..marker..Mut$C$K$C$V$C$alloc..collections..btree..node..marker..Leaf$GT$$C$alloc..collections..btree..node..marker..Edge$GT$6insert17h2f394fae07694357E', symObjAddr: 0x3948, symBinAddr: 0xA024, symSize: 0x4EC }
  - { offset: 0x2B52A, size: 0x8, addend: 0x0, symName: '__ZN5alloc11collections5btree4node212Handle$LT$alloc..collections..btree..node..NodeRef$LT$alloc..collections..btree..node..marker..Mut$C$K$C$V$C$alloc..collections..btree..node..marker..Internal$GT$$C$alloc..collections..btree..node..marker..KV$GT$22consider_for_balancing17hef6c2027070ec76aE', symObjAddr: 0x3E34, symBinAddr: 0xA510, symSize: 0xE4 }
  - { offset: 0x2B6FE, size: 0x8, addend: 0x0, symName: '__ZN5alloc11collections5btree4node212Handle$LT$alloc..collections..btree..node..NodeRef$LT$alloc..collections..btree..node..marker..Mut$C$K$C$V$C$alloc..collections..btree..node..marker..Internal$GT$$C$alloc..collections..btree..node..marker..KV$GT$22consider_for_balancing17hf8000cb6ad1bce3eE', symObjAddr: 0x3F18, symBinAddr: 0xA5F4, symSize: 0xE4 }
  - { offset: 0x2B92F, size: 0x8, addend: 0x0, symName: '__ZN5alloc11collections5btree4node212Handle$LT$alloc..collections..btree..node..NodeRef$LT$alloc..collections..btree..node..marker..Mut$C$K$C$V$C$alloc..collections..btree..node..marker..Internal$GT$$C$alloc..collections..btree..node..marker..KV$GT$5split17h9ab0fbc9be91b82fE', symObjAddr: 0x3FFC, symBinAddr: 0xA6D8, symSize: 0x2AC }
  - { offset: 0x2BEA5, size: 0x8, addend: 0x0, symName: '__ZN5alloc11collections5btree4node214Handle$LT$alloc..collections..btree..node..NodeRef$LT$alloc..collections..btree..node..marker..Mut$C$K$C$V$C$alloc..collections..btree..node..marker..Internal$GT$$C$alloc..collections..btree..node..marker..Edge$GT$10insert_fit17h3976264e7048c796E', symObjAddr: 0x42A8, symBinAddr: 0xA984, symSize: 0x2AC }
  - { offset: 0x2C415, size: 0x8, addend: 0x0, symName: '__ZN5alloc11collections5btree4node214Handle$LT$alloc..collections..btree..node..NodeRef$LT$alloc..collections..btree..node..marker..Mut$C$K$C$V$C$alloc..collections..btree..node..marker..Internal$GT$$C$alloc..collections..btree..node..marker..Edge$GT$19correct_parent_link17h61609fe4b26b2405E', symObjAddr: 0x4554, symBinAddr: 0xAC30, symSize: 0x9C }
  - { offset: 0x2C60F, size: 0x8, addend: 0x0, symName: '__ZN5alloc11collections5btree4node214Handle$LT$alloc..collections..btree..node..NodeRef$LT$alloc..collections..btree..node..marker..Mut$C$K$C$V$C$alloc..collections..btree..node..marker..Internal$GT$$C$alloc..collections..btree..node..marker..Edge$GT$19correct_parent_link17hbe25d4ee737d1bd3E', symObjAddr: 0x45F0, symBinAddr: 0xACCC, symSize: 0x9C }
  - { offset: 0x2C88C, size: 0x8, addend: 0x0, symName: '__ZN5alloc11collections5btree4node214Handle$LT$alloc..collections..btree..node..NodeRef$LT$alloc..collections..btree..node..marker..Mut$C$K$C$V$C$alloc..collections..btree..node..marker..Internal$GT$$C$alloc..collections..btree..node..marker..Edge$GT$6insert17hce6f2f515b58d67eE', symObjAddr: 0x468C, symBinAddr: 0xAD68, symSize: 0x4F8 }
  - { offset: 0x2CB7C, size: 0x8, addend: 0x0, symName: '__ZN5alloc11collections5btree4node21LeafNode$LT$K$C$V$GT$3new17h1fa69a93256ed5ecE', symObjAddr: 0x4B84, symBinAddr: 0xB260, symSize: 0x70 }
  - { offset: 0x2CDF8, size: 0x8, addend: 0x0, symName: '__ZN5alloc11collections5btree4node21LeafNode$LT$K$C$V$GT$3new17hb859dfd477a43bc2E', symObjAddr: 0x4BF4, symBinAddr: 0xB2D0, symSize: 0x70 }
  - { offset: 0x2D031, size: 0x8, addend: 0x0, symName: '__ZN5alloc11collections5btree4node25InternalNode$LT$K$C$V$GT$3new17hb7f1446ac68a1fc3E', symObjAddr: 0x4C64, symBinAddr: 0xB340, symSize: 0x70 }
  - { offset: 0x2D24D, size: 0x8, addend: 0x0, symName: '__ZN5alloc11collections5btree4node25InternalNode$LT$K$C$V$GT$3new17hcf00c1e7506838aaE', symObjAddr: 0x4CD4, symBinAddr: 0xB3B0, symSize: 0x70 }
  - { offset: 0x2D8CA, size: 0x8, addend: 0x0, symName: '__ZN5alloc11collections5btree4node29BalancingContext$LT$K$C$V$GT$15bulk_steal_left17h5fc8d0c57b936d22E', symObjAddr: 0x4D44, symBinAddr: 0xB420, symSize: 0x9D4 }
  - { offset: 0x2F0C6, size: 0x8, addend: 0x0, symName: '__ZN5alloc11collections5btree4node29BalancingContext$LT$K$C$V$GT$15bulk_steal_left17he53538e3242009abE', symObjAddr: 0x5718, symBinAddr: 0xBDF4, symSize: 0x9D4 }
  - { offset: 0x304F2, size: 0x8, addend: 0x0, symName: '__ZN5alloc11collections5btree4node40NodeRef$LT$BorrowType$C$K$C$V$C$Type$GT$6ascend17h048a33720823c026E', symObjAddr: 0x60EC, symBinAddr: 0xC7C8, symSize: 0x17C }
  - { offset: 0x30794, size: 0x8, addend: 0x0, symName: '__ZN5alloc11collections5btree4node40NodeRef$LT$BorrowType$C$K$C$V$C$Type$GT$6ascend17h04bb1f4c6f5efee9E', symObjAddr: 0x6268, symBinAddr: 0xC944, symSize: 0x17C }
  - { offset: 0x30A5D, size: 0x8, addend: 0x0, symName: '__ZN5alloc11collections5btree4node40NodeRef$LT$BorrowType$C$K$C$V$C$Type$GT$6ascend17h0c100fa0b36206d7E', symObjAddr: 0x63E4, symBinAddr: 0xCAC0, symSize: 0x17C }
  - { offset: 0x30CFF, size: 0x8, addend: 0x0, symName: '__ZN5alloc11collections5btree4node40NodeRef$LT$BorrowType$C$K$C$V$C$Type$GT$6ascend17h1c8c6b9f8bdb68a2E', symObjAddr: 0x6560, symBinAddr: 0xCC3C, symSize: 0x17C }
  - { offset: 0x30FA1, size: 0x8, addend: 0x0, symName: '__ZN5alloc11collections5btree4node40NodeRef$LT$BorrowType$C$K$C$V$C$Type$GT$6ascend17h3f719793419612aaE', symObjAddr: 0x66DC, symBinAddr: 0xCDB8, symSize: 0x17C }
  - { offset: 0x311F6, size: 0x8, addend: 0x0, symName: '__ZN5alloc11collections5btree4node76NodeRef$LT$alloc..collections..btree..node..marker..Immut$C$K$C$V$C$Type$GT$4keys17hf552547284666d10E', symObjAddr: 0x6858, symBinAddr: 0xCF34, symSize: 0xA8 }
  - { offset: 0x3166F, size: 0x8, addend: 0x0, symName: '__ZN5alloc11collections5btree6append178_$LT$impl$u20$alloc..collections..btree..node..NodeRef$LT$alloc..collections..btree..node..marker..Owned$C$K$C$V$C$alloc..collections..btree..node..marker..LeafOrInternal$GT$$GT$9bulk_push17h37ffaf296a26c55bE', symObjAddr: 0x6BD8, symBinAddr: 0xD2B4, symSize: 0x538 }
  - { offset: 0x31E29, size: 0x8, addend: 0x0, symName: '__ZN5alloc11collections5btree6append178_$LT$impl$u20$alloc..collections..btree..node..NodeRef$LT$alloc..collections..btree..node..marker..Owned$C$K$C$V$C$alloc..collections..btree..node..marker..LeafOrInternal$GT$$GT$9bulk_push17hc79b3cbb8e841c13E', symObjAddr: 0x7110, symBinAddr: 0xD7EC, symSize: 0x538 }
  - { offset: 0x32441, size: 0x8, addend: 0x0, symName: '__ZN5alloc11collections5btree6search142_$LT$impl$u20$alloc..collections..btree..node..NodeRef$LT$BorrowType$C$K$C$V$C$alloc..collections..btree..node..marker..LeafOrInternal$GT$$GT$11search_tree17h060033c3727c2becE', symObjAddr: 0x7648, symBinAddr: 0xDD24, symSize: 0x240 }
  - { offset: 0x3271E, size: 0x8, addend: 0x0, symName: '__ZN5alloc11collections5btree6search91_$LT$impl$u20$alloc..collections..btree..node..NodeRef$LT$BorrowType$C$K$C$V$C$Type$GT$$GT$14find_key_index17he8a9c08a21dec651E', symObjAddr: 0x7888, symBinAddr: 0xDF64, symSize: 0x1D4 }
  - { offset: 0x32B81, size: 0x8, addend: 0x0, symName: '__ZN5alloc11collections5btree8navigate142_$LT$impl$u20$alloc..collections..btree..node..NodeRef$LT$BorrowType$C$K$C$V$C$alloc..collections..btree..node..marker..LeafOrInternal$GT$$GT$14last_leaf_edge17ha51b8d730fca5ebeE', symObjAddr: 0x7A5C, symBinAddr: 0xE138, symSize: 0xEC }
  - { offset: 0x32E10, size: 0x8, addend: 0x0, symName: '__ZN5alloc11collections5btree8navigate142_$LT$impl$u20$alloc..collections..btree..node..NodeRef$LT$BorrowType$C$K$C$V$C$alloc..collections..btree..node..marker..LeafOrInternal$GT$$GT$14last_leaf_edge17heddda7dea7a1106eE', symObjAddr: 0x7B48, symBinAddr: 0xE224, symSize: 0xEC }
  - { offset: 0x330E5, size: 0x8, addend: 0x0, symName: '__ZN5alloc11collections5btree8navigate227_$LT$impl$u20$alloc..collections..btree..node..Handle$LT$alloc..collections..btree..node..NodeRef$LT$BorrowType$C$K$C$V$C$alloc..collections..btree..node..marker..Leaf$GT$$C$alloc..collections..btree..node..marker..Edge$GT$$GT$7next_kv17h569faefeb3d5de27E', symObjAddr: 0x7C34, symBinAddr: 0xE310, symSize: 0x194 }
  - { offset: 0x334F3, size: 0x8, addend: 0x0, symName: '__ZN5alloc11collections5btree8navigate235_$LT$impl$u20$alloc..collections..btree..node..Handle$LT$alloc..collections..btree..node..NodeRef$LT$BorrowType$C$K$C$V$C$alloc..collections..btree..node..marker..LeafOrInternal$GT$$C$alloc..collections..btree..node..marker..KV$GT$$GT$14next_leaf_edge17h0a7427fd95846ca3E', symObjAddr: 0x7DC8, symBinAddr: 0xE4A4, symSize: 0x210 }
  - { offset: 0x33977, size: 0x8, addend: 0x0, symName: '__ZN5alloc11collections5btree8navigate235_$LT$impl$u20$alloc..collections..btree..node..Handle$LT$alloc..collections..btree..node..NodeRef$LT$BorrowType$C$K$C$V$C$alloc..collections..btree..node..marker..LeafOrInternal$GT$$C$alloc..collections..btree..node..marker..KV$GT$$GT$14next_leaf_edge17h8f2a1e836471b5a8E', symObjAddr: 0x7FD8, symBinAddr: 0xE6B4, symSize: 0x210 }
  - { offset: 0x33DFB, size: 0x8, addend: 0x0, symName: '__ZN5alloc11collections5btree8navigate235_$LT$impl$u20$alloc..collections..btree..node..Handle$LT$alloc..collections..btree..node..NodeRef$LT$BorrowType$C$K$C$V$C$alloc..collections..btree..node..marker..LeafOrInternal$GT$$C$alloc..collections..btree..node..marker..KV$GT$$GT$14next_leaf_edge17hc55df4f18eb0a82cE', symObjAddr: 0x81E8, symBinAddr: 0xE8C4, symSize: 0x210 }
  - { offset: 0x340C5, size: 0x8, addend: 0x0, symName: '__ZN5alloc11collections5btree8navigate263_$LT$impl$u20$alloc..collections..btree..node..Handle$LT$alloc..collections..btree..node..NodeRef$LT$alloc..collections..btree..node..marker..Dying$C$K$C$V$C$alloc..collections..btree..node..marker..Leaf$GT$$C$alloc..collections..btree..node..marker..Edge$GT$$GT$16deallocating_end17h830211662b4af511E', symObjAddr: 0x83F8, symBinAddr: 0xEAD4, symSize: 0xD4 }
  - { offset: 0x341EA, size: 0x8, addend: 0x0, symName: '__ZN5alloc11collections5btree8navigate263_$LT$impl$u20$alloc..collections..btree..node..Handle$LT$alloc..collections..btree..node..NodeRef$LT$alloc..collections..btree..node..marker..Dying$C$K$C$V$C$alloc..collections..btree..node..marker..Leaf$GT$$C$alloc..collections..btree..node..marker..Edge$GT$$GT$16deallocating_end17he654219b25fd5097E', symObjAddr: 0x84CC, symBinAddr: 0xEBA8, symSize: 0xD4 }
  - { offset: 0x34451, size: 0x8, addend: 0x0, symName: '__ZN5alloc11collections5btree8navigate263_$LT$impl$u20$alloc..collections..btree..node..Handle$LT$alloc..collections..btree..node..NodeRef$LT$alloc..collections..btree..node..marker..Dying$C$K$C$V$C$alloc..collections..btree..node..marker..Leaf$GT$$C$alloc..collections..btree..node..marker..Edge$GT$$GT$17deallocating_next17he7b945005bcd5cf9E', symObjAddr: 0x85A0, symBinAddr: 0xEC7C, symSize: 0x254 }
  - { offset: 0x347C7, size: 0x8, addend: 0x0, symName: '__ZN5alloc11collections5btree8navigate263_$LT$impl$u20$alloc..collections..btree..node..Handle$LT$alloc..collections..btree..node..NodeRef$LT$alloc..collections..btree..node..marker..Dying$C$K$C$V$C$alloc..collections..btree..node..marker..Leaf$GT$$C$alloc..collections..btree..node..marker..Edge$GT$$GT$17deallocating_next17hf2b89caf482a025cE', symObjAddr: 0x87F4, symBinAddr: 0xEED0, symSize: 0x254 }
  - { offset: 0x349BF, size: 0x8, addend: 0x0, symName: __ZN4pyo35types8sequence16extract_sequence17h6bcc60a1ffe774e9E, symObjAddr: 0x0, symBinAddr: 0xF124, symSize: 0x3A8 }
  - { offset: 0x35F88, size: 0x8, addend: 0x0, symName: __ZN4pyo35types8sequence16extract_sequence17h6bcc60a1ffe774e9E, symObjAddr: 0x0, symBinAddr: 0xF124, symSize: 0x3A8 }
  - { offset: 0x36B68, size: 0x8, addend: 0x0, symName: '__ZN71_$LT$alloc..borrow..Cow$LT$B$GT$$u20$as$u20$core..ops..deref..Deref$GT$5deref17hffb9b3675066694aE', symObjAddr: 0x0, symBinAddr: 0xF4CC, symSize: 0x78 }
  - { offset: 0x36B84, size: 0x8, addend: 0x0, symName: '__ZN71_$LT$alloc..borrow..Cow$LT$B$GT$$u20$as$u20$core..ops..deref..Deref$GT$5deref17hffb9b3675066694aE', symObjAddr: 0x0, symBinAddr: 0xF4CC, symSize: 0x78 }
  - { offset: 0x36D52, size: 0x8, addend: 0x0, symName: '__ZN4pyo311conversions3std5slice76_$LT$impl$u20$pyo3..conversion..IntoPyObject$u20$for$u20$$RF$$u5b$T$u5d$$GT$13into_pyobject17hfa42cfd430c9f53fE', symObjAddr: 0x0, symBinAddr: 0xF544, symSize: 0x28 }
  - { offset: 0x3814D, size: 0x8, addend: 0x0, symName: '__ZN4pyo311conversions3std5slice76_$LT$impl$u20$pyo3..conversion..IntoPyObject$u20$for$u20$$RF$$u5b$T$u5d$$GT$13into_pyobject17hfa42cfd430c9f53fE', symObjAddr: 0x0, symBinAddr: 0xF544, symSize: 0x28 }
  - { offset: 0x38AF1, size: 0x8, addend: 0x0, symName: '__ZN5alloc11collections5btree3map5entry28VacantEntry$LT$K$C$V$C$A$GT$12insert_entry17hc577717ce04119ecE', symObjAddr: 0x0, symBinAddr: 0xF56C, symSize: 0x2CC }
  - { offset: 0x3927C, size: 0x8, addend: 0x0, symName: '__ZN5alloc11collections5btree3map5entry28VacantEntry$LT$K$C$V$C$A$GT$12insert_entry28_$u7b$$u7b$closure$u7d$$u7d$17h541d0914aedfa798E', symObjAddr: 0x2CC, symBinAddr: 0xF838, symSize: 0x180 }
  - { offset: 0x3A07D, size: 0x8, addend: 0x0, symName: '__ZN5alloc11collections5btree3map5entry28VacantEntry$LT$K$C$V$C$A$GT$12insert_entry17hc577717ce04119ecE', symObjAddr: 0x0, symBinAddr: 0xF56C, symSize: 0x2CC }
  - { offset: 0x3A44C, size: 0x8, addend: 0x0, symName: '__ZN5alloc11collections5btree3map5entry30OccupiedEntry$LT$K$C$V$C$A$GT$6insert17h43166175d13426d2E', symObjAddr: 0x44C, symBinAddr: 0xF9B8, symSize: 0xA0 }
  - { offset: 0x3A4D6, size: 0x8, addend: 0x0, symName: '__ZN5alloc11collections5btree3map5entry30OccupiedEntry$LT$K$C$V$C$A$GT$8into_mut17h82c7eedbb8cc4890E', symObjAddr: 0x4EC, symBinAddr: 0xFA58, symSize: 0x58 }
  - { offset: 0x3A533, size: 0x8, addend: 0x0, symName: __ZN4core5slice3raw14from_raw_parts18precondition_check17hf70ef849a803af08E, symObjAddr: 0x0, symBinAddr: 0xFAB0, symSize: 0x1D8 }
  - { offset: 0x3AACA, size: 0x8, addend: 0x0, symName: __ZN4core5slice3raw14from_raw_parts18precondition_check17hf70ef849a803af08E, symObjAddr: 0x0, symBinAddr: 0xFAB0, symSize: 0x1D8 }
  - { offset: 0x3AC68, size: 0x8, addend: 0x0, symName: __ZN4core5slice3raw18from_raw_parts_mut18precondition_check17he6d961253e024ab4E, symObjAddr: 0x1D8, symBinAddr: 0xFC88, symSize: 0x1D8 }
  - { offset: 0x3AFE5, size: 0x8, addend: 0x0, symName: '__ZN5alloc5boxed16Box$LT$T$C$A$GT$13new_uninit_in17h00cae6cb24c3db5cE', symObjAddr: 0x0, symBinAddr: 0xFE60, symSize: 0x98 }
  - { offset: 0x3C7DA, size: 0x8, addend: 0x0, symName: '__ZN5alloc5boxed16Box$LT$T$C$A$GT$13new_uninit_in17h00cae6cb24c3db5cE', symObjAddr: 0x0, symBinAddr: 0xFE60, symSize: 0x98 }
  - { offset: 0x3C8D2, size: 0x8, addend: 0x0, symName: '__ZN5alloc5boxed16Box$LT$T$C$A$GT$13new_uninit_in17h80848c83d2ac4eb7E', symObjAddr: 0x98, symBinAddr: 0xFEF8, symSize: 0x98 }
  - { offset: 0x3C9CA, size: 0x8, addend: 0x0, symName: '__ZN5alloc5boxed16Box$LT$T$C$A$GT$13new_uninit_in17hd44ba3bc3203f9d6E', symObjAddr: 0x130, symBinAddr: 0xFF90, symSize: 0x98 }
  - { offset: 0x3CAC2, size: 0x8, addend: 0x0, symName: '__ZN5alloc5boxed16Box$LT$T$C$A$GT$13new_uninit_in17hfcb29a0aac6d1acbE', symObjAddr: 0x1C8, symBinAddr: 0x10028, symSize: 0x98 }
  - { offset: 0x3CBBA, size: 0x8, addend: 0x0, symName: '__ZN5alloc5boxed16Box$LT$T$C$A$GT$17try_new_uninit_in17h49a03529977954eeE', symObjAddr: 0x260, symBinAddr: 0x100C0, symSize: 0x13C }
  - { offset: 0x3CDF6, size: 0x8, addend: 0x0, symName: '__ZN5alloc5boxed16Box$LT$T$C$A$GT$17try_new_uninit_in17h9578bfa52a9eaae1E', symObjAddr: 0x39C, symBinAddr: 0x101FC, symSize: 0x13C }
  - { offset: 0x3D032, size: 0x8, addend: 0x0, symName: '__ZN5alloc5boxed16Box$LT$T$C$A$GT$17try_new_uninit_in17haaf29f10b0807a82E', symObjAddr: 0x4D8, symBinAddr: 0x10338, symSize: 0x13C }
  - { offset: 0x3D26E, size: 0x8, addend: 0x0, symName: '__ZN5alloc5boxed16Box$LT$T$C$A$GT$17try_new_uninit_in17hfc63fc21c6f991ecE', symObjAddr: 0x614, symBinAddr: 0x10474, symSize: 0x13C }
  - { offset: 0x3DC0B, size: 0x8, addend: 0x0, symName: __ZN8pyo3_ffi13unicodeobject15PyUnicode_Check17h4451e31cc69288e7E, symObjAddr: 0x0, symBinAddr: 0x105B0, symSize: 0x30 }
  - { offset: 0x3E4A9, size: 0x8, addend: 0x0, symName: __ZN8pyo3_ffi13unicodeobject15PyUnicode_Check17h4451e31cc69288e7E, symObjAddr: 0x0, symBinAddr: 0x105B0, symSize: 0x30 }
  - { offset: 0x3F057, size: 0x8, addend: 0x0, symName: '__ZN104_$LT$core..iter..adapters..copied..Copied$LT$I$GT$$u20$as$u20$core..iter..traits..iterator..Iterator$GT$4next17h2b87c29f9253b9bdE', symObjAddr: 0x0, symBinAddr: 0x105E0, symSize: 0x5C }
  - { offset: 0x3FAA4, size: 0x8, addend: 0x0, symName: '__ZN104_$LT$core..iter..adapters..copied..Copied$LT$I$GT$$u20$as$u20$core..iter..traits..iterator..Iterator$GT$4next17h2b87c29f9253b9bdE', symObjAddr: 0x0, symBinAddr: 0x105E0, symSize: 0x5C }
  - { offset: 0x3FB49, size: 0x8, addend: 0x0, symName: '__ZN63_$LT$I$u20$as$u20$core..iter..traits..collect..IntoIterator$GT$9into_iter17hb72270eb054c594eE', symObjAddr: 0x5C, symBinAddr: 0x1063C, symSize: 0x1C }
  - { offset: 0x40933, size: 0x8, addend: 0x0, symName: '__ZN4core3num21_$LT$impl$u20$u64$GT$11checked_add17h5d375dbc80f5681eE', symObjAddr: 0x0, symBinAddr: 0x10658, symSize: 0x7C }
  - { offset: 0x40973, size: 0x8, addend: 0x0, symName: '__ZN4core3num21_$LT$impl$u20$u64$GT$11checked_add17h5d375dbc80f5681eE', symObjAddr: 0x0, symBinAddr: 0x10658, symSize: 0x7C }
  - { offset: 0x40A03, size: 0x8, addend: 0x0, symName: '__ZN4core3num23_$LT$impl$u20$usize$GT$13unchecked_add18precondition_check17h702c3c467701dd7dE', symObjAddr: 0x7C, symBinAddr: 0x106D4, symSize: 0xB0 }
  - { offset: 0x40FC5, size: 0x8, addend: 0x0, symName: '__ZN109_$LT$pyo3..types..dict..borrowed_iter..BorrowedDictIter$u20$as$u20$core..iter..traits..iterator..Iterator$GT$4next17hb930f5b5ec491301E', symObjAddr: 0x0, symBinAddr: 0x10784, symSize: 0xE4 }
  - { offset: 0x420F7, size: 0x8, addend: 0x0, symName: '__ZN109_$LT$pyo3..types..dict..borrowed_iter..BorrowedDictIter$u20$as$u20$core..iter..traits..iterator..Iterator$GT$4next17hb930f5b5ec491301E', symObjAddr: 0x0, symBinAddr: 0x10784, symSize: 0xE4 }
  - { offset: 0x427E9, size: 0x8, addend: 0x0, symName: '__ZN111_$LT$T$u20$as$u20$pyo3..impl_..callback..IntoPyCallbackOutput$LT$$BP$mut$u20$pyo3_ffi..object..PyObject$GT$$GT$7convert17h413aed89ac1712b8E', symObjAddr: 0x0, symBinAddr: 0x10868, symSize: 0x30 }
  - { offset: 0x43EB3, size: 0x8, addend: 0x0, symName: '__ZN111_$LT$T$u20$as$u20$pyo3..impl_..callback..IntoPyCallbackOutput$LT$$BP$mut$u20$pyo3_ffi..object..PyObject$GT$$GT$7convert17h413aed89ac1712b8E', symObjAddr: 0x0, symBinAddr: 0x10868, symSize: 0x30 }
  - { offset: 0x43F01, size: 0x8, addend: 0x0, symName: '__ZN111_$LT$T$u20$as$u20$pyo3..impl_..callback..IntoPyCallbackOutput$LT$$BP$mut$u20$pyo3_ffi..object..PyObject$GT$$GT$7convert17hf3ec722f23492f6eE', symObjAddr: 0x30, symBinAddr: 0x10898, symSize: 0x38 }
  - { offset: 0x43F50, size: 0x8, addend: 0x0, symName: __ZN4pyo35impl_8callback7convert17h01c49827abfc97bdE, symObjAddr: 0x68, symBinAddr: 0x108D0, symSize: 0x20 }
  - { offset: 0x43FA7, size: 0x8, addend: 0x0, symName: __ZN4pyo35impl_8callback7convert17h0cc586944a8c529dE, symObjAddr: 0x88, symBinAddr: 0x108F0, symSize: 0x24 }
  - { offset: 0x43FFE, size: 0x8, addend: 0x0, symName: __ZN4pyo35impl_8callback7convert17h1162329ff245672fE, symObjAddr: 0xAC, symBinAddr: 0x10914, symSize: 0x1C }
  - { offset: 0x44056, size: 0x8, addend: 0x0, symName: __ZN4pyo35impl_8callback7convert17h18b5d8fe9c5bfdf4E, symObjAddr: 0xC8, symBinAddr: 0x10930, symSize: 0x28 }
  - { offset: 0x440AD, size: 0x8, addend: 0x0, symName: __ZN4pyo35impl_8callback7convert17h25ade6ecd83a1c04E, symObjAddr: 0xF0, symBinAddr: 0x10958, symSize: 0x24 }
  - { offset: 0x44104, size: 0x8, addend: 0x0, symName: __ZN4pyo35impl_8callback7convert17h46414c0972d5dfb7E, symObjAddr: 0x114, symBinAddr: 0x1097C, symSize: 0x28 }
  - { offset: 0x4415B, size: 0x8, addend: 0x0, symName: __ZN4pyo35impl_8callback7convert17h7b01d95633791740E, symObjAddr: 0x13C, symBinAddr: 0x109A4, symSize: 0x20 }
  - { offset: 0x441B2, size: 0x8, addend: 0x0, symName: __ZN4pyo35impl_8callback7convert17h812cc1dab59770e3E, symObjAddr: 0x15C, symBinAddr: 0x109C4, symSize: 0x1C }
  - { offset: 0x4420A, size: 0x8, addend: 0x0, symName: __ZN4pyo35impl_8callback7convert17h8999e66158383d56E, symObjAddr: 0x178, symBinAddr: 0x109E0, symSize: 0x24 }
  - { offset: 0x44261, size: 0x8, addend: 0x0, symName: __ZN4pyo35impl_8callback7convert17h9ba70a1c304317c9E, symObjAddr: 0x19C, symBinAddr: 0x10A04, symSize: 0x28 }
  - { offset: 0x442C2, size: 0x8, addend: 0x0, symName: '__ZN82_$LT$usize$u20$as$u20$pyo3..impl_..callback..IntoPyCallbackOutput$LT$isize$GT$$GT$7convert28_$u7b$$u7b$closure$u7d$$u7d$17ha2bd371c7ab9e5f0E', symObjAddr: 0x1C4, symBinAddr: 0x10A2C, symSize: 0x1C }
  - { offset: 0x44D40, size: 0x8, addend: 0x0, symName: '__ZN111_$LT$alloc..vec..Vec$LT$T$GT$$u20$as$u20$alloc..vec..spec_from_iter_nested..SpecFromIterNested$LT$T$C$I$GT$$GT$9from_iter17h42d868606ce11793E', symObjAddr: 0x0, symBinAddr: 0x10A48, symSize: 0x280 }
  - { offset: 0x47A42, size: 0x8, addend: 0x0, symName: '__ZN111_$LT$alloc..vec..Vec$LT$T$GT$$u20$as$u20$alloc..vec..spec_from_iter_nested..SpecFromIterNested$LT$T$C$I$GT$$GT$9from_iter17h42d868606ce11793E', symObjAddr: 0x0, symBinAddr: 0x10A48, symSize: 0x280 }
  - { offset: 0x47CFC, size: 0x8, addend: 0x0, symName: '__ZN111_$LT$alloc..vec..Vec$LT$T$GT$$u20$as$u20$alloc..vec..spec_from_iter_nested..SpecFromIterNested$LT$T$C$I$GT$$GT$9from_iter17h61194376721c43b0E', symObjAddr: 0x280, symBinAddr: 0x10CC8, symSize: 0x280 }
  - { offset: 0x47FB6, size: 0x8, addend: 0x0, symName: '__ZN111_$LT$alloc..vec..Vec$LT$T$GT$$u20$as$u20$alloc..vec..spec_from_iter_nested..SpecFromIterNested$LT$T$C$I$GT$$GT$9from_iter17h65da1f6b1459473aE', symObjAddr: 0x500, symBinAddr: 0x10F48, symSize: 0x288 }
  - { offset: 0x4878C, size: 0x8, addend: 0x0, symName: '__ZN90_$LT$alloc..vec..Vec$LT$T$C$A$GT$$u20$as$u20$core..iter..traits..collect..IntoIterator$GT$9into_iter17h13856fb7721bb161E', symObjAddr: 0x1638, symBinAddr: 0x12080, symSize: 0xE4 }
  - { offset: 0x48A1E, size: 0x8, addend: 0x0, symName: '__ZN90_$LT$alloc..vec..Vec$LT$T$C$A$GT$$u20$as$u20$core..iter..traits..collect..IntoIterator$GT$9into_iter17h8c343b1f66fa2aefE', symObjAddr: 0x171C, symBinAddr: 0x12164, symSize: 0xE4 }
  - { offset: 0x48CB6, size: 0x8, addend: 0x0, symName: '__ZN95_$LT$alloc..vec..Vec$LT$T$GT$$u20$as$u20$core..iter..traits..collect..FromIterator$LT$T$GT$$GT$9from_iter17h690c11456e14d0cdE', symObjAddr: 0x1800, symBinAddr: 0x12248, symSize: 0x3C }
  - { offset: 0x48CF7, size: 0x8, addend: 0x0, symName: '__ZN95_$LT$alloc..vec..Vec$LT$T$GT$$u20$as$u20$core..iter..traits..collect..FromIterator$LT$T$GT$$GT$9from_iter17h814b033d0ad8c23aE', symObjAddr: 0x183C, symBinAddr: 0x12284, symSize: 0x3C }
  - { offset: 0x48D38, size: 0x8, addend: 0x0, symName: '__ZN95_$LT$alloc..vec..Vec$LT$T$GT$$u20$as$u20$core..iter..traits..collect..FromIterator$LT$T$GT$$GT$9from_iter17h9075b8f2ba11d4e1E', symObjAddr: 0x1878, symBinAddr: 0x122C0, symSize: 0x3C }
  - { offset: 0x48D84, size: 0x8, addend: 0x0, symName: '__ZN97_$LT$alloc..vec..Vec$LT$T$C$A$GT$$u20$as$u20$alloc..vec..spec_extend..SpecExtend$LT$T$C$I$GT$$GT$11spec_extend17h50bc1f26c5c28673E', symObjAddr: 0x18B4, symBinAddr: 0x122FC, symSize: 0x24 }
  - { offset: 0x48DD6, size: 0x8, addend: 0x0, symName: '__ZN97_$LT$alloc..vec..Vec$LT$T$C$A$GT$$u20$as$u20$alloc..vec..spec_extend..SpecExtend$LT$T$C$I$GT$$GT$11spec_extend17h5b8e0c596cde408cE', symObjAddr: 0x18D8, symBinAddr: 0x12320, symSize: 0x24 }
  - { offset: 0x48E28, size: 0x8, addend: 0x0, symName: '__ZN97_$LT$alloc..vec..Vec$LT$T$C$A$GT$$u20$as$u20$alloc..vec..spec_extend..SpecExtend$LT$T$C$I$GT$$GT$11spec_extend17h65b5bd9386e0d90bE', symObjAddr: 0x18FC, symBinAddr: 0x12344, symSize: 0x24 }
  - { offset: 0x48E86, size: 0x8, addend: 0x0, symName: '__ZN98_$LT$alloc..vec..Vec$LT$T$GT$$u20$as$u20$alloc..vec..spec_from_iter..SpecFromIter$LT$T$C$I$GT$$GT$9from_iter17h4e4a7be5dc86ce22E', symObjAddr: 0x1920, symBinAddr: 0x12368, symSize: 0x14 }
  - { offset: 0x48EC5, size: 0x8, addend: 0x0, symName: '__ZN98_$LT$alloc..vec..Vec$LT$T$GT$$u20$as$u20$alloc..vec..spec_from_iter..SpecFromIter$LT$T$C$I$GT$$GT$9from_iter17h98971067c3397a9bE', symObjAddr: 0x1934, symBinAddr: 0x1237C, symSize: 0x14 }
  - { offset: 0x48F04, size: 0x8, addend: 0x0, symName: '__ZN98_$LT$alloc..vec..Vec$LT$T$GT$$u20$as$u20$alloc..vec..spec_from_iter..SpecFromIter$LT$T$C$I$GT$$GT$9from_iter17he96cdb390df3c22bE', symObjAddr: 0x1948, symBinAddr: 0x12390, symSize: 0x14 }
  - { offset: 0x49BC3, size: 0x8, addend: 0x0, symName: '__ZN5alloc5slice99_$LT$impl$u20$core..slice..sort..stable..BufGuard$LT$T$GT$$u20$for$u20$alloc..vec..Vec$LT$T$GT$$GT$13with_capacity17h1cb8e32837ff4ba3E', symObjAddr: 0x13F8, symBinAddr: 0x11E40, symSize: 0x4C }
  - { offset: 0x49C64, size: 0x8, addend: 0x0, symName: '__ZN5alloc5slice99_$LT$impl$u20$core..slice..sort..stable..BufGuard$LT$T$GT$$u20$for$u20$alloc..vec..Vec$LT$T$GT$$GT$13with_capacity17h94f45cf95284cf0dE', symObjAddr: 0x1444, symBinAddr: 0x11E8C, symSize: 0x4C }
  - { offset: 0x49D05, size: 0x8, addend: 0x0, symName: '__ZN5alloc5slice99_$LT$impl$u20$core..slice..sort..stable..BufGuard$LT$T$GT$$u20$for$u20$alloc..vec..Vec$LT$T$GT$$GT$19as_uninit_slice_mut17h2c0aefa4b5ce5958E', symObjAddr: 0x1490, symBinAddr: 0x11ED8, symSize: 0xD4 }
  - { offset: 0x49E81, size: 0x8, addend: 0x0, symName: '__ZN5alloc5slice99_$LT$impl$u20$core..slice..sort..stable..BufGuard$LT$T$GT$$u20$for$u20$alloc..vec..Vec$LT$T$GT$$GT$19as_uninit_slice_mut17h997508c97b2e8c2fE', symObjAddr: 0x1564, symBinAddr: 0x11FAC, symSize: 0xD4 }
  - { offset: 0x4AA18, size: 0x8, addend: 0x0, symName: __ZN4pyo310conversion15IntoPyObjectExt17into_bound_py_any17hc48ca61a8e3d5a3bE, symObjAddr: 0x788, symBinAddr: 0x111D0, symSize: 0xB4 }
  - { offset: 0x4AAAE, size: 0x8, addend: 0x0, symName: '__ZN57_$LT$T$u20$as$u20$pyo3..conversion..FromPyObjectBound$GT$20from_py_object_bound17hac218b81360a408aE', symObjAddr: 0x8E0, symBinAddr: 0x11328, symSize: 0x34 }
  - { offset: 0x4AAFB, size: 0x8, addend: 0x0, symName: '__ZN4pyo311conversions3std3vec85_$LT$impl$u20$pyo3..conversion..IntoPyObject$u20$for$u20$alloc..vec..Vec$LT$T$GT$$GT$13into_pyobject17hee3a86db39cf10f8E', symObjAddr: 0x83C, symBinAddr: 0x11284, symSize: 0x1C }
  - { offset: 0x4AB5D, size: 0x8, addend: 0x0, symName: '__ZN4pyo35types8sequence85_$LT$impl$u20$pyo3..conversion..FromPyObject$u20$for$u20$alloc..vec..Vec$LT$T$GT$$GT$13extract_bound17h1f403da2b9f8c782E', symObjAddr: 0x858, symBinAddr: 0x112A0, symSize: 0x88 }
  - { offset: 0x4AE78, size: 0x8, addend: 0x0, symName: '__ZN5alloc3vec12Vec$LT$T$GT$3new17h583e1c80ac947c10E', symObjAddr: 0x914, symBinAddr: 0x1135C, symSize: 0x14 }
  - { offset: 0x4AE95, size: 0x8, addend: 0x0, symName: '__ZN5alloc3vec12Vec$LT$T$GT$3new17hf17aa134d3ed3ac2E', symObjAddr: 0x928, symBinAddr: 0x11370, symSize: 0x14 }
  - { offset: 0x4B0A4, size: 0x8, addend: 0x0, symName: '__ZN5alloc3vec16Vec$LT$T$C$A$GT$16extend_desugared17h6f5f911ed0a3596eE', symObjAddr: 0x93C, symBinAddr: 0x11384, symSize: 0x1FC }
  - { offset: 0x4BB03, size: 0x8, addend: 0x0, symName: '__ZN5alloc3vec16Vec$LT$T$C$A$GT$16extend_desugared17h90ba27c77b0cff02E', symObjAddr: 0xB38, symBinAddr: 0x11580, symSize: 0x200 }
  - { offset: 0x4BF19, size: 0x8, addend: 0x0, symName: '__ZN5alloc3vec16Vec$LT$T$C$A$GT$16extend_desugared17hc04a9d708870e109E', symObjAddr: 0xD38, symBinAddr: 0x11780, symSize: 0x1FC }
  - { offset: 0x4C1E2, size: 0x8, addend: 0x0, symName: '__ZN5alloc3vec16Vec$LT$T$C$A$GT$4push17h6ce09d031cfc8b42E', symObjAddr: 0xF34, symBinAddr: 0x1197C, symSize: 0x30 }
  - { offset: 0x4C226, size: 0x8, addend: 0x0, symName: '__ZN5alloc3vec16Vec$LT$T$C$A$GT$4push17hcef8194ad4333e32E', symObjAddr: 0xF64, symBinAddr: 0x119AC, symSize: 0x24 }
  - { offset: 0x4C3A2, size: 0x8, addend: 0x0, symName: '__ZN5alloc3vec16Vec$LT$T$C$A$GT$7reserve17ha2ed7bdfc904defbE', symObjAddr: 0xF88, symBinAddr: 0x119D0, symSize: 0xC8 }
  - { offset: 0x4C61F, size: 0x8, addend: 0x0, symName: '__ZN5alloc3vec16Vec$LT$T$C$A$GT$7reserve17hb7513384dcb07656E', symObjAddr: 0x1050, symBinAddr: 0x11A98, symSize: 0xC8 }
  - { offset: 0x4C89C, size: 0x8, addend: 0x0, symName: '__ZN5alloc3vec16Vec$LT$T$C$A$GT$7reserve17hd4ebbd59e8c2307fE', symObjAddr: 0x1118, symBinAddr: 0x11B60, symSize: 0xC8 }
  - { offset: 0x4CB16, size: 0x8, addend: 0x0, symName: '__ZN5alloc3vec16Vec$LT$T$C$A$GT$8push_mut17h93450e8e8906ccc0E', symObjAddr: 0x11E0, symBinAddr: 0x11C28, symSize: 0xF4 }
  - { offset: 0x4CDB5, size: 0x8, addend: 0x0, symName: '__ZN5alloc3vec16Vec$LT$T$C$A$GT$8push_mut17ha6ae6b1de4bffebfE', symObjAddr: 0x12D4, symBinAddr: 0x11D1C, symSize: 0x124 }
  - { offset: 0x4D5B8, size: 0x8, addend: 0x0, symName: __ZN4pyo36marker6Python8get_type17h2b965f8204f15dcdE, symObjAddr: 0x0, symBinAddr: 0x123A4, symSize: 0x1C }
  - { offset: 0x4EE0B, size: 0x8, addend: 0x0, symName: __ZN4pyo36marker6Python8get_type17h2b965f8204f15dcdE, symObjAddr: 0x0, symBinAddr: 0x123A4, symSize: 0x1C }
  - { offset: 0x4EE43, size: 0x8, addend: 0x0, symName: __ZN4pyo36marker6Python8get_type17h49d1a233f8c73cd0E, symObjAddr: 0x1C, symBinAddr: 0x123C0, symSize: 0x1C }
  - { offset: 0x4EE7B, size: 0x8, addend: 0x0, symName: __ZN4pyo36marker6Python8get_type17h6870d16561c46c68E, symObjAddr: 0x38, symBinAddr: 0x123DC, symSize: 0x1C }
  - { offset: 0x4EEB3, size: 0x8, addend: 0x0, symName: __ZN4pyo36marker6Python8get_type17h73798c68604a4366E, symObjAddr: 0x54, symBinAddr: 0x123F8, symSize: 0x1C }
  - { offset: 0x4EEEB, size: 0x8, addend: 0x0, symName: __ZN4pyo36marker6Python8get_type17h7ae6afb8691c1e8eE, symObjAddr: 0x70, symBinAddr: 0x12414, symSize: 0x1C }
  - { offset: 0x4EF23, size: 0x8, addend: 0x0, symName: __ZN4pyo36marker6Python8get_type17h99cc612c1302d483E, symObjAddr: 0x8C, symBinAddr: 0x12430, symSize: 0x1C }
  - { offset: 0x4EF5B, size: 0x8, addend: 0x0, symName: __ZN4pyo36marker6Python8get_type17had1b6b99911d0857E, symObjAddr: 0xA8, symBinAddr: 0x1244C, symSize: 0x1C }
  - { offset: 0x4EF93, size: 0x8, addend: 0x0, symName: __ZN4pyo36marker6Python8get_type17hbc01df3ae0b14572E, symObjAddr: 0xC4, symBinAddr: 0x12468, symSize: 0x1C }
  - { offset: 0x4EFCB, size: 0x8, addend: 0x0, symName: __ZN4pyo36marker6Python8get_type17hf1aebd36d00eb08aE, symObjAddr: 0xE0, symBinAddr: 0x12484, symSize: 0x1C }
  - { offset: 0x4F003, size: 0x8, addend: 0x0, symName: __ZN4pyo36marker6Python8get_type17hfd87a5c5d0d88d2eE, symObjAddr: 0xFC, symBinAddr: 0x124A0, symSize: 0x1C }
  - { offset: 0x4F059, size: 0x8, addend: 0x0, symName: '__ZN100_$LT$pyo3..types..tuple..BorrowedTupleIterator$u20$as$u20$core..iter..traits..iterator..Iterator$GT$4next17heb7e8fb15718e139E', symObjAddr: 0x0, symBinAddr: 0x124BC, symSize: 0x9C }
  - { offset: 0x50186, size: 0x8, addend: 0x0, symName: '__ZN100_$LT$pyo3..types..tuple..BorrowedTupleIterator$u20$as$u20$core..iter..traits..iterator..Iterator$GT$4next17heb7e8fb15718e139E', symObjAddr: 0x0, symBinAddr: 0x124BC, symSize: 0x9C }
  - { offset: 0x5082D, size: 0x8, addend: 0x0, symName: '__ZN157_$LT$$LT$alloc..vec..into_iter..IntoIter$LT$T$C$A$GT$$u20$as$u20$core..ops..drop..Drop$GT$..drop..DropGuard$LT$T$C$A$GT$$u20$as$u20$core..ops..drop..Drop$GT$4drop17h2c75a8afc160eba3E', symObjAddr: 0x0, symBinAddr: 0x12558, symSize: 0x7C }
  - { offset: 0x50F14, size: 0x8, addend: 0x0, symName: '__ZN4core3ptr100drop_in_place$LT$core..result..Result$LT$zcash_zip321..TransactionRequest$C$pyo3..err..PyErr$GT$$GT$17hd889d424d549c1bbE', symObjAddr: 0x978, symBinAddr: 0x12EAC, symSize: 0x50 }
  - { offset: 0x50F43, size: 0x8, addend: 0x0, symName: '__ZN4core3ptr101drop_in_place$LT$alloc..vec..into_iter..IntoIter$LT$$LP$usize$C$zcash_zip321..PaymentData$RP$$GT$$GT$17ha9dea5bc35bf3f72E', symObjAddr: 0x9EC, symBinAddr: 0x12EFC, symSize: 0x24 }
  - { offset: 0x50F72, size: 0x8, addend: 0x0, symName: '__ZN4core3ptr101drop_in_place$LT$core..option..Option$LT$pyo3..instance..Bound$LT$pyo3..types..any..PyAny$GT$$GT$$GT$17h50e5e50164b09985E', symObjAddr: 0xA10, symBinAddr: 0x12F20, symSize: 0x44 }
  - { offset: 0x50FA1, size: 0x8, addend: 0x0, symName: '__ZN4core3ptr102drop_in_place$LT$alloc..collections..btree..map..BTreeMap$LT$usize$C$zcash_zip321..PaymentData$GT$$GT$17hb69e33ce3fa2b293E', symObjAddr: 0xA54, symBinAddr: 0x12F64, symSize: 0x24 }
  - { offset: 0x50FD0, size: 0x8, addend: 0x0, symName: '__ZN4core3ptr102drop_in_place$LT$alloc..collections..btree..map..IntoIter$LT$usize$C$zcash_zip321..PaymentData$GT$$GT$17h5c1807a6fb7b9211E', symObjAddr: 0xA78, symBinAddr: 0x12F88, symSize: 0x24 }
  - { offset: 0x50FFF, size: 0x8, addend: 0x0, symName: '__ZN4core3ptr103drop_in_place$LT$pyo3..pyclass_init..PyClassInitializerImpl$LT$zcash_zip321..TransactionRequest$GT$$GT$17h8c039391d489b3dfE', symObjAddr: 0xA9C, symBinAddr: 0x12FAC, symSize: 0x50 }
  - { offset: 0x5102E, size: 0x8, addend: 0x0, symName: '__ZN4core3ptr107drop_in_place$LT$core..iter..adapters..enumerate..Enumerate$LT$pyo3..types..list..BoundListIterator$GT$$GT$17h46586f235dfdbdeaE', symObjAddr: 0xB94, symBinAddr: 0x12FFC, symSize: 0x24 }
  - { offset: 0x5105D, size: 0x8, addend: 0x0, symName: '__ZN4core3ptr108drop_in_place$LT$core..option..Option$LT$pyo3..pycell..PyRef$LT$zcash_zip321..TransactionRequest$GT$$GT$$GT$17hbf0b348502ad5260E', symObjAddr: 0xBB8, symBinAddr: 0x13020, symSize: 0x44 }
  - { offset: 0x5108C, size: 0x8, addend: 0x0, symName: '__ZN4core3ptr108drop_in_place$LT$core..result..Result$LT$$LP$$RP$$C$alloc..borrow..Cow$LT$core..ffi..c_str..CStr$GT$$GT$$GT$17haccd2391e4ef8642E', symObjAddr: 0xBFC, symBinAddr: 0x13064, symSize: 0x44 }
  - { offset: 0x510BB, size: 0x8, addend: 0x0, symName: '__ZN4core3ptr110drop_in_place$LT$core..slice..sort..stable..merge..MergeState$LT$$LP$usize$C$zcash_zip321..Payment$RP$$GT$$GT$17h5bb86079f0f6a1d4E', symObjAddr: 0xC40, symBinAddr: 0x130A8, symSize: 0x24 }
  - { offset: 0x510EA, size: 0x8, addend: 0x0, symName: '__ZN4core3ptr114drop_in_place$LT$core..option..Option$LT$core..option..Option$LT$$LP$usize$C$zcash_zip321..Payment$RP$$GT$$GT$$GT$17h9b24eb4bc29f481bE', symObjAddr: 0xC64, symBinAddr: 0x130CC, symSize: 0x44 }
  - { offset: 0x51119, size: 0x8, addend: 0x0, symName: '__ZN4core3ptr114drop_in_place$LT$core..slice..sort..shared..smallsort..CopyOnDrop$LT$$LP$usize$C$zcash_zip321..Payment$RP$$GT$$GT$17h10edca42741a47fcE', symObjAddr: 0xCA8, symBinAddr: 0x13110, symSize: 0x24 }
  - { offset: 0x51148, size: 0x8, addend: 0x0, symName: '__ZN4core3ptr114drop_in_place$LT$core..slice..sort..stable..merge..MergeState$LT$$LP$usize$C$zcash_zip321..PaymentData$RP$$GT$$GT$17h2f5d7de3a4da86e7E', symObjAddr: 0xCCC, symBinAddr: 0x13134, symSize: 0x24 }
  - { offset: 0x51177, size: 0x8, addend: 0x0, symName: '__ZN4core3ptr118drop_in_place$LT$core..option..Option$LT$core..option..Option$LT$$LP$usize$C$zcash_zip321..PaymentData$RP$$GT$$GT$$GT$17h58b8e8ef929c8cb6E', symObjAddr: 0xD14, symBinAddr: 0x13158, symSize: 0x44 }
  - { offset: 0x511A6, size: 0x8, addend: 0x0, symName: '__ZN4core3ptr118drop_in_place$LT$core..slice..sort..shared..smallsort..CopyOnDrop$LT$$LP$usize$C$zcash_zip321..PaymentData$RP$$GT$$GT$17hc9bd96fd83ebe407E', symObjAddr: 0xD58, symBinAddr: 0x1319C, symSize: 0x24 }
  - { offset: 0x511D5, size: 0x8, addend: 0x0, symName: '__ZN4core3ptr121drop_in_place$LT$core..option..Option$LT$core..result..Result$LT$core..convert..Infallible$C$pyo3..err..PyErr$GT$$GT$$GT$17h2cb2276f3fd6721cE', symObjAddr: 0xD7C, symBinAddr: 0x131C0, symSize: 0x40 }
  - { offset: 0x51204, size: 0x8, addend: 0x0, symName: '__ZN4core3ptr127drop_in_place$LT$pyo3..err..PyErr..new$LT$zcash_zip321..ParseError$C$alloc..string..String$GT$..$u7b$$u7b$closure$u7d$$u7d$$GT$17h826c75ccca03e255E', symObjAddr: 0xDE0, symBinAddr: 0x13200, symSize: 0x24 }
  - { offset: 0x51233, size: 0x8, addend: 0x0, symName: '__ZN4core3ptr128drop_in_place$LT$alloc..boxed..Box$LT$alloc..collections..btree..node..LeafNode$LT$usize$C$zcash_zip321..PaymentData$GT$$GT$$GT$17h99b643be430081acE', symObjAddr: 0xE30, symBinAddr: 0x13224, symSize: 0x2C }
  - { offset: 0x51262, size: 0x8, addend: 0x0, symName: '__ZN4core3ptr132drop_in_place$LT$alloc..boxed..Box$LT$alloc..collections..btree..node..InternalNode$LT$usize$C$zcash_zip321..PaymentData$GT$$GT$$GT$17h3a876220f9976526E', symObjAddr: 0xE80, symBinAddr: 0x13250, symSize: 0x2C }
  - { offset: 0x51291, size: 0x8, addend: 0x0, symName: '__ZN4core3ptr133drop_in_place$LT$pyo3..err..PyErr..new$LT$zcash_zip321..MemoTooLongError$C$alloc..string..String$GT$..$u7b$$u7b$closure$u7d$$u7d$$GT$17h59ecbe6946688f83E', symObjAddr: 0xEAC, symBinAddr: 0x1327C, symSize: 0x24 }
  - { offset: 0x512C0, size: 0x8, addend: 0x0, symName: '__ZN4core3ptr135drop_in_place$LT$pyo3..err..PyErr..new$LT$zcash_zip321..InvalidBase64Error$C$alloc..string..String$GT$..$u7b$$u7b$closure$u7d$$u7d$$GT$17h875a452daff0eaa9E', symObjAddr: 0xED0, symBinAddr: 0x132A0, symSize: 0x24 }
  - { offset: 0x512EF, size: 0x8, addend: 0x0, symName: '__ZN4core3ptr136drop_in_place$LT$pyo3..err..PyErr..new$LT$zcash_zip321..InvalidAddressError$C$alloc..string..String$GT$..$u7b$$u7b$closure$u7d$$u7d$$GT$17h658c5f7a6d028bd6E', symObjAddr: 0xEF4, symBinAddr: 0x132C4, symSize: 0x24 }
  - { offset: 0x5131E, size: 0x8, addend: 0x0, symName: '__ZN4core3ptr136drop_in_place$LT$pyo3..err..PyErr..new$LT$zcash_zip321..InvalidPaymentError$C$alloc..string..String$GT$..$u7b$$u7b$closure$u7d$$u7d$$GT$17h7f0e6239f871bc43E', symObjAddr: 0xF18, symBinAddr: 0x132E8, symSize: 0x24 }
  - { offset: 0x5134D, size: 0x8, addend: 0x0, symName: '__ZN4core3ptr137drop_in_place$LT$pyo3..err..PyErr..new$LT$zcash_zip321..TooManyPaymentsError$C$alloc..string..String$GT$..$u7b$$u7b$closure$u7d$$u7d$$GT$17h7bed73390e3bb32aE', symObjAddr: 0xF3C, symBinAddr: 0x1330C, symSize: 0x24 }
  - { offset: 0x5137C, size: 0x8, addend: 0x0, symName: '__ZN4core3ptr137drop_in_place$LT$pyo3..err..PyErr..new$LT$zcash_zip321..TransparentMemoError$C$alloc..string..String$GT$..$u7b$$u7b$closure$u7d$$u7d$$GT$17ha2ab61283cbeb82aE', symObjAddr: 0xF60, symBinAddr: 0x13330, symSize: 0x24 }
  - { offset: 0x513AB, size: 0x8, addend: 0x0, symName: '__ZN4core3ptr138drop_in_place$LT$pyo3..err..PyErr..new$LT$zcash_zip321..RecipientMissingError$C$alloc..string..String$GT$..$u7b$$u7b$closure$u7d$$u7d$$GT$17had5b53c371535a35E', symObjAddr: 0xF84, symBinAddr: 0x13354, symSize: 0x24 }
  - { offset: 0x513DA, size: 0x8, addend: 0x0, symName: '__ZN4core3ptr145drop_in_place$LT$core..iter..adapters..peekable..Peekable$LT$alloc..vec..into_iter..IntoIter$LT$$LP$usize$C$zcash_zip321..Payment$RP$$GT$$GT$$GT$17h6f6b956a60d9afeeE', symObjAddr: 0xFA8, symBinAddr: 0x13378, symSize: 0x5C }
  - { offset: 0x51409, size: 0x8, addend: 0x0, symName: '__ZN4core3ptr145drop_in_place$LT$core..result..Result$LT$alloc..collections..btree..map..BTreeMap$LT$usize$C$zcash_zip321..Payment$GT$$C$pyo3..err..PyErr$GT$$GT$17h8adcfa0a42dc4700E', symObjAddr: 0x1004, symBinAddr: 0x133D4, symSize: 0x50 }
  - { offset: 0x51438, size: 0x8, addend: 0x0, symName: '__ZN4core3ptr149drop_in_place$LT$core..iter..adapters..peekable..Peekable$LT$alloc..vec..into_iter..IntoIter$LT$$LP$usize$C$zcash_zip321..PaymentData$RP$$GT$$GT$$GT$17h8f53aaa858c53eccE', symObjAddr: 0x1054, symBinAddr: 0x13424, symSize: 0x5C }
  - { offset: 0x51467, size: 0x8, addend: 0x0, symName: '__ZN4core3ptr154drop_in_place$LT$alloc..collections..btree..node..SplitResult$LT$usize$C$zcash_zip321..PaymentData$C$alloc..collections..btree..node..marker..Leaf$GT$$GT$17h8432096cef91e48cE', symObjAddr: 0x10B0, symBinAddr: 0x13480, symSize: 0x24 }
  - { offset: 0x51496, size: 0x8, addend: 0x0, symName: '__ZN4core3ptr158drop_in_place$LT$alloc..collections..btree..node..SplitResult$LT$usize$C$zcash_zip321..PaymentData$C$alloc..collections..btree..node..marker..Internal$GT$$GT$17h1121f260e19fdaa0E', symObjAddr: 0x10D4, symBinAddr: 0x134A4, symSize: 0x24 }
  - { offset: 0x514C5, size: 0x8, addend: 0x0, symName: '__ZN4core3ptr191drop_in_place$LT$$LT$alloc..vec..into_iter..IntoIter$LT$T$C$A$GT$$u20$as$u20$core..ops..drop..Drop$GT$..drop..DropGuard$LT$$LP$usize$C$zcash_zip321..Payment$RP$$C$alloc..alloc..Global$GT$$GT$17ha51f325264414244E', symObjAddr: 0x10F8, symBinAddr: 0x134C8, symSize: 0x24 }
  - { offset: 0x514F4, size: 0x8, addend: 0x0, symName: '__ZN4core3ptr195drop_in_place$LT$$LT$alloc..vec..into_iter..IntoIter$LT$T$C$A$GT$$u20$as$u20$core..ops..drop..Drop$GT$..drop..DropGuard$LT$$LP$usize$C$zcash_zip321..PaymentData$RP$$C$alloc..alloc..Global$GT$$GT$17h37bd8883e54d7e0cE', symObjAddr: 0x111C, symBinAddr: 0x134EC, symSize: 0x24 }
  - { offset: 0x51523, size: 0x8, addend: 0x0, symName: '__ZN4core3ptr196drop_in_place$LT$$LT$alloc..collections..btree..map..IntoIter$LT$K$C$V$C$A$GT$$u20$as$u20$core..ops..drop..Drop$GT$..drop..DropGuard$LT$usize$C$zcash_zip321..Payment$C$alloc..alloc..Global$GT$$GT$17h57f0f0cc52e0dc44E', symObjAddr: 0x1140, symBinAddr: 0x13510, symSize: 0x24 }
  - { offset: 0x51552, size: 0x8, addend: 0x0, symName: '__ZN4core3ptr198drop_in_place$LT$alloc..collections..btree..dedup_sorted_iter..DedupSortedIter$LT$usize$C$zcash_zip321..Payment$C$alloc..vec..into_iter..IntoIter$LT$$LP$usize$C$zcash_zip321..Payment$RP$$GT$$GT$$GT$17h49afcc578ea854b0E', symObjAddr: 0x1164, symBinAddr: 0x13534, symSize: 0x24 }
  - { offset: 0x51581, size: 0x8, addend: 0x0, symName: '__ZN4core3ptr200drop_in_place$LT$$LT$alloc..collections..btree..map..IntoIter$LT$K$C$V$C$A$GT$$u20$as$u20$core..ops..drop..Drop$GT$..drop..DropGuard$LT$usize$C$zcash_zip321..PaymentData$C$alloc..alloc..Global$GT$$GT$17h04a2155e200ea975E', symObjAddr: 0x1188, symBinAddr: 0x13558, symSize: 0x24 }
  - { offset: 0x515B0, size: 0x8, addend: 0x0, symName: '__ZN4core3ptr206drop_in_place$LT$alloc..collections..btree..dedup_sorted_iter..DedupSortedIter$LT$usize$C$zcash_zip321..PaymentData$C$alloc..vec..into_iter..IntoIter$LT$$LP$usize$C$zcash_zip321..PaymentData$RP$$GT$$GT$$GT$17h725a337b71d303faE', symObjAddr: 0x11AC, symBinAddr: 0x1357C, symSize: 0x24 }
  - { offset: 0x515DF, size: 0x8, addend: 0x0, symName: '__ZN4core3ptr279drop_in_place$LT$alloc..collections..btree..node..Handle$LT$alloc..collections..btree..node..NodeRef$LT$alloc..collections..btree..node..marker..Dying$C$K$C$V$C$NodeType$GT$$C$alloc..collections..btree..node..marker..KV$GT$..drop_key_val..Dropper$LT$zcash_zip321..Payment$GT$$GT$17h6d4ed0ae67b21781E', symObjAddr: 0x11D0, symBinAddr: 0x135A0, symSize: 0x24 }
  - { offset: 0x5160E, size: 0x8, addend: 0x0, symName: '__ZN4core3ptr283drop_in_place$LT$alloc..collections..btree..node..Handle$LT$alloc..collections..btree..node..NodeRef$LT$alloc..collections..btree..node..marker..Dying$C$K$C$V$C$NodeType$GT$$C$alloc..collections..btree..node..marker..KV$GT$..drop_key_val..Dropper$LT$zcash_zip321..PaymentData$GT$$GT$17h7f4aa1b490caa2eeE', symObjAddr: 0x11F4, symBinAddr: 0x135C4, symSize: 0x24 }
  - { offset: 0x5163D, size: 0x8, addend: 0x0, symName: '__ZN4core3ptr42drop_in_place$LT$zcash_zip321..Payment$GT$17h1895eb73607a0795E', symObjAddr: 0x1218, symBinAddr: 0x135E8, symSize: 0x24 }
  - { offset: 0x5166C, size: 0x8, addend: 0x0, symName: '__ZN4core3ptr46drop_in_place$LT$zcash_zip321..PaymentData$GT$17h90380de622f9208bE', symObjAddr: 0x123C, symBinAddr: 0x1360C, symSize: 0xC4 }
  - { offset: 0x5169B, size: 0x8, addend: 0x0, symName: '__ZN4core3ptr53drop_in_place$LT$zcash_zip321..TransactionRequest$GT$17hdd77fed16c30fed8E', symObjAddr: 0x1324, symBinAddr: 0x136D0, symSize: 0x24 }
  - { offset: 0x516CA, size: 0x8, addend: 0x0, symName: '__ZN4core3ptr57drop_in_place$LT$pyo3..types..list..BoundListIterator$GT$17h9ae0960de9f9cf29E', symObjAddr: 0x1348, symBinAddr: 0x136F4, symSize: 0x24 }
  - { offset: 0x516F9, size: 0x8, addend: 0x0, symName: '__ZN4core3ptr58drop_in_place$LT$$LP$usize$C$zcash_zip321..Payment$RP$$GT$17h37aeda669783958bE', symObjAddr: 0x136C, symBinAddr: 0x13718, symSize: 0x24 }
  - { offset: 0x51728, size: 0x8, addend: 0x0, symName: '__ZN4core3ptr62drop_in_place$LT$$LP$usize$C$zcash_zip321..PaymentData$RP$$GT$17h588a8cfe35d5aac5E', symObjAddr: 0x13B4, symBinAddr: 0x1373C, symSize: 0x24 }
  - { offset: 0x51757, size: 0x8, addend: 0x0, symName: '__ZN4core3ptr68drop_in_place$LT$$u5b$$LP$usize$C$zcash_zip321..Payment$RP$$u5d$$GT$17h19875ccffde0a28bE', symObjAddr: 0x1434, symBinAddr: 0x13760, symSize: 0xC4 }
  - { offset: 0x51786, size: 0x8, addend: 0x0, symName: '__ZN4core3ptr68drop_in_place$LT$pyo3..instance..Py$LT$zcash_zip321..Payment$GT$$GT$17h7d984535bcdc65afE', symObjAddr: 0x14F8, symBinAddr: 0x13824, symSize: 0x2C }
  - { offset: 0x517B5, size: 0x8, addend: 0x0, symName: '__ZN4core3ptr69drop_in_place$LT$alloc..borrow..Cow$LT$core..ffi..c_str..CStr$GT$$GT$17h4eddc0a55af0892fE', symObjAddr: 0x1524, symBinAddr: 0x13850, symSize: 0x40 }
  - { offset: 0x517E4, size: 0x8, addend: 0x0, symName: '__ZN4core3ptr69drop_in_place$LT$pyo3..pycell..PyRef$LT$zcash_zip321..Payment$GT$$GT$17h93dd34731237a5f1E', symObjAddr: 0x1564, symBinAddr: 0x13890, symSize: 0x5C }
  - { offset: 0x51813, size: 0x8, addend: 0x0, symName: '__ZN4core3ptr71drop_in_place$LT$pyo3..instance..Bound$LT$zcash_zip321..Payment$GT$$GT$17ha49e5ade6c9fa896E', symObjAddr: 0x15C0, symBinAddr: 0x138EC, symSize: 0x24 }
  - { offset: 0x51842, size: 0x8, addend: 0x0, symName: '__ZN4core3ptr72drop_in_place$LT$$u5b$$LP$usize$C$zcash_zip321..PaymentData$RP$$u5d$$GT$17h583d7676370f6655E', symObjAddr: 0x15E4, symBinAddr: 0x13910, symSize: 0xC4 }
  - { offset: 0x51871, size: 0x8, addend: 0x0, symName: '__ZN4core3ptr72drop_in_place$LT$core..cell..UnsafeCell$LT$zcash_zip321..Payment$GT$$GT$17h6bb23501cb7ec41aE', symObjAddr: 0x16CC, symBinAddr: 0x139D4, symSize: 0x24 }
  - { offset: 0x518A0, size: 0x8, addend: 0x0, symName: '__ZN4core3ptr73drop_in_place$LT$core..result..Result$LT$usize$C$pyo3..err..PyErr$GT$$GT$17ha4ab8d71ef18c8a3E', symObjAddr: 0x16F0, symBinAddr: 0x139F8, symSize: 0x40 }
  - { offset: 0x518CF, size: 0x8, addend: 0x0, symName: '__ZN4core3ptr74drop_in_place$LT$core..option..Option$LT$alloc..vec..Vec$LT$u8$GT$$GT$$GT$17hd6ae7598b19a905bE', symObjAddr: 0x1730, symBinAddr: 0x13A38, symSize: 0x48 }
  - { offset: 0x518FE, size: 0x8, addend: 0x0, symName: '__ZN4core3ptr74drop_in_place$LT$core..option..Option$LT$zcash_zip321..PaymentData$GT$$GT$17hb3bca619a0cd1ad6E', symObjAddr: 0x1778, symBinAddr: 0x13A80, symSize: 0x44 }
  - { offset: 0x5192D, size: 0x8, addend: 0x0, symName: '__ZN4core3ptr79drop_in_place$LT$pyo3..instance..Py$LT$zcash_zip321..TransactionRequest$GT$$GT$17h9e2dbd0e8f11914fE', symObjAddr: 0x17BC, symBinAddr: 0x13AC4, symSize: 0x2C }
  - { offset: 0x5195C, size: 0x8, addend: 0x0, symName: '__ZN4core3ptr80drop_in_place$LT$core..ops..control_flow..ControlFlow$LT$zip321..Payment$GT$$GT$17h25f5b9ec84eb5085E', symObjAddr: 0x17E8, symBinAddr: 0x13AF0, symSize: 0x48 }
  - { offset: 0x5198B, size: 0x8, addend: 0x0, symName: '__ZN4core3ptr80drop_in_place$LT$pyo3..pycell..PyRef$LT$zcash_zip321..TransactionRequest$GT$$GT$17hb92d7a4fe7d09f5cE', symObjAddr: 0x18C0, symBinAddr: 0x13B38, symSize: 0x5C }
  - { offset: 0x519BA, size: 0x8, addend: 0x0, symName: '__ZN4core3ptr81drop_in_place$LT$alloc..vec..Vec$LT$$LP$usize$C$zcash_zip321..Payment$RP$$GT$$GT$17hf92f4084baf8c262E', symObjAddr: 0x191C, symBinAddr: 0x13B94, symSize: 0x5C }
  - { offset: 0x519E9, size: 0x8, addend: 0x0, symName: '__ZN4core3ptr82drop_in_place$LT$pyo3..instance..Bound$LT$zcash_zip321..TransactionRequest$GT$$GT$17hc87479d1e21a414dE', symObjAddr: 0x1978, symBinAddr: 0x13BF0, symSize: 0x24 }
  - { offset: 0x51A18, size: 0x8, addend: 0x0, symName: '__ZN4core3ptr83drop_in_place$LT$core..cell..UnsafeCell$LT$zcash_zip321..TransactionRequest$GT$$GT$17h83534876be10a93fE', symObjAddr: 0x199C, symBinAddr: 0x13C14, symSize: 0x24 }
  - { offset: 0x51A47, size: 0x8, addend: 0x0, symName: '__ZN4core3ptr85drop_in_place$LT$alloc..vec..Vec$LT$$LP$usize$C$zcash_zip321..PaymentData$RP$$GT$$GT$17h8ebcfacfd729c218E', symObjAddr: 0x19C0, symBinAddr: 0x13C38, symSize: 0x5C }
  - { offset: 0x51A76, size: 0x8, addend: 0x0, symName: '__ZN4core3ptr86drop_in_place$LT$core..option..Option$LT$$LP$usize$C$zcash_zip321..Payment$RP$$GT$$GT$17hcdcdf3ed0967b25fE', symObjAddr: 0x1A1C, symBinAddr: 0x13C94, symSize: 0x44 }
  - { offset: 0x51AA5, size: 0x8, addend: 0x0, symName: '__ZN4core3ptr88drop_in_place$LT$alloc..raw_vec..RawVec$LT$$LP$usize$C$zcash_zip321..Payment$RP$$GT$$GT$17ha5ae0ceb615c9384E', symObjAddr: 0x1A60, symBinAddr: 0x13CD8, symSize: 0x24 }
  - { offset: 0x51AD4, size: 0x8, addend: 0x0, symName: '__ZN4core3ptr88drop_in_place$LT$pyo3..pyclass_init..PyClassInitializer$LT$zcash_zip321..Payment$GT$$GT$17h02788b1137bcbb6cE', symObjAddr: 0x1A84, symBinAddr: 0x13CFC, symSize: 0x24 }
  - { offset: 0x51B03, size: 0x8, addend: 0x0, symName: '__ZN4core3ptr89drop_in_place$LT$core..result..Result$LT$alloc..string..String$C$pyo3..err..PyErr$GT$$GT$17hf48df1b7a24c9827E', symObjAddr: 0x1AA8, symBinAddr: 0x13D20, symSize: 0x50 }
  - { offset: 0x51B32, size: 0x8, addend: 0x0, symName: '__ZN4core3ptr89drop_in_place$LT$core..result..Result$LT$zcash_zip321..Payment$C$pyo3..err..PyErr$GT$$GT$17h0f3270b98cafad5aE', symObjAddr: 0x1AF8, symBinAddr: 0x13D70, symSize: 0x58 }
  - { offset: 0x51B61, size: 0x8, addend: 0x0, symName: '__ZN4core3ptr90drop_in_place$LT$core..option..Option$LT$$LP$usize$C$zcash_zip321..PaymentData$RP$$GT$$GT$17h46fb955e0c2d81d1E', symObjAddr: 0x1B50, symBinAddr: 0x13DC8, symSize: 0x44 }
  - { offset: 0x51B90, size: 0x8, addend: 0x0, symName: '__ZN4core3ptr92drop_in_place$LT$alloc..raw_vec..RawVec$LT$$LP$usize$C$zcash_zip321..PaymentData$RP$$GT$$GT$17h34916ff2a26cd43dE', symObjAddr: 0x1B94, symBinAddr: 0x13E0C, symSize: 0x24 }
  - { offset: 0x51BBF, size: 0x8, addend: 0x0, symName: '__ZN4core3ptr92drop_in_place$LT$pyo3..pyclass_init..PyClassInitializerImpl$LT$zcash_zip321..Payment$GT$$GT$17h92f25c5b038b779dE', symObjAddr: 0x1BB8, symBinAddr: 0x13E30, symSize: 0x54 }
  - { offset: 0x51BEE, size: 0x8, addend: 0x0, symName: '__ZN4core3ptr93drop_in_place$LT$core..result..Result$LT$$RF$zcash_zip321..Payment$C$pyo3..err..PyErr$GT$$GT$17h8d022dd86265dcbeE', symObjAddr: 0x1C0C, symBinAddr: 0x13E84, symSize: 0x40 }
  - { offset: 0x51C1D, size: 0x8, addend: 0x0, symName: '__ZN4core3ptr93drop_in_place$LT$core..result..Result$LT$alloc..vec..Vec$LT$u8$GT$$C$pyo3..err..PyErr$GT$$GT$17h6aaabf376363e70cE', symObjAddr: 0x1C4C, symBinAddr: 0x13EC4, symSize: 0x50 }
  - { offset: 0x51C4C, size: 0x8, addend: 0x0, symName: '__ZN4core3ptr93drop_in_place$LT$core..result..Result$LT$core..convert..Infallible$C$pyo3..err..PyErr$GT$$GT$17hcaa42580efdc2e7bE', symObjAddr: 0x1C9C, symBinAddr: 0x13F14, symSize: 0x30 }
  - { offset: 0x51C7B, size: 0x8, addend: 0x0, symName: '__ZN4core3ptr97drop_in_place$LT$alloc..vec..into_iter..IntoIter$LT$$LP$usize$C$zcash_zip321..Payment$RP$$GT$$GT$17h0fe780640631e73eE', symObjAddr: 0x1CF0, symBinAddr: 0x13F44, symSize: 0x24 }
  - { offset: 0x51CAA, size: 0x8, addend: 0x0, symName: '__ZN4core3ptr97drop_in_place$LT$core..option..Option$LT$alloc..borrow..Cow$LT$core..ffi..c_str..CStr$GT$$GT$$GT$17h2f41195b588af351E', symObjAddr: 0x1D14, symBinAddr: 0x13F68, symSize: 0x44 }
  - { offset: 0x51CD9, size: 0x8, addend: 0x0, symName: '__ZN4core3ptr97drop_in_place$LT$core..option..Option$LT$pyo3..pycell..PyRef$LT$zcash_zip321..Payment$GT$$GT$$GT$17h4596f2ed2cc7b40dE', symObjAddr: 0x1D58, symBinAddr: 0x13FAC, symSize: 0x44 }
  - { offset: 0x51D08, size: 0x8, addend: 0x0, symName: '__ZN4core3ptr98drop_in_place$LT$alloc..collections..btree..map..BTreeMap$LT$usize$C$zcash_zip321..Payment$GT$$GT$17hce680ab41f5bf6b8E', symObjAddr: 0x1D9C, symBinAddr: 0x13FF0, symSize: 0x24 }
  - { offset: 0x51D37, size: 0x8, addend: 0x0, symName: '__ZN4core3ptr98drop_in_place$LT$alloc..collections..btree..map..IntoIter$LT$usize$C$zcash_zip321..Payment$GT$$GT$17hc5d5045d0fdf5262E', symObjAddr: 0x1DC0, symBinAddr: 0x14014, symSize: 0x24 }
  - { offset: 0x51D66, size: 0x8, addend: 0x0, symName: '__ZN4core3ptr99drop_in_place$LT$core..result..Result$LT$core..option..Option$LT$f64$GT$$C$pyo3..err..PyErr$GT$$GT$17h722a7b7f363ad649E', symObjAddr: 0x1DE4, symBinAddr: 0x14038, symSize: 0x40 }
  - { offset: 0x51D95, size: 0x8, addend: 0x0, symName: '__ZN4core3ptr99drop_in_place$LT$core..result..Result$LT$core..option..Option$LT$u64$GT$$C$pyo3..err..PyErr$GT$$GT$17h0ba437e6668e911bE', symObjAddr: 0x1E24, symBinAddr: 0x14078, symSize: 0x40 }
  - { offset: 0x51DC4, size: 0x8, addend: 0x0, symName: '__ZN4core3ptr99drop_in_place$LT$pyo3..pyclass_init..PyClassInitializer$LT$zcash_zip321..TransactionRequest$GT$$GT$17hc8718bdb851293f6E', symObjAddr: 0x1E64, symBinAddr: 0x140B8, symSize: 0x24 }
  - { offset: 0x539CC, size: 0x8, addend: 0x0, symName: __ZN4core3ops8function5FnMut8call_mut17h41be8016098b2cb0E, symObjAddr: 0x218, symBinAddr: 0x12770, symSize: 0x48 }
  - { offset: 0x53A16, size: 0x8, addend: 0x0, symName: '__ZN4core3ops8function6FnOnce40call_once$u7b$$u7b$vtable.shim$u7d$$u7d$17h1c14f87f115f8ef0E', symObjAddr: 0x260, symBinAddr: 0x127B8, symSize: 0x24 }
  - { offset: 0x53A5A, size: 0x8, addend: 0x0, symName: '__ZN4core3ops8function6FnOnce40call_once$u7b$$u7b$vtable.shim$u7d$$u7d$17h2d94d251ea32e25dE', symObjAddr: 0x284, symBinAddr: 0x127DC, symSize: 0x24 }
  - { offset: 0x53A9E, size: 0x8, addend: 0x0, symName: '__ZN4core3ops8function6FnOnce40call_once$u7b$$u7b$vtable.shim$u7d$$u7d$17h40a1fc8ca3593996E', symObjAddr: 0x2A8, symBinAddr: 0x12800, symSize: 0x24 }
  - { offset: 0x53AE2, size: 0x8, addend: 0x0, symName: '__ZN4core3ops8function6FnOnce40call_once$u7b$$u7b$vtable.shim$u7d$$u7d$17h43e28c9edcb7b701E', symObjAddr: 0x2CC, symBinAddr: 0x12824, symSize: 0x24 }
  - { offset: 0x53B26, size: 0x8, addend: 0x0, symName: '__ZN4core3ops8function6FnOnce40call_once$u7b$$u7b$vtable.shim$u7d$$u7d$17h45f7368900d3dad6E', symObjAddr: 0x2F0, symBinAddr: 0x12848, symSize: 0x30 }
  - { offset: 0x53B6A, size: 0x8, addend: 0x0, symName: '__ZN4core3ops8function6FnOnce40call_once$u7b$$u7b$vtable.shim$u7d$$u7d$17h472fcadefb941ab7E', symObjAddr: 0x320, symBinAddr: 0x12878, symSize: 0x24 }
  - { offset: 0x53BAE, size: 0x8, addend: 0x0, symName: '__ZN4core3ops8function6FnOnce40call_once$u7b$$u7b$vtable.shim$u7d$$u7d$17h73a7bd32887ad15eE', symObjAddr: 0x344, symBinAddr: 0x1289C, symSize: 0x30 }
  - { offset: 0x53BF2, size: 0x8, addend: 0x0, symName: '__ZN4core3ops8function6FnOnce40call_once$u7b$$u7b$vtable.shim$u7d$$u7d$17h8d8a45c7f01e6546E', symObjAddr: 0x374, symBinAddr: 0x128CC, symSize: 0x20 }
  - { offset: 0x53C36, size: 0x8, addend: 0x0, symName: '__ZN4core3ops8function6FnOnce40call_once$u7b$$u7b$vtable.shim$u7d$$u7d$17h99c397789018f9feE', symObjAddr: 0x394, symBinAddr: 0x128EC, symSize: 0x30 }
  - { offset: 0x53C76, size: 0x8, addend: 0x0, symName: '__ZN4core3ops8function6FnOnce40call_once$u7b$$u7b$vtable.shim$u7d$$u7d$17hc6d01d50b87a67f4E', symObjAddr: 0x3C4, symBinAddr: 0x1291C, symSize: 0x24 }
  - { offset: 0x53CBA, size: 0x8, addend: 0x0, symName: '__ZN4core3ops8function6FnOnce40call_once$u7b$$u7b$vtable.shim$u7d$$u7d$17he3c52f3d003451b8E', symObjAddr: 0x3E8, symBinAddr: 0x12940, symSize: 0x24 }
  - { offset: 0x53CFE, size: 0x8, addend: 0x0, symName: '__ZN4core3ops8function6FnOnce40call_once$u7b$$u7b$vtable.shim$u7d$$u7d$17hffbcf09791981c47E', symObjAddr: 0x40C, symBinAddr: 0x12964, symSize: 0x24 }
  - { offset: 0x53D42, size: 0x8, addend: 0x0, symName: __ZN4core3ops8function6FnOnce9call_once17h03b2539b83b2e205E, symObjAddr: 0x430, symBinAddr: 0x12988, symSize: 0x24 }
  - { offset: 0x53D86, size: 0x8, addend: 0x0, symName: __ZN4core3ops8function6FnOnce9call_once17h187bf6112c8a88eeE, symObjAddr: 0x454, symBinAddr: 0x129AC, symSize: 0x3C }
  - { offset: 0x53DCA, size: 0x8, addend: 0x0, symName: __ZN4core3ops8function6FnOnce9call_once17h18983c2bb4a7db8fE, symObjAddr: 0x490, symBinAddr: 0x129E8, symSize: 0x48 }
  - { offset: 0x53E0E, size: 0x8, addend: 0x0, symName: __ZN4core3ops8function6FnOnce9call_once17h217d24474293450cE, symObjAddr: 0x4D8, symBinAddr: 0x12A30, symSize: 0x3C }
  - { offset: 0x53E52, size: 0x8, addend: 0x0, symName: __ZN4core3ops8function6FnOnce9call_once17h33299d52088c44e8E, symObjAddr: 0x514, symBinAddr: 0x12A6C, symSize: 0x24 }
  - { offset: 0x53E96, size: 0x8, addend: 0x0, symName: __ZN4core3ops8function6FnOnce9call_once17h37c3e8582ff3a4e1E, symObjAddr: 0x538, symBinAddr: 0x12A90, symSize: 0x24 }
  - { offset: 0x53EDA, size: 0x8, addend: 0x0, symName: __ZN4core3ops8function6FnOnce9call_once17h38985543b9190ae6E, symObjAddr: 0x55C, symBinAddr: 0x12AB4, symSize: 0x24 }
  - { offset: 0x53F1E, size: 0x8, addend: 0x0, symName: __ZN4core3ops8function6FnOnce9call_once17h449f37941120aecaE, symObjAddr: 0x580, symBinAddr: 0x12AD8, symSize: 0x34 }
  - { offset: 0x53F62, size: 0x8, addend: 0x0, symName: __ZN4core3ops8function6FnOnce9call_once17h4b54ea6b932651feE, symObjAddr: 0x5B4, symBinAddr: 0x12B0C, symSize: 0x24 }
  - { offset: 0x53FA6, size: 0x8, addend: 0x0, symName: __ZN4core3ops8function6FnOnce9call_once17h53c8f161fe44e13dE, symObjAddr: 0x5D8, symBinAddr: 0x12B30, symSize: 0x24 }
  - { offset: 0x53FEA, size: 0x8, addend: 0x0, symName: __ZN4core3ops8function6FnOnce9call_once17h546a613c0c6f5abdE, symObjAddr: 0x5FC, symBinAddr: 0x12B54, symSize: 0x4C }
  - { offset: 0x5402A, size: 0x8, addend: 0x0, symName: __ZN4core3ops8function6FnOnce9call_once17h5f240c21b72bc890E, symObjAddr: 0x648, symBinAddr: 0x12BA0, symSize: 0x24 }
  - { offset: 0x5406E, size: 0x8, addend: 0x0, symName: __ZN4core3ops8function6FnOnce9call_once17h6201b6b8ad480e0aE, symObjAddr: 0x66C, symBinAddr: 0x12BC4, symSize: 0x24 }
  - { offset: 0x540B2, size: 0x8, addend: 0x0, symName: __ZN4core3ops8function6FnOnce9call_once17h682d80d291b725daE, symObjAddr: 0x690, symBinAddr: 0x12BE8, symSize: 0x24 }
  - { offset: 0x540F6, size: 0x8, addend: 0x0, symName: __ZN4core3ops8function6FnOnce9call_once17h76f9160ee246bb1aE, symObjAddr: 0x6B4, symBinAddr: 0x12C0C, symSize: 0x4C }
  - { offset: 0x5413A, size: 0x8, addend: 0x0, symName: __ZN4core3ops8function6FnOnce9call_once17h80d035d03d2782a2E, symObjAddr: 0x700, symBinAddr: 0x12C58, symSize: 0x24 }
  - { offset: 0x5417E, size: 0x8, addend: 0x0, symName: __ZN4core3ops8function6FnOnce9call_once17h85b42828e315f47fE, symObjAddr: 0x724, symBinAddr: 0x12C7C, symSize: 0x40 }
  - { offset: 0x541C2, size: 0x8, addend: 0x0, symName: __ZN4core3ops8function6FnOnce9call_once17h881ca4a7e468128cE, symObjAddr: 0x764, symBinAddr: 0x12CBC, symSize: 0x44 }
  - { offset: 0x54206, size: 0x8, addend: 0x0, symName: __ZN4core3ops8function6FnOnce9call_once17h9c0953d5e5bf9687E, symObjAddr: 0x7A8, symBinAddr: 0x12D00, symSize: 0x24 }
  - { offset: 0x5424A, size: 0x8, addend: 0x0, symName: __ZN4core3ops8function6FnOnce9call_once17ha04d6d0364ef39c0E, symObjAddr: 0x7CC, symBinAddr: 0x12D24, symSize: 0x3C }
  - { offset: 0x5428E, size: 0x8, addend: 0x0, symName: __ZN4core3ops8function6FnOnce9call_once17hab0b4bbf748a8073E, symObjAddr: 0x808, symBinAddr: 0x12D60, symSize: 0x24 }
  - { offset: 0x542D2, size: 0x8, addend: 0x0, symName: __ZN4core3ops8function6FnOnce9call_once17hb65256e5a458772fE, symObjAddr: 0x82C, symBinAddr: 0x12D84, symSize: 0x24 }
  - { offset: 0x54316, size: 0x8, addend: 0x0, symName: __ZN4core3ops8function6FnOnce9call_once17hbb7f6a59f67fcee3E, symObjAddr: 0x874, symBinAddr: 0x12DA8, symSize: 0x24 }
  - { offset: 0x5435A, size: 0x8, addend: 0x0, symName: __ZN4core3ops8function6FnOnce9call_once17hbf464c962675c965E, symObjAddr: 0x898, symBinAddr: 0x12DCC, symSize: 0x54 }
  - { offset: 0x5439E, size: 0x8, addend: 0x0, symName: __ZN4core3ops8function6FnOnce9call_once17hc9fec56dd719c801E, symObjAddr: 0x8EC, symBinAddr: 0x12E20, symSize: 0x3C }
  - { offset: 0x543E2, size: 0x8, addend: 0x0, symName: __ZN4core3ops8function6FnOnce9call_once17hf8ac1cdcd051d8e8E, symObjAddr: 0x928, symBinAddr: 0x12E5C, symSize: 0x2C }
  - { offset: 0x54426, size: 0x8, addend: 0x0, symName: __ZN4core3ops8function6FnOnce9call_once17hfc6abcae2ef5bda4E, symObjAddr: 0x954, symBinAddr: 0x12E88, symSize: 0x24 }
  - { offset: 0x546EF, size: 0x8, addend: 0x0, symName: '__ZN95_$LT$core..slice..sort..stable..merge..MergeState$LT$T$GT$$u20$as$u20$core..ops..drop..Drop$GT$4drop17h0cbbbfc39c0cca33E', symObjAddr: 0x2704, symBinAddr: 0x14784, symSize: 0xF4 }
  - { offset: 0x547E5, size: 0x8, addend: 0x0, symName: '__ZN95_$LT$core..slice..sort..stable..merge..MergeState$LT$T$GT$$u20$as$u20$core..ops..drop..Drop$GT$4drop17h6358ee69ffd8202fE', symObjAddr: 0x27F8, symBinAddr: 0x14878, symSize: 0xF4 }
  - { offset: 0x54959, size: 0x8, addend: 0x0, symName: '__ZN99_$LT$core..slice..sort..shared..smallsort..CopyOnDrop$LT$T$GT$$u20$as$u20$core..ops..drop..Drop$GT$4drop17h693ef92022d37675E', symObjAddr: 0x2AF4, symBinAddr: 0x14B3C, symSize: 0x8C }
  - { offset: 0x549BA, size: 0x8, addend: 0x0, symName: '__ZN99_$LT$core..slice..sort..shared..smallsort..CopyOnDrop$LT$T$GT$$u20$as$u20$core..ops..drop..Drop$GT$4drop17h69438c34138bfea8E', symObjAddr: 0x2B80, symBinAddr: 0x14BC8, symSize: 0x8C }
  - { offset: 0x55BD9, size: 0x8, addend: 0x0, symName: '__ZN157_$LT$$LT$alloc..vec..into_iter..IntoIter$LT$T$C$A$GT$$u20$as$u20$core..ops..drop..Drop$GT$..drop..DropGuard$LT$T$C$A$GT$$u20$as$u20$core..ops..drop..Drop$GT$4drop17h2c75a8afc160eba3E', symObjAddr: 0x0, symBinAddr: 0x12558, symSize: 0x7C }
  - { offset: 0x55CEE, size: 0x8, addend: 0x0, symName: '__ZN157_$LT$$LT$alloc..vec..into_iter..IntoIter$LT$T$C$A$GT$$u20$as$u20$core..ops..drop..Drop$GT$..drop..DropGuard$LT$T$C$A$GT$$u20$as$u20$core..ops..drop..Drop$GT$4drop17h73eac99b87e05475E', symObjAddr: 0x7C, symBinAddr: 0x125D4, symSize: 0x7C }
  - { offset: 0x55E53, size: 0x8, addend: 0x0, symName: '__ZN86_$LT$alloc..vec..into_iter..IntoIter$LT$T$C$A$GT$$u20$as$u20$core..ops..drop..Drop$GT$4drop17h40aee2de801f531eE', symObjAddr: 0x25D4, symBinAddr: 0x14654, symSize: 0x98 }
  - { offset: 0x55EED, size: 0x8, addend: 0x0, symName: '__ZN86_$LT$alloc..vec..into_iter..IntoIter$LT$T$C$A$GT$$u20$as$u20$core..ops..drop..Drop$GT$4drop17hc438b93888b12e45E', symObjAddr: 0x266C, symBinAddr: 0x146EC, symSize: 0x98 }
  - { offset: 0x560FD, size: 0x8, addend: 0x0, symName: '__ZN70_$LT$alloc..vec..Vec$LT$T$C$A$GT$$u20$as$u20$core..ops..drop..Drop$GT$4drop17h8a9a5ced5a7d8fabE', symObjAddr: 0x1ED8, symBinAddr: 0x1412C, symSize: 0x38 }
  - { offset: 0x561AD, size: 0x8, addend: 0x0, symName: '__ZN70_$LT$alloc..vec..Vec$LT$T$C$A$GT$$u20$as$u20$core..ops..drop..Drop$GT$4drop17hbbd2ab5f2c23dbb8E', symObjAddr: 0x1F34, symBinAddr: 0x14164, symSize: 0x38 }
  - { offset: 0x565F5, size: 0x8, addend: 0x0, symName: '__ZN77_$LT$alloc..raw_vec..RawVec$LT$T$C$A$GT$$u20$as$u20$core..ops..drop..Drop$GT$4drop17h1839686d8f9f848dE', symObjAddr: 0x253C, symBinAddr: 0x145EC, symSize: 0x34 }
  - { offset: 0x56631, size: 0x8, addend: 0x0, symName: '__ZN77_$LT$alloc..raw_vec..RawVec$LT$T$C$A$GT$$u20$as$u20$core..ops..drop..Drop$GT$4drop17hf016c7c81cf5de46E', symObjAddr: 0x25A0, symBinAddr: 0x14620, symSize: 0x34 }
  - { offset: 0x566F3, size: 0x8, addend: 0x0, symName: '__ZN174_$LT$$LT$alloc..collections..btree..map..IntoIter$LT$K$C$V$C$A$GT$$u20$as$u20$core..ops..drop..Drop$GT$..drop..DropGuard$LT$K$C$V$C$A$GT$$u20$as$u20$core..ops..drop..Drop$GT$4drop17h408bda29015a4206E', symObjAddr: 0xF8, symBinAddr: 0x12650, symSize: 0x64 }
  - { offset: 0x56756, size: 0x8, addend: 0x0, symName: '__ZN174_$LT$$LT$alloc..collections..btree..map..IntoIter$LT$K$C$V$C$A$GT$$u20$as$u20$core..ops..drop..Drop$GT$..drop..DropGuard$LT$K$C$V$C$A$GT$$u20$as$u20$core..ops..drop..Drop$GT$4drop17h5f04f7f79273f1dcE', symObjAddr: 0x15C, symBinAddr: 0x126B4, symSize: 0x64 }
  - { offset: 0x5681B, size: 0x8, addend: 0x0, symName: '__ZN99_$LT$alloc..collections..btree..map..IntoIter$LT$K$C$V$C$A$GT$$u20$as$u20$core..ops..drop..Drop$GT$4drop17h002c3d03bfc59cdcE', symObjAddr: 0x29BC, symBinAddr: 0x14A04, symSize: 0x9C }
  - { offset: 0x5688C, size: 0x8, addend: 0x0, symName: '__ZN99_$LT$alloc..collections..btree..map..IntoIter$LT$K$C$V$C$A$GT$$u20$as$u20$core..ops..drop..Drop$GT$4drop17h6e2e0ef30709d546E', symObjAddr: 0x2A58, symBinAddr: 0x14AA0, symSize: 0x9C }
  - { offset: 0x5699F, size: 0x8, addend: 0x0, symName: '__ZN99_$LT$alloc..collections..btree..map..BTreeMap$LT$K$C$V$C$A$GT$$u20$as$u20$core..ops..drop..Drop$GT$4drop17h49fd8e8fb5b13e45E', symObjAddr: 0x2924, symBinAddr: 0x1496C, symSize: 0x4C }
  - { offset: 0x56A1C, size: 0x8, addend: 0x0, symName: '__ZN99_$LT$alloc..collections..btree..map..BTreeMap$LT$K$C$V$C$A$GT$$u20$as$u20$core..ops..drop..Drop$GT$4drop17hc5b2f38fccb89644E', symObjAddr: 0x2970, symBinAddr: 0x149B8, symSize: 0x4C }
  - { offset: 0x56B4B, size: 0x8, addend: 0x0, symName: '__ZN280_$LT$alloc..collections..btree..node..Handle$LT$alloc..collections..btree..node..NodeRef$LT$alloc..collections..btree..node..marker..Dying$C$K$C$V$C$NodeType$GT$$C$alloc..collections..btree..node..marker..KV$GT$..drop_key_val..Dropper$LT$T$GT$$u20$as$u20$core..ops..drop..Drop$GT$4drop17hbaf277d3a894764aE', symObjAddr: 0x1C0, symBinAddr: 0x12718, symSize: 0x2C }
  - { offset: 0x56B9C, size: 0x8, addend: 0x0, symName: '__ZN280_$LT$alloc..collections..btree..node..Handle$LT$alloc..collections..btree..node..NodeRef$LT$alloc..collections..btree..node..marker..Dying$C$K$C$V$C$NodeType$GT$$C$alloc..collections..btree..node..marker..KV$GT$..drop_key_val..Dropper$LT$T$GT$$u20$as$u20$core..ops..drop..Drop$GT$4drop17he1ae28f5324a4baaE', symObjAddr: 0x1EC, symBinAddr: 0x12744, symSize: 0x2C }
  - { offset: 0x57478, size: 0x8, addend: 0x0, symName: '__ZN72_$LT$alloc..boxed..Box$LT$T$C$A$GT$$u20$as$u20$core..ops..drop..Drop$GT$4drop17h3d816a06f997b53bE', symObjAddr: 0x207C, symBinAddr: 0x141F4, symSize: 0xB8 }
  - { offset: 0x575B3, size: 0x8, addend: 0x0, symName: '__ZN72_$LT$alloc..boxed..Box$LT$T$C$A$GT$$u20$as$u20$core..ops..drop..Drop$GT$4drop17hc95140815c4db181E', symObjAddr: 0x2134, symBinAddr: 0x142AC, symSize: 0xB8 }
  - { offset: 0x579CB, size: 0x8, addend: 0x0, symName: '__ZN69_$LT$pyo3..instance..Py$LT$T$GT$$u20$as$u20$core..ops..drop..Drop$GT$4drop17h8a1b46fd1024b321E', symObjAddr: 0x1E88, symBinAddr: 0x140DC, symSize: 0x28 }
  - { offset: 0x579FE, size: 0x8, addend: 0x0, symName: '__ZN69_$LT$pyo3..instance..Py$LT$T$GT$$u20$as$u20$core..ops..drop..Drop$GT$4drop17hae1b2fdf30dd9d8bE', symObjAddr: 0x1EB0, symBinAddr: 0x14104, symSize: 0x28 }
  - { offset: 0x57A37, size: 0x8, addend: 0x0, symName: '__ZN72_$LT$pyo3..instance..Bound$LT$T$GT$$u20$as$u20$core..ops..drop..Drop$GT$4drop17ha641aa248ffada4cE', symObjAddr: 0x21EC, symBinAddr: 0x14364, symSize: 0x144 }
  - { offset: 0x57A88, size: 0x8, addend: 0x0, symName: '__ZN72_$LT$pyo3..instance..Bound$LT$T$GT$$u20$as$u20$core..ops..drop..Drop$GT$4drop17hbc8c717fe71412eaE', symObjAddr: 0x2330, symBinAddr: 0x144A8, symSize: 0x144 }
  - { offset: 0x57E6F, size: 0x8, addend: 0x0, symName: '__ZN70_$LT$pyo3..pycell..PyRef$LT$T$GT$$u20$as$u20$core..ops..drop..Drop$GT$4drop17h063f6038fa408c47E', symObjAddr: 0x1F6C, symBinAddr: 0x1419C, symSize: 0x2C }
  - { offset: 0x57EA2, size: 0x8, addend: 0x0, symName: '__ZN70_$LT$pyo3..pycell..PyRef$LT$T$GT$$u20$as$u20$core..ops..drop..Drop$GT$4drop17hd5e4256e09b340f2E', symObjAddr: 0x1F98, symBinAddr: 0x141C8, symSize: 0x2C }
  - { offset: 0x5A066, size: 0x8, addend: 0x0, symName: __ZN4pyo35impl_10trampoline10trampoline17h06ced8921dd8916aE, symObjAddr: 0x0, symBinAddr: 0x14C54, symSize: 0x160 }
  - { offset: 0x5B62C, size: 0x8, addend: 0x0, symName: __ZN4pyo35impl_10trampoline10trampoline17h06ced8921dd8916aE, symObjAddr: 0x0, symBinAddr: 0x14C54, symSize: 0x160 }
  - { offset: 0x5B6D0, size: 0x8, addend: 0x0, symName: __ZN4pyo35impl_10trampoline10trampoline17h2d16a9bb125e2754E, symObjAddr: 0x160, symBinAddr: 0x14DB4, symSize: 0x15C }
  - { offset: 0x5B774, size: 0x8, addend: 0x0, symName: __ZN4pyo35impl_10trampoline10trampoline17h538e98617c8132d4E, symObjAddr: 0x2BC, symBinAddr: 0x14F10, symSize: 0x158 }
  - { offset: 0x5B817, size: 0x8, addend: 0x0, symName: __ZN4pyo35impl_10trampoline10trampoline17ha135c007f3dddf6dE, symObjAddr: 0x414, symBinAddr: 0x15068, symSize: 0x15C }
  - { offset: 0x5B8BB, size: 0x8, addend: 0x0, symName: __ZN4pyo35impl_10trampoline10trampoline17ha2014ad0cd78f89cE, symObjAddr: 0x570, symBinAddr: 0x151C4, symSize: 0x158 }
  - { offset: 0x5B95E, size: 0x8, addend: 0x0, symName: __ZN4pyo35impl_10trampoline10trampoline17hb6f352f1f7d75ea9E, symObjAddr: 0x6C8, symBinAddr: 0x1531C, symSize: 0x14C }
  - { offset: 0x5BA01, size: 0x8, addend: 0x0, symName: __ZN4pyo35impl_10trampoline10trampoline17hfdc25adb478062adE, symObjAddr: 0x814, symBinAddr: 0x15468, symSize: 0x158 }
  - { offset: 0x5BAA9, size: 0x8, addend: 0x0, symName: '__ZN4pyo35impl_10trampoline10trampoline28_$u7b$$u7b$closure$u7d$$u7d$17h64fd1f3e0b9f4a6fE', symObjAddr: 0x96C, symBinAddr: 0x155C0, symSize: 0x2C }
  - { offset: 0x5BAF7, size: 0x8, addend: 0x0, symName: '__ZN4pyo35impl_10trampoline10trampoline28_$u7b$$u7b$closure$u7d$$u7d$17h9847241a765bbb3bE', symObjAddr: 0x998, symBinAddr: 0x155EC, symSize: 0x34 }
  - { offset: 0x5BB46, size: 0x8, addend: 0x0, symName: '__ZN4pyo35impl_10trampoline10trampoline28_$u7b$$u7b$closure$u7d$$u7d$17h9e98b1ed7494b2d6E', symObjAddr: 0x9CC, symBinAddr: 0x15620, symSize: 0x24 }
  - { offset: 0x5BB94, size: 0x8, addend: 0x0, symName: '__ZN4pyo35impl_10trampoline10trampoline28_$u7b$$u7b$closure$u7d$$u7d$17haaf3c1490dbecdedE', symObjAddr: 0x9F0, symBinAddr: 0x15644, symSize: 0x2C }
  - { offset: 0x5BBE2, size: 0x8, addend: 0x0, symName: '__ZN4pyo35impl_10trampoline10trampoline28_$u7b$$u7b$closure$u7d$$u7d$17hc04a4c040ee1382dE', symObjAddr: 0xA1C, symBinAddr: 0x15670, symSize: 0x40 }
  - { offset: 0x5BC31, size: 0x8, addend: 0x0, symName: '__ZN4pyo35impl_10trampoline10trampoline28_$u7b$$u7b$closure$u7d$$u7d$17hcd62d4b0261e0804E', symObjAddr: 0xA5C, symBinAddr: 0x156B0, symSize: 0x2C }
  - { offset: 0x5BC7F, size: 0x8, addend: 0x0, symName: '__ZN4pyo35impl_10trampoline10trampoline28_$u7b$$u7b$closure$u7d$$u7d$17heff8636f7e3326d4E', symObjAddr: 0xA88, symBinAddr: 0x156DC, symSize: 0x34 }
  - { offset: 0x5BCD4, size: 0x8, addend: 0x0, symName: '__ZN4pyo35impl_10trampoline11module_init28_$u7b$$u7b$closure$u7d$$u7d$17hdad86ac9146b0763E', symObjAddr: 0xABC, symBinAddr: 0x15710, symSize: 0x40 }
  - { offset: 0x5BD20, size: 0x8, addend: 0x0, symName: '__ZN4pyo35impl_10trampoline11module_init28_$u7b$$u7b$closure$u7d$$u7d$28_$u7b$$u7b$closure$u7d$$u7d$17h3da3dac6b0e48b88E', symObjAddr: 0xAFC, symBinAddr: 0x15750, symSize: 0x24 }
  - { offset: 0x5BD77, size: 0x8, addend: 0x0, symName: '__ZN4pyo35impl_10trampoline11richcmpfunc28_$u7b$$u7b$closure$u7d$$u7d$17h84aab43b23263a5fE', symObjAddr: 0xB20, symBinAddr: 0x15774, symSize: 0x40 }
  - { offset: 0x5BE23, size: 0x8, addend: 0x0, symName: __ZN4pyo35impl_10trampoline21trampoline_unraisable17hd25f638c136edd0fE, symObjAddr: 0xB60, symBinAddr: 0x157B4, symSize: 0x218 }
  - { offset: 0x5BEC6, size: 0x8, addend: 0x0, symName: '__ZN4pyo35impl_10trampoline21trampoline_unraisable28_$u7b$$u7b$closure$u7d$$u7d$17h2d7f7c168426d4a4E', symObjAddr: 0xD78, symBinAddr: 0x159CC, symSize: 0x5C }
  - { offset: 0x5BF05, size: 0x8, addend: 0x0, symName: '__ZN4pyo35impl_10trampoline21trampoline_unraisable28_$u7b$$u7b$closure$u7d$$u7d$17h9f207f450a0174cdE', symObjAddr: 0xDD4, symBinAddr: 0x15A28, symSize: 0x2C }
  - { offset: 0x5BF57, size: 0x8, addend: 0x0, symName: '__ZN4pyo35impl_10trampoline22fastcall_with_keywords28_$u7b$$u7b$closure$u7d$$u7d$17h6979021a4ba41d9eE', symObjAddr: 0xE00, symBinAddr: 0x15A54, symSize: 0x48 }
  - { offset: 0x5C01E, size: 0x8, addend: 0x0, symName: __ZN4pyo35impl_10trampoline33panic_result_into_callback_output17hcc6c580b5f0a68d0E, symObjAddr: 0xE48, symBinAddr: 0x15A9C, symSize: 0x118 }
  - { offset: 0x5C0E7, size: 0x8, addend: 0x0, symName: '__ZN4pyo35impl_10trampoline6noargs28_$u7b$$u7b$closure$u7d$$u7d$17hc1b85e7b5ccdcf59E', symObjAddr: 0xF60, symBinAddr: 0x15BB4, symSize: 0x34 }
  - { offset: 0x5C164, size: 0x8, addend: 0x0, symName: '__ZN4pyo35impl_10trampoline7dealloc28_$u7b$$u7b$closure$u7d$$u7d$17hb576a0cc9e810c3dE', symObjAddr: 0xF94, symBinAddr: 0x15BE8, symSize: 0x40 }
  - { offset: 0x5C1E1, size: 0x8, addend: 0x0, symName: '__ZN4pyo35impl_10trampoline7lenfunc28_$u7b$$u7b$closure$u7d$$u7d$17h464c64e2e0faf521E', symObjAddr: 0xFD4, symBinAddr: 0x15C28, symSize: 0x34 }
  - { offset: 0x5C25E, size: 0x8, addend: 0x0, symName: '__ZN4pyo35impl_10trampoline7newfunc28_$u7b$$u7b$closure$u7d$$u7d$17h1109260c566d377dE', symObjAddr: 0x1008, symBinAddr: 0x15C5C, symSize: 0x40 }
  - { offset: 0x5C30F, size: 0x8, addend: 0x0, symName: '__ZN4pyo35impl_10trampoline8reprfunc28_$u7b$$u7b$closure$u7d$$u7d$17h97509f05a6b77870E', symObjAddr: 0x1048, symBinAddr: 0x15C9C, symSize: 0x34 }
  - { offset: 0x5CE90, size: 0x8, addend: 0x0, symName: __ZN8pyo3_ffi10boolobject7Py_True17ha8f6f646685ca839E, symObjAddr: 0x0, symBinAddr: 0x15CD0, symSize: 0xC }
  - { offset: 0x5D72E, size: 0x8, addend: 0x0, symName: __ZN8pyo3_ffi10boolobject7Py_True17ha8f6f646685ca839E, symObjAddr: 0x0, symBinAddr: 0x15CD0, symSize: 0xC }
  - { offset: 0x5D74B, size: 0x8, addend: 0x0, symName: __ZN8pyo3_ffi10boolobject8Py_False17hd1be7184b6928d1bE, symObjAddr: 0xC, symBinAddr: 0x15CDC, symSize: 0xC }
  - { offset: 0x5E2EA, size: 0x8, addend: 0x0, symName: '__ZN4core4iter6traits8iterator8Iterator12try_for_each4call28_$u7b$$u7b$closure$u7d$$u7d$17h3dc7ffa37360f861E', symObjAddr: 0x0, symBinAddr: 0x15CE8, symSize: 0x48 }
  - { offset: 0x5E381, size: 0x8, addend: 0x0, symName: '__ZN4core4iter6traits8iterator8Iterator12try_for_each4call28_$u7b$$u7b$closure$u7d$$u7d$17h3dc7ffa37360f861E', symObjAddr: 0x0, symBinAddr: 0x15CE8, symSize: 0x48 }
  - { offset: 0x5EACD, size: 0x8, addend: 0x0, symName: __ZN4core5slice4sort6stable9quicksort16stable_partition17h34ba9c2eca14a484E, symObjAddr: 0x0, symBinAddr: 0x15D30, symSize: 0x4BC }
  - { offset: 0x5FC30, size: 0x8, addend: 0x0, symName: __ZN4core5slice4sort6stable9quicksort16stable_partition17h34ba9c2eca14a484E, symObjAddr: 0x0, symBinAddr: 0x15D30, symSize: 0x4BC }
  - { offset: 0x60101, size: 0x8, addend: 0x0, symName: __ZN4core5slice4sort6stable9quicksort16stable_partition17h42c680d5003b6eb3E, symObjAddr: 0x4BC, symBinAddr: 0x161EC, symSize: 0x4BC }
  - { offset: 0x60545, size: 0x8, addend: 0x0, symName: __ZN4core5slice4sort6stable9quicksort16stable_partition17h9887b3b64abafad9E, symObjAddr: 0x978, symBinAddr: 0x166A8, symSize: 0x4BC }
  - { offset: 0x60989, size: 0x8, addend: 0x0, symName: __ZN4core5slice4sort6stable9quicksort16stable_partition17hdcf702216d73a2fdE, symObjAddr: 0xE34, symBinAddr: 0x16B64, symSize: 0x4BC }
  - { offset: 0x60DCD, size: 0x8, addend: 0x0, symName: __ZN4core5slice4sort6stable9quicksort9quicksort17h22e90e4c84e60ac5E, symObjAddr: 0x1570, symBinAddr: 0x172A0, symSize: 0x3CC }
  - { offset: 0x6107A, size: 0x8, addend: 0x0, symName: __ZN4core5slice4sort6stable9quicksort9quicksort17hdf383df2658286daE, symObjAddr: 0x193C, symBinAddr: 0x1766C, symSize: 0x3CC }
  - { offset: 0x61312, size: 0x8, addend: 0x0, symName: '__ZN4core5slice4sort6stable9quicksort9quicksort28_$u7b$$u7b$closure$u7d$$u7d$17h53b9b5a9f56da868E', symObjAddr: 0x1D08, symBinAddr: 0x17A38, symSize: 0x48 }
  - { offset: 0x6136F, size: 0x8, addend: 0x0, symName: '__ZN4core5slice4sort6stable9quicksort9quicksort28_$u7b$$u7b$closure$u7d$$u7d$17hde0e54b29d4abf29E', symObjAddr: 0x1D50, symBinAddr: 0x17A80, symSize: 0x48 }
  - { offset: 0x61E27, size: 0x8, addend: 0x0, symName: '__ZN4core5slice4sort6stable9quicksort23PartitionState$LT$T$GT$13partition_one17h47616d5f03be964dE', symObjAddr: 0x12F0, symBinAddr: 0x17020, symSize: 0x140 }
  - { offset: 0x61F1D, size: 0x8, addend: 0x0, symName: '__ZN4core5slice4sort6stable9quicksort23PartitionState$LT$T$GT$13partition_one17h91d195d3700dcf4fE', symObjAddr: 0x1430, symBinAddr: 0x17160, symSize: 0x140 }
  - { offset: 0x62295, size: 0x8, addend: 0x0, symName: '__ZN4pyo312pyclass_init27PyClassInitializer$LT$T$GT$19create_class_object17h069734e64ebba703E', symObjAddr: 0x0, symBinAddr: 0x17AC8, symSize: 0x98 }
  - { offset: 0x6410B, size: 0x8, addend: 0x0, symName: '__ZN96_$LT$pyo3..pyclass_init..PyClassInitializer$LT$T$GT$$u20$as$u20$core..convert..From$LT$T$GT$$GT$4from17h51a1900eeb5a30b6E', symObjAddr: 0x898, symBinAddr: 0x18360, symSize: 0x1C }
  - { offset: 0x64141, size: 0x8, addend: 0x0, symName: '__ZN96_$LT$pyo3..pyclass_init..PyClassInitializer$LT$T$GT$$u20$as$u20$core..convert..From$LT$T$GT$$GT$4from17h743f4e13a3fe97f8E', symObjAddr: 0x8B4, symBinAddr: 0x1837C, symSize: 0x1C }
  - { offset: 0x64EF9, size: 0x8, addend: 0x0, symName: '__ZN4pyo312pyclass_init27PyClassInitializer$LT$T$GT$19create_class_object17h069734e64ebba703E', symObjAddr: 0x0, symBinAddr: 0x17AC8, symSize: 0x98 }
  - { offset: 0x64FCF, size: 0x8, addend: 0x0, symName: '__ZN4pyo312pyclass_init27PyClassInitializer$LT$T$GT$19create_class_object17h0b20ccbf1869ec68E', symObjAddr: 0x98, symBinAddr: 0x17B60, symSize: 0x94 }
  - { offset: 0x6508E, size: 0x8, addend: 0x0, symName: '__ZN4pyo312pyclass_init27PyClassInitializer$LT$T$GT$27create_class_object_of_type17h20ed43a0bd4b0186E', symObjAddr: 0x12C, symBinAddr: 0x17BF4, symSize: 0x2F4 }
  - { offset: 0x6529E, size: 0x8, addend: 0x0, symName: '__ZN4pyo312pyclass_init27PyClassInitializer$LT$T$GT$27create_class_object_of_type17h4e28a2b556adbb9fE', symObjAddr: 0x420, symBinAddr: 0x17EE8, symSize: 0x2BC }
  - { offset: 0x65486, size: 0x8, addend: 0x0, symName: '__ZN4pyo312pyclass_init27PyClassInitializer$LT$T$GT$3new17h70698f81d91d3b96E', symObjAddr: 0x6DC, symBinAddr: 0x181A4, symSize: 0xE8 }
  - { offset: 0x654C0, size: 0x8, addend: 0x0, symName: '__ZN4pyo312pyclass_init27PyClassInitializer$LT$T$GT$3new17hc5f0605afac6cef9E', symObjAddr: 0x7C4, symBinAddr: 0x1828C, symSize: 0xD4 }
  - { offset: 0x65518, size: 0x8, addend: 0x0, symName: '__ZN106_$LT$pyo3..impl_..extract_argument..NoVarargs$u20$as$u20$pyo3..impl_..extract_argument..VarargsHandler$GT$20handle_varargs_tuple17hea0e7d5d24b77463E', symObjAddr: 0x0, symBinAddr: 0x18398, symSize: 0xA0 }
  - { offset: 0x66D8D, size: 0x8, addend: 0x0, symName: '__ZN106_$LT$pyo3..impl_..extract_argument..NoVarargs$u20$as$u20$pyo3..impl_..extract_argument..VarargsHandler$GT$20handle_varargs_tuple17hea0e7d5d24b77463E', symObjAddr: 0x0, symBinAddr: 0x18398, symSize: 0xA0 }
  - { offset: 0x66E06, size: 0x8, addend: 0x0, symName: '__ZN106_$LT$pyo3..impl_..extract_argument..NoVarargs$u20$as$u20$pyo3..impl_..extract_argument..VarargsHandler$GT$23handle_varargs_fastcall17h8021a5ea4c11d385E', symObjAddr: 0xA0, symBinAddr: 0x18438, symSize: 0xB4 }
  - { offset: 0x66E7A, size: 0x8, addend: 0x0, symName: '__ZN114_$LT$pyo3..impl_..extract_argument..NoVarkeywords$u20$as$u20$pyo3..impl_..extract_argument..VarkeywordsHandler$GT$17handle_varkeyword17h35da4b2a9233c0bcE', symObjAddr: 0x154, symBinAddr: 0x184EC, symSize: 0x6C }
  - { offset: 0x66FB9, size: 0x8, addend: 0x0, symName: __ZN4pyo35impl_16extract_argument24unwrap_required_argument17h4ea80551c7a43943E, symObjAddr: 0x574, symBinAddr: 0x1890C, symSize: 0x64 }
  - { offset: 0x673CE, size: 0x8, addend: 0x0, symName: __ZN4pyo35impl_16extract_argument19FunctionDescription36find_keyword_parameter_in_positional17h7530161918f4e45eE, symObjAddr: 0x1C0, symBinAddr: 0x18558, symSize: 0x5C }
  - { offset: 0x67400, size: 0x8, addend: 0x0, symName: __ZN4pyo35impl_16extract_argument19FunctionDescription38find_keyword_parameter_in_keyword_only17ha959a62ec1554f29E, symObjAddr: 0x21C, symBinAddr: 0x185B4, symSize: 0x5C }
  - { offset: 0x67AB4, size: 0x8, addend: 0x0, symName: __ZN4pyo35impl_16extract_argument19FunctionDescription44ensure_no_missing_required_keyword_arguments17h2f2c9be1a342b369E, symObjAddr: 0x278, symBinAddr: 0x18610, symSize: 0x160 }
  - { offset: 0x67B80, size: 0x8, addend: 0x0, symName: __ZN4pyo35impl_16extract_argument19FunctionDescription47ensure_no_missing_required_positional_arguments17h08389c438ef3493aE, symObjAddr: 0x3D8, symBinAddr: 0x18770, symSize: 0x19C }
  - { offset: 0x67D15, size: 0x8, addend: 0x0, symName: '__ZN104_$LT$$RF$zcash_zip321..Payment$u20$as$u20$pyo3..impl_..extract_argument..PyFunctionArgument$LT$_$GT$$GT$7extract17h546b2076037a0006E', symObjAddr: 0x0, symBinAddr: 0x18970, symSize: 0x2C }
  - { offset: 0x67D3E, size: 0x8, addend: 0x0, symName: __ZN12zcash_zip32110ParseError15type_object_raw11TYPE_OBJECT17hb0a85697af894ed9E, symObjAddr: 0x6890, symBinAddr: 0x1983F8, symSize: 0x0 }
  - { offset: 0x67D64, size: 0x8, addend: 0x0, symName: __ZN12zcash_zip32111Zip321Error15type_object_raw11TYPE_OBJECT17hcf3823dab78542a3E, symObjAddr: 0x68A0, symBinAddr: 0x198408, symSize: 0x0 }
  - { offset: 0x67D8A, size: 0x8, addend: 0x0, symName: '__ZN12zcash_zip321162_$LT$impl$u20$pyo3..impl_..pyclass..PyMethods$LT$zcash_zip321..Payment$GT$$u20$for$u20$pyo3..impl_..pyclass..PyClassImplCollector$LT$zcash_zip321..Payment$GT$$GT$10py_methods5ITEMS17h1bef7d6ebc5f1f81E', symObjAddr: 0x7270, symBinAddr: 0x188E90, symSize: 0x0 }
  - { offset: 0x67D9C, size: 0x8, addend: 0x0, symName: '__ZN12zcash_zip321162_$LT$impl$u20$pyo3..impl_..pyclass..PyMethods$LT$zcash_zip321..Payment$GT$$u20$for$u20$pyo3..impl_..pyclass..PyClassImplCollector$LT$zcash_zip321..Payment$GT$$GT$10py_methods5ITEMS10trampoline17h31dd75dc892901c8E', symObjAddr: 0xEA4, symBinAddr: 0x19814, symSize: 0x3C }
  - { offset: 0x67DC8, size: 0x8, addend: 0x0, symName: '__ZN12zcash_zip321162_$LT$impl$u20$pyo3..impl_..pyclass..PyMethods$LT$zcash_zip321..Payment$GT$$u20$for$u20$pyo3..impl_..pyclass..PyClassImplCollector$LT$zcash_zip321..Payment$GT$$GT$10py_methods5ITEMS10trampoline17hec754fe58a0ed772E', symObjAddr: 0xEE0, symBinAddr: 0x19850, symSize: 0x4C }
  - { offset: 0x67E2A, size: 0x8, addend: 0x0, symName: __ZN12zcash_zip32116MemoTooLongError15type_object_raw11TYPE_OBJECT17h6102d98bc9ddf1c6E, symObjAddr: 0x68B0, symBinAddr: 0x198418, symSize: 0x0 }
  - { offset: 0x67E51, size: 0x8, addend: 0x0, symName: '__ZN12zcash_zip321184_$LT$impl$u20$pyo3..impl_..pyclass..PyMethods$LT$zcash_zip321..TransactionRequest$GT$$u20$for$u20$pyo3..impl_..pyclass..PyClassImplCollector$LT$zcash_zip321..TransactionRequest$GT$$GT$10py_methods5ITEMS17hdfd94de64f7672e2E', symObjAddr: 0x7490, symBinAddr: 0x1890B0, symSize: 0x0 }
  - { offset: 0x67E63, size: 0x8, addend: 0x0, symName: '__ZN12zcash_zip321184_$LT$impl$u20$pyo3..impl_..pyclass..PyMethods$LT$zcash_zip321..TransactionRequest$GT$$u20$for$u20$pyo3..impl_..pyclass..PyClassImplCollector$LT$zcash_zip321..TransactionRequest$GT$$GT$10py_methods5ITEMS10trampoline17h0d890f2022ee4754E', symObjAddr: 0x1598, symBinAddr: 0x19F08, symSize: 0x50 }
  - { offset: 0x67EBE, size: 0x8, addend: 0x0, symName: '__ZN12zcash_zip321184_$LT$impl$u20$pyo3..impl_..pyclass..PyMethods$LT$zcash_zip321..TransactionRequest$GT$$u20$for$u20$pyo3..impl_..pyclass..PyClassImplCollector$LT$zcash_zip321..TransactionRequest$GT$$GT$10py_methods5ITEMS10trampoline17h171cb01f5fb5f653E', symObjAddr: 0x15E8, symBinAddr: 0x19F58, symSize: 0x44 }
  - { offset: 0x67EFB, size: 0x8, addend: 0x0, symName: '__ZN12zcash_zip321184_$LT$impl$u20$pyo3..impl_..pyclass..PyMethods$LT$zcash_zip321..TransactionRequest$GT$$u20$for$u20$pyo3..impl_..pyclass..PyClassImplCollector$LT$zcash_zip321..TransactionRequest$GT$$GT$10py_methods5ITEMS10trampoline17h87a56e69d309ccdcE', symObjAddr: 0x162C, symBinAddr: 0x19F9C, symSize: 0x44 }
  - { offset: 0x67F38, size: 0x8, addend: 0x0, symName: '__ZN12zcash_zip321184_$LT$impl$u20$pyo3..impl_..pyclass..PyMethods$LT$zcash_zip321..TransactionRequest$GT$$u20$for$u20$pyo3..impl_..pyclass..PyClassImplCollector$LT$zcash_zip321..TransactionRequest$GT$$GT$10py_methods5ITEMS10trampoline17hbc77717690fd70b2E', symObjAddr: 0x1670, symBinAddr: 0x19FE0, symSize: 0x4C }
  - { offset: 0x67F84, size: 0x8, addend: 0x0, symName: '__ZN12zcash_zip321184_$LT$impl$u20$pyo3..impl_..pyclass..PyMethods$LT$zcash_zip321..TransactionRequest$GT$$u20$for$u20$pyo3..impl_..pyclass..PyClassImplCollector$LT$zcash_zip321..TransactionRequest$GT$$GT$10py_methods5ITEMS10trampoline17he50e3956883a0f4fE', symObjAddr: 0x16BC, symBinAddr: 0x1A02C, symSize: 0x3C }
  - { offset: 0x67FB2, size: 0x8, addend: 0x0, symName: '__ZN12zcash_zip321184_$LT$impl$u20$pyo3..impl_..pyclass..PyMethods$LT$zcash_zip321..TransactionRequest$GT$$u20$for$u20$pyo3..impl_..pyclass..PyClassImplCollector$LT$zcash_zip321..TransactionRequest$GT$$GT$10py_methods5ITEMS10trampoline17he5b340346938d716E', symObjAddr: 0x16F8, symBinAddr: 0x1A068, symSize: 0x44 }
  - { offset: 0x67FEF, size: 0x8, addend: 0x0, symName: '__ZN12zcash_zip321184_$LT$impl$u20$pyo3..impl_..pyclass..PyMethods$LT$zcash_zip321..TransactionRequest$GT$$u20$for$u20$pyo3..impl_..pyclass..PyClassImplCollector$LT$zcash_zip321..TransactionRequest$GT$$GT$10py_methods5ITEMS10trampoline17headc43daf8f3f7e8E', symObjAddr: 0x173C, symBinAddr: 0x1A0AC, symSize: 0x44 }
  - { offset: 0x6802C, size: 0x8, addend: 0x0, symName: '__ZN12zcash_zip321184_$LT$impl$u20$pyo3..impl_..pyclass..PyMethods$LT$zcash_zip321..TransactionRequest$GT$$u20$for$u20$pyo3..impl_..pyclass..PyClassImplCollector$LT$zcash_zip321..TransactionRequest$GT$$GT$10py_methods5ITEMS10trampoline17hf45b6f88957d5bd1E', symObjAddr: 0x1780, symBinAddr: 0x1A0F0, symSize: 0x3C }
  - { offset: 0x68074, size: 0x8, addend: 0x0, symName: __ZN12zcash_zip32118InvalidBase64Error15type_object_raw11TYPE_OBJECT17h4533b30f4bfa4dccE, symObjAddr: 0x68C0, symBinAddr: 0x198428, symSize: 0x0 }
  - { offset: 0x6809A, size: 0x8, addend: 0x0, symName: __ZN12zcash_zip32119InvalidAddressError15type_object_raw11TYPE_OBJECT17h06ed32d695791241E, symObjAddr: 0x68D0, symBinAddr: 0x198438, symSize: 0x0 }
  - { offset: 0x680C0, size: 0x8, addend: 0x0, symName: __ZN12zcash_zip32119InvalidPaymentError15type_object_raw11TYPE_OBJECT17h05dae1757deaef26E, symObjAddr: 0x68E0, symBinAddr: 0x198448, symSize: 0x0 }
  - { offset: 0x680E6, size: 0x8, addend: 0x0, symName: __ZN12zcash_zip32120TooManyPaymentsError15type_object_raw11TYPE_OBJECT17ha833314e1d2b426fE, symObjAddr: 0x68F0, symBinAddr: 0x198458, symSize: 0x0 }
  - { offset: 0x6810C, size: 0x8, addend: 0x0, symName: __ZN12zcash_zip32120TransparentMemoError15type_object_raw11TYPE_OBJECT17ha6824f933e886232E, symObjAddr: 0x6900, symBinAddr: 0x198468, symSize: 0x0 }
  - { offset: 0x68132, size: 0x8, addend: 0x0, symName: __ZN12zcash_zip32121RecipientMissingError15type_object_raw11TYPE_OBJECT17h8141c238a5e24ec6E, symObjAddr: 0x6910, symBinAddr: 0x198478, symSize: 0x0 }
  - { offset: 0x68158, size: 0x8, addend: 0x0, symName: '__ZN75_$LT$zcash_zip321..Payment$u20$as$u20$pyo3..impl_..pyclass..PyClassImpl$GT$10items_iter15INTRINSIC_ITEMS17h27f2da203d348f32E', symObjAddr: 0x7C00, symBinAddr: 0x125250, symSize: 0x0 }
  - { offset: 0x68178, size: 0x8, addend: 0x0, symName: '__ZN75_$LT$zcash_zip321..Payment$u20$as$u20$pyo3..impl_..pyclass..PyClassImpl$GT$16lazy_type_object11TYPE_OBJECT17ha52fc33c40c078c8E', symObjAddr: 0x6920, symBinAddr: 0x198488, symSize: 0x0 }
  - { offset: 0x68198, size: 0x8, addend: 0x0, symName: '__ZN75_$LT$zcash_zip321..Payment$u20$as$u20$pyo3..impl_..pyclass..PyClassImpl$GT$3doc3DOC17h6c0e5f530a753becE', symObjAddr: 0x6978, symBinAddr: 0x1984E0, symSize: 0x0 }
  - { offset: 0x681A6, size: 0x8, addend: 0x0, symName: '__ZN75_$LT$zcash_zip321..Payment$u20$as$u20$pyo3..impl_..pyclass..PyClassImpl$GT$10items_iter17h01857c3a2f291451E', symObjAddr: 0x5C74, symBinAddr: 0x1E5E4, symSize: 0x38 }
  - { offset: 0x681E1, size: 0x8, addend: 0x0, symName: '__ZN75_$LT$zcash_zip321..Payment$u20$as$u20$pyo3..impl_..pyclass..PyClassImpl$GT$16lazy_type_object17h8683d003e9c5aad3E', symObjAddr: 0x5CAC, symBinAddr: 0x1E61C, symSize: 0xC }
  - { offset: 0x681FE, size: 0x8, addend: 0x0, symName: '__ZN75_$LT$zcash_zip321..Payment$u20$as$u20$pyo3..impl_..pyclass..PyClassImpl$GT$3doc17h37518711bd9d1a34E', symObjAddr: 0x5CB8, symBinAddr: 0x1E628, symSize: 0x3C }
  - { offset: 0x684F1, size: 0x8, addend: 0x0, symName: '__ZN86_$LT$zcash_zip321..TransactionRequest$u20$as$u20$pyo3..impl_..pyclass..PyClassImpl$GT$10items_iter15INTRINSIC_ITEMS17h76fe35bebbbc6f7dE', symObjAddr: 0x7C20, symBinAddr: 0x125270, symSize: 0x0 }
  - { offset: 0x68512, size: 0x8, addend: 0x0, symName: '__ZN86_$LT$zcash_zip321..TransactionRequest$u20$as$u20$pyo3..impl_..pyclass..PyClassImpl$GT$16lazy_type_object11TYPE_OBJECT17h89184fcb9d4085cbE', symObjAddr: 0x6998, symBinAddr: 0x198500, symSize: 0x0 }
  - { offset: 0x68533, size: 0x8, addend: 0x0, symName: '__ZN86_$LT$zcash_zip321..TransactionRequest$u20$as$u20$pyo3..impl_..pyclass..PyClassImpl$GT$3doc3DOC17h0ab506ac24032085E', symObjAddr: 0x69F0, symBinAddr: 0x198558, symSize: 0x0 }
  - { offset: 0x68541, size: 0x8, addend: 0x0, symName: '__ZN86_$LT$zcash_zip321..TransactionRequest$u20$as$u20$pyo3..impl_..pyclass..PyClassImpl$GT$10items_iter17hddb00adbdc5605c3E', symObjAddr: 0x5E14, symBinAddr: 0x1E784, symSize: 0x38 }
  - { offset: 0x6857E, size: 0x8, addend: 0x0, symName: '__ZN86_$LT$zcash_zip321..TransactionRequest$u20$as$u20$pyo3..impl_..pyclass..PyClassImpl$GT$16lazy_type_object17h0560c1dee5ba9198E', symObjAddr: 0x5E4C, symBinAddr: 0x1E7BC, symSize: 0xC }
  - { offset: 0x6859C, size: 0x8, addend: 0x0, symName: '__ZN86_$LT$zcash_zip321..TransactionRequest$u20$as$u20$pyo3..impl_..pyclass..PyClassImpl$GT$3doc17hdbb66ab33e731df8E', symObjAddr: 0x5E58, symBinAddr: 0x1E7C8, symSize: 0x3C }
  - { offset: 0x68792, size: 0x8, addend: 0x0, symName: '__ZN104_$LT$$RF$zcash_zip321..Payment$u20$as$u20$pyo3..impl_..extract_argument..PyFunctionArgument$LT$_$GT$$GT$7extract17h546b2076037a0006E', symObjAddr: 0x0, symBinAddr: 0x18970, symSize: 0x2C }
  - { offset: 0x68821, size: 0x8, addend: 0x0, symName: __ZN12zcash_zip32112zcash_zip32117h9553575d50a81a51E, symObjAddr: 0x648, symBinAddr: 0x18FB8, symSize: 0x75C }
  - { offset: 0x68A3F, size: 0x8, addend: 0x0, symName: __ZN12zcash_zip32114memo_to_base6417h764b2c7332fb0845E, symObjAddr: 0xDA4, symBinAddr: 0x19714, symSize: 0x100 }
  - { offset: 0x68AEA, size: 0x8, addend: 0x0, symName: __ZN12zcash_zip32116memo_from_base6417hc69588e0aaac6869E, symObjAddr: 0xFA0, symBinAddr: 0x19910, symSize: 0x220 }
  - { offset: 0x68C50, size: 0x8, addend: 0x0, symName: __ZN12zcash_zip32116zip321_err_to_py17hcafbcf51552c51fdE, symObjAddr: 0x11C0, symBinAddr: 0x19B30, symSize: 0x3D8 }
  - { offset: 0x68FD0, size: 0x8, addend: 0x0, symName: __ZN12zcash_zip32127__pyfunction_memo_to_base6417h8d71e9ec6ff063c7E, symObjAddr: 0x3684, symBinAddr: 0x1BFF4, symSize: 0x2E4 }
  - { offset: 0x69155, size: 0x8, addend: 0x0, symName: __ZN12zcash_zip32129__pyfunction_memo_from_base6417h1a407c9eb2d4b9baE, symObjAddr: 0x3968, symBinAddr: 0x1C2D8, symSize: 0x2E4 }
  - { offset: 0x692E4, size: 0x8, addend: 0x0, symName: '__ZN12zcash_zip32153_$LT$impl$u20$zcash_zip321..zcash_zip321..MakeDef$GT$8make_def15__pyo3_pymodule17h6edd8a7d722b8500E', symObjAddr: 0x3C4C, symBinAddr: 0x1C5BC, symSize: 0x38 }
  - { offset: 0x6931E, size: 0x8, addend: 0x0, symName: '__ZN12zcash_zip32155_$LT$impl$u20$zcash_zip321..memo_to_base64..MakeDef$GT$9_PYO3_DEF10trampoline17hac2d1979d9cacb02E', symObjAddr: 0x3C84, symBinAddr: 0x1C5F4, symSize: 0x50 }
  - { offset: 0x69385, size: 0x8, addend: 0x0, symName: '__ZN12zcash_zip32157_$LT$impl$u20$zcash_zip321..memo_from_base64..MakeDef$GT$9_PYO3_DEF10trampoline17h89e522d855824bbeE', symObjAddr: 0x3CD4, symBinAddr: 0x1C644, symSize: 0x50 }
  - { offset: 0x693E7, size: 0x8, addend: 0x0, symName: '__ZN64_$LT$zcash_zip321..PaymentData$u20$as$u20$core..clone..Clone$GT$5clone17h7b903c6b73e98d09E', symObjAddr: 0x5ADC, symBinAddr: 0x1E44C, symSize: 0x13C }
  - { offset: 0x69419, size: 0x8, addend: 0x0, symName: '__ZN71_$LT$zcash_zip321..Payment$u20$as$u20$pyo3..type_object..PyTypeInfo$GT$15type_object_raw17h86209be2831d079fE', symObjAddr: 0x5C18, symBinAddr: 0x1E588, symSize: 0x24 }
  - { offset: 0x69456, size: 0x8, addend: 0x0, symName: '__ZN72_$LT$zcash_zip321..Payment$u20$as$u20$pyo3..conversion..IntoPyObject$GT$13into_pyobject17hb7fa79e54fdb914fE', symObjAddr: 0x5C3C, symBinAddr: 0x1E5AC, symSize: 0x1C }
  - { offset: 0x694A2, size: 0x8, addend: 0x0, symName: '__ZN74_$LT$zcash_zip321..ParseError$u20$as$u20$pyo3..type_object..PyTypeInfo$GT$15type_object_raw17hf36b41f672d9cfbaE', symObjAddr: 0x5C58, symBinAddr: 0x1E5C8, symSize: 0x1C }
  - { offset: 0x694DF, size: 0x8, addend: 0x0, symName: '__ZN75_$LT$zcash_zip321..Zip321Error$u20$as$u20$pyo3..type_object..PyTypeInfo$GT$15type_object_raw17h61a60234a170d865E', symObjAddr: 0x5CF4, symBinAddr: 0x1E664, symSize: 0x1C }
  - { offset: 0x6951C, size: 0x8, addend: 0x0, symName: '__ZN80_$LT$zcash_zip321..MemoTooLongError$u20$as$u20$pyo3..type_object..PyTypeInfo$GT$15type_object_raw17h0a470672577ffdf3E', symObjAddr: 0x5D10, symBinAddr: 0x1E680, symSize: 0x1C }
  - { offset: 0x69559, size: 0x8, addend: 0x0, symName: '__ZN82_$LT$zcash_zip321..InvalidBase64Error$u20$as$u20$pyo3..type_object..PyTypeInfo$GT$15type_object_raw17h85f795a795448a2aE', symObjAddr: 0x5D2C, symBinAddr: 0x1E69C, symSize: 0x1C }
  - { offset: 0x69596, size: 0x8, addend: 0x0, symName: '__ZN82_$LT$zcash_zip321..TransactionRequest$u20$as$u20$pyo3..type_object..PyTypeInfo$GT$15type_object_raw17h7205449daaee0a63E', symObjAddr: 0x5D48, symBinAddr: 0x1E6B8, symSize: 0x24 }
  - { offset: 0x695D6, size: 0x8, addend: 0x0, symName: '__ZN83_$LT$zcash_zip321..InvalidAddressError$u20$as$u20$pyo3..type_object..PyTypeInfo$GT$15type_object_raw17h72b509044ee88c1fE', symObjAddr: 0x5D6C, symBinAddr: 0x1E6DC, symSize: 0x1C }
  - { offset: 0x69613, size: 0x8, addend: 0x0, symName: '__ZN83_$LT$zcash_zip321..InvalidPaymentError$u20$as$u20$pyo3..type_object..PyTypeInfo$GT$15type_object_raw17hf5606577c3c4b8c9E', symObjAddr: 0x5D88, symBinAddr: 0x1E6F8, symSize: 0x1C }
  - { offset: 0x69650, size: 0x8, addend: 0x0, symName: '__ZN83_$LT$zcash_zip321..TransactionRequest$u20$as$u20$pyo3..conversion..IntoPyObject$GT$13into_pyobject17hce8a638faa1bfb73E', symObjAddr: 0x5DA4, symBinAddr: 0x1E714, symSize: 0x1C }
  - { offset: 0x696A0, size: 0x8, addend: 0x0, symName: '__ZN84_$LT$zcash_zip321..TooManyPaymentsError$u20$as$u20$pyo3..type_object..PyTypeInfo$GT$15type_object_raw17h07e197c59cdfb18fE', symObjAddr: 0x5DC0, symBinAddr: 0x1E730, symSize: 0x1C }
  - { offset: 0x696DD, size: 0x8, addend: 0x0, symName: '__ZN84_$LT$zcash_zip321..TransparentMemoError$u20$as$u20$pyo3..type_object..PyTypeInfo$GT$15type_object_raw17h285d2e2aa0974502E', symObjAddr: 0x5DDC, symBinAddr: 0x1E74C, symSize: 0x1C }
  - { offset: 0x6971A, size: 0x8, addend: 0x0, symName: '__ZN85_$LT$zcash_zip321..RecipientMissingError$u20$as$u20$pyo3..type_object..PyTypeInfo$GT$15type_object_raw17h7801f3195e1d4202E', symObjAddr: 0x5DF8, symBinAddr: 0x1E768, symSize: 0x1C }
  - { offset: 0x6E46C, size: 0x8, addend: 0x0, symName: __ZN12zcash_zip32110ParseError15type_object_raw17he23e71bb5017b075E, symObjAddr: 0x2C, symBinAddr: 0x1899C, symSize: 0x2C }
  - { offset: 0x6E9D5, size: 0x8, addend: 0x0, symName: __ZN12zcash_zip32111PaymentData15to_rust_payment17habed4be585bc6355E, symObjAddr: 0x58, symBinAddr: 0x189C8, symSize: 0x410 }
  - { offset: 0x6EAC2, size: 0x8, addend: 0x0, symName: __ZN12zcash_zip32111PaymentData17from_rust_payment17h1f2ef96475dbd6b2E, symObjAddr: 0x468, symBinAddr: 0x18DD8, symSize: 0x1B4 }
  - { offset: 0x6EAFA, size: 0x8, addend: 0x0, symName: __ZN12zcash_zip32111Zip321Error15type_object_raw17h39f4995b6cb84e67E, symObjAddr: 0x61C, symBinAddr: 0x18F8C, symSize: 0x2C }
  - { offset: 0x6EB27, size: 0x8, addend: 0x0, symName: '__ZN12zcash_zip321162_$LT$impl$u20$pyo3..impl_..pyclass..PyMethods$LT$zcash_zip321..Payment$GT$$u20$for$u20$pyo3..impl_..pyclass..PyClassImplCollector$LT$zcash_zip321..Payment$GT$$GT$10py_methods5ITEMS39_$LT$impl$u20$zcash_zip321..Payment$GT$24__pymethod___richcmp____17hea49c1e6fa7a279dE', symObjAddr: 0xF2C, symBinAddr: 0x1989C, symSize: 0x48 }
  - { offset: 0x6EB68, size: 0x8, addend: 0x0, symName: __ZN12zcash_zip32116MemoTooLongError15type_object_raw17h019f6d992c973855E, symObjAddr: 0xF74, symBinAddr: 0x198E4, symSize: 0x2C }
  - { offset: 0x6EBB3, size: 0x8, addend: 0x0, symName: __ZN12zcash_zip32118InvalidBase64Error15type_object_raw17hf40baa8eeac471efE, symObjAddr: 0x17BC, symBinAddr: 0x1A12C, symSize: 0x2C }
  - { offset: 0x6EBED, size: 0x8, addend: 0x0, symName: __ZN12zcash_zip32118TransactionRequest14total_zatoshis17hf4301c3da306c4ccE, symObjAddr: 0x17E8, symBinAddr: 0x1A158, symSize: 0x228 }
  - { offset: 0x6ECE5, size: 0x8, addend: 0x0, symName: __ZN12zcash_zip32118TransactionRequest19__pymethod_to_uri__17hc06b1b23a4b0fdfcE, symObjAddr: 0x1A10, symBinAddr: 0x1A380, symSize: 0x288 }
  - { offset: 0x6EDD4, size: 0x8, addend: 0x0, symName: __ZN12zcash_zip32118TransactionRequest20__pymethod___len____17h89fa9978b1adaea8E, symObjAddr: 0x1C98, symBinAddr: 0x1A608, symSize: 0x114 }
  - { offset: 0x6EE92, size: 0x8, addend: 0x0, symName: __ZN12zcash_zip32118TransactionRequest20__pymethod___new____17h207faeeb7125560fE, symObjAddr: 0x1DAC, symBinAddr: 0x1A71C, symSize: 0x2A0 }
  - { offset: 0x6F00B, size: 0x8, addend: 0x0, symName: __ZN12zcash_zip32118TransactionRequest21__pymethod___repr____17h5ed71403be902189E, symObjAddr: 0x204C, symBinAddr: 0x1A9BC, symSize: 0x160 }
  - { offset: 0x6F0C8, size: 0x8, addend: 0x0, symName: __ZN12zcash_zip32118TransactionRequest21__pymethod_from_uri__17h3205ce494844751fE, symObjAddr: 0x21AC, symBinAddr: 0x1AB1C, symSize: 0x2E4 }
  - { offset: 0x6F242, size: 0x8, addend: 0x0, symName: __ZN12zcash_zip32118TransactionRequest21__pymethod_payments__17h1918a87428d8980bE, symObjAddr: 0x2490, symBinAddr: 0x1AE00, symSize: 0x288 }
  - { offset: 0x6F331, size: 0x8, addend: 0x0, symName: __ZN12zcash_zip32118TransactionRequest22__pymethod_total_zec__17h211d376c2683bab3E, symObjAddr: 0x2718, symBinAddr: 0x1B088, symSize: 0x288 }
  - { offset: 0x6F420, size: 0x8, addend: 0x0, symName: __ZN12zcash_zip32118TransactionRequest27__pymethod_total_zatoshis__17h7abd8b00d0c4e359E, symObjAddr: 0x29A0, symBinAddr: 0x1B310, symSize: 0x288 }
  - { offset: 0x6F50F, size: 0x8, addend: 0x0, symName: __ZN12zcash_zip32118TransactionRequest3new17hd0706233955bed81E, symObjAddr: 0x2C28, symBinAddr: 0x1B598, symSize: 0x4EC }
  - { offset: 0x6F640, size: 0x8, addend: 0x0, symName: __ZN12zcash_zip32118TransactionRequest6to_uri17hc3edc2aebf7d3608E, symObjAddr: 0x3114, symBinAddr: 0x1BA84, symSize: 0x214 }
  - { offset: 0x6F704, size: 0x8, addend: 0x0, symName: __ZN12zcash_zip32118TransactionRequest7__len__17h6e865862a8fc902eE, symObjAddr: 0x3328, symBinAddr: 0x1BC98, symSize: 0x24 }
  - { offset: 0x6F727, size: 0x8, addend: 0x0, symName: __ZN12zcash_zip32118TransactionRequest8__repr__17h9f7c256139a93ec8E, symObjAddr: 0x334C, symBinAddr: 0x1BCBC, symSize: 0x7C }
  - { offset: 0x6F7A4, size: 0x8, addend: 0x0, symName: __ZN12zcash_zip32118TransactionRequest8from_uri17h3ce84de57cc14fbdE, symObjAddr: 0x33C8, symBinAddr: 0x1BD38, symSize: 0x158 }
  - { offset: 0x6F899, size: 0x8, addend: 0x0, symName: __ZN12zcash_zip32118TransactionRequest8payments17ha681637ccdf4d3ecE, symObjAddr: 0x3520, symBinAddr: 0x1BE90, symSize: 0x4C }
  - { offset: 0x6F8C3, size: 0x8, addend: 0x0, symName: __ZN12zcash_zip32118TransactionRequest9total_zec17he4ff1e37c05624d0E, symObjAddr: 0x356C, symBinAddr: 0x1BEDC, symSize: 0x3C }
  - { offset: 0x6F8E6, size: 0x8, addend: 0x0, symName: __ZN12zcash_zip32119InvalidAddressError15type_object_raw17hf5e20f6b12b10306E, symObjAddr: 0x35A8, symBinAddr: 0x1BF18, symSize: 0x2C }
  - { offset: 0x6F913, size: 0x8, addend: 0x0, symName: __ZN12zcash_zip32119InvalidPaymentError15type_object_raw17hce60ea7d057b1580E, symObjAddr: 0x35D4, symBinAddr: 0x1BF44, symSize: 0x2C }
  - { offset: 0x6F940, size: 0x8, addend: 0x0, symName: __ZN12zcash_zip32120TooManyPaymentsError15type_object_raw17h10e5cb3e13cdaad8E, symObjAddr: 0x3600, symBinAddr: 0x1BF70, symSize: 0x2C }
  - { offset: 0x6F96D, size: 0x8, addend: 0x0, symName: __ZN12zcash_zip32120TransparentMemoError15type_object_raw17ha8912f56cd46b092E, symObjAddr: 0x362C, symBinAddr: 0x1BF9C, symSize: 0x2C }
  - { offset: 0x6F99A, size: 0x8, addend: 0x0, symName: __ZN12zcash_zip32121RecipientMissingError15type_object_raw17h76bf429536ea20d2E, symObjAddr: 0x3658, symBinAddr: 0x1BFC8, symSize: 0x2C }
  - { offset: 0x6F9D4, size: 0x8, addend: 0x0, symName: __ZN12zcash_zip3217Payment10amount_zec17hf1e1d6d1c36c8f30E, symObjAddr: 0x3D24, symBinAddr: 0x1C694, symSize: 0x30 }
  - { offset: 0x6F9F6, size: 0x8, addend: 0x0, symName: __ZN12zcash_zip3217Payment15amount_zatoshis17h2751c596fc8bfce6E, symObjAddr: 0x3D54, symBinAddr: 0x1C6C4, symSize: 0x20 }
  - { offset: 0x6FA18, size: 0x8, addend: 0x0, symName: __ZN12zcash_zip3217Payment17recipient_address17h35bf5ad0322c08c4E, symObjAddr: 0x3D74, symBinAddr: 0x1C6E4, symSize: 0x24 }
  - { offset: 0x6FA3A, size: 0x8, addend: 0x0, symName: __ZN12zcash_zip3217Payment19__pymethod___eq____17h95d0f75ee7b9e524E, symObjAddr: 0x3D98, symBinAddr: 0x1C708, symSize: 0x204 }
  - { offset: 0x6FAE5, size: 0x8, addend: 0x0, symName: __ZN12zcash_zip3217Payment20__pymethod___new____17hb8412fa99c0e607cE, symObjAddr: 0x3F9C, symBinAddr: 0x1C90C, symSize: 0x7C4 }
  - { offset: 0x6FD77, size: 0x8, addend: 0x0, symName: __ZN12zcash_zip3217Payment21__pymethod___repr____17hbdde3823ea63aedcE, symObjAddr: 0x4760, symBinAddr: 0x1D0D0, symSize: 0x160 }
  - { offset: 0x6FE2C, size: 0x8, addend: 0x0, symName: __ZN12zcash_zip3217Payment21__pymethod_get_memo__17hd226eb2891ff6c71E, symObjAddr: 0x48C0, symBinAddr: 0x1D230, symSize: 0x124 }
  - { offset: 0x6FEB7, size: 0x8, addend: 0x0, symName: __ZN12zcash_zip3217Payment22__pymethod_get_label__17h3e0da9add91f2db9E, symObjAddr: 0x49E4, symBinAddr: 0x1D354, symSize: 0x124 }
  - { offset: 0x6FF42, size: 0x8, addend: 0x0, symName: __ZN12zcash_zip3217Payment24__pymethod_get_message__17ha8a21a1930f33aecE, symObjAddr: 0x4B08, symBinAddr: 0x1D478, symSize: 0x124 }
  - { offset: 0x6FFCD, size: 0x8, addend: 0x0, symName: __ZN12zcash_zip3217Payment26__pymethod_get_memo_text__17h98ee7c75efc920b8E, symObjAddr: 0x4C2C, symBinAddr: 0x1D59C, symSize: 0x11C }
  - { offset: 0x70058, size: 0x8, addend: 0x0, symName: __ZN12zcash_zip3217Payment27__pymethod_get_amount_zec__17hbfa4d75ef17b0271E, symObjAddr: 0x4D48, symBinAddr: 0x1D6B8, symSize: 0x124 }
  - { offset: 0x700E3, size: 0x8, addend: 0x0, symName: __ZN12zcash_zip3217Payment32__pymethod_get_amount_zatoshis__17haeee92351637e17aE, symObjAddr: 0x4E6C, symBinAddr: 0x1D7DC, symSize: 0x124 }
  - { offset: 0x7016E, size: 0x8, addend: 0x0, symName: __ZN12zcash_zip3217Payment34__pymethod_get_recipient_address__17hd2313c04bd0a3474E, symObjAddr: 0x4F90, symBinAddr: 0x1D900, symSize: 0x124 }
  - { offset: 0x701F9, size: 0x8, addend: 0x0, symName: __ZN12zcash_zip3217Payment3new17h71eb3a3ecfde2610E, symObjAddr: 0x50B4, symBinAddr: 0x1DA24, symSize: 0x760 }
  - { offset: 0x70378, size: 0x8, addend: 0x0, symName: __ZN12zcash_zip3217Payment4memo17h3b681ecdca49345dE, symObjAddr: 0x5814, symBinAddr: 0x1E184, symSize: 0x24 }
  - { offset: 0x7039A, size: 0x8, addend: 0x0, symName: __ZN12zcash_zip3217Payment5label17h522a84784d959597E, symObjAddr: 0x5838, symBinAddr: 0x1E1A8, symSize: 0x24 }
  - { offset: 0x703C3, size: 0x8, addend: 0x0, symName: __ZN12zcash_zip3217Payment6__eq__17h44b5cabef20dfc6aE, symObjAddr: 0x585C, symBinAddr: 0x1E1CC, symSize: 0xB4 }
  - { offset: 0x703F5, size: 0x8, addend: 0x0, symName: __ZN12zcash_zip3217Payment7message17hd5db5e15514ea2f0E, symObjAddr: 0x5910, symBinAddr: 0x1E280, symSize: 0x24 }
  - { offset: 0x70417, size: 0x8, addend: 0x0, symName: __ZN12zcash_zip3217Payment8__repr__17h0eec676465553283E, symObjAddr: 0x5934, symBinAddr: 0x1E2A4, symSize: 0x178 }
  - { offset: 0x704F9, size: 0x8, addend: 0x0, symName: __ZN12zcash_zip3217Payment9memo_text17h6e0ad5ec802b6e6cE, symObjAddr: 0x5AAC, symBinAddr: 0x1E41C, symSize: 0x30 }
  - { offset: 0x70991, size: 0x8, addend: 0x0, symName: '__ZN4pyo36pycell14PyRef$LT$T$GT$10try_borrow17h1c5cbe58b0eb46a5E', symObjAddr: 0x0, symBinAddr: 0x1E804, symSize: 0x4C }
  - { offset: 0x722E0, size: 0x8, addend: 0x0, symName: '__ZN50_$LT$T$u20$as$u20$core..convert..Into$LT$U$GT$$GT$4into17h698e4cca203b67a3E', symObjAddr: 0xE0, symBinAddr: 0x1E8E4, symSize: 0x1C }
  - { offset: 0x7257B, size: 0x8, addend: 0x0, symName: '__ZN4pyo36pycell14PyRef$LT$T$GT$10try_borrow28_$u7b$$u7b$closure$u7d$$u7d$17h5d43615e668a75e5E', symObjAddr: 0x98, symBinAddr: 0x1E89C, symSize: 0x24 }
  - { offset: 0x725BF, size: 0x8, addend: 0x0, symName: '__ZN4pyo36pycell14PyRef$LT$T$GT$10try_borrow28_$u7b$$u7b$closure$u7d$$u7d$17ha5920f7069d2e4c9E', symObjAddr: 0xBC, symBinAddr: 0x1E8C0, symSize: 0x24 }
  - { offset: 0x7260A, size: 0x8, addend: 0x0, symName: '__ZN72_$LT$pyo3..pycell..PyRef$LT$T$GT$$u20$as$u20$core..ops..deref..Deref$GT$5deref17h08bb4e0717403b96E', symObjAddr: 0x164, symBinAddr: 0x1E968, symSize: 0x74 }
  - { offset: 0x72641, size: 0x8, addend: 0x0, symName: '__ZN72_$LT$pyo3..pycell..PyRef$LT$T$GT$$u20$as$u20$core..ops..deref..Deref$GT$5deref17h9dd77f76bfeb24c1E', symObjAddr: 0x1D8, symBinAddr: 0x1E9DC, symSize: 0x74 }
  - { offset: 0x72A52, size: 0x8, addend: 0x0, symName: '__ZN57_$LT$T$u20$as$u20$pyo3..conversion..FromPyObjectBound$GT$20from_py_object_bound17h8937c16a4e78e951E', symObjAddr: 0xFC, symBinAddr: 0x1E900, symSize: 0x34 }
  - { offset: 0x72A89, size: 0x8, addend: 0x0, symName: '__ZN57_$LT$T$u20$as$u20$pyo3..conversion..FromPyObjectBound$GT$20from_py_object_bound17he2c32efa592a52d5E', symObjAddr: 0x130, symBinAddr: 0x1E934, symSize: 0x34 }
  - { offset: 0x72AC6, size: 0x8, addend: 0x0, symName: '__ZN79_$LT$pyo3..pycell..PyRef$LT$T$GT$$u20$as$u20$pyo3..conversion..FromPyObject$GT$13extract_bound17h24fa879073cb4021E', symObjAddr: 0x24C, symBinAddr: 0x1EA50, symSize: 0x94 }
  - { offset: 0x72B1B, size: 0x8, addend: 0x0, symName: '__ZN79_$LT$pyo3..pycell..PyRef$LT$T$GT$$u20$as$u20$pyo3..conversion..FromPyObject$GT$13extract_bound17hca39d5ad48b2bafbE', symObjAddr: 0x2E0, symBinAddr: 0x1EAE4, symSize: 0x94 }
  - { offset: 0x73492, size: 0x8, addend: 0x0, symName: '__ZN4pyo36pycell14PyRef$LT$T$GT$10try_borrow17h1c5cbe58b0eb46a5E', symObjAddr: 0x0, symBinAddr: 0x1E804, symSize: 0x4C }
  - { offset: 0x73581, size: 0x8, addend: 0x0, symName: '__ZN4pyo36pycell14PyRef$LT$T$GT$10try_borrow17h2baece44ffab791bE', symObjAddr: 0x4C, symBinAddr: 0x1E850, symSize: 0x4C }
  - { offset: 0x7385F, size: 0x8, addend: 0x0, symName: __ZN4pyo35impl_10trampoline11module_init17hacfe0c509023bfd2E, symObjAddr: 0x0, symBinAddr: 0x1EB78, symSize: 0x28 }
  - { offset: 0x74D26, size: 0x8, addend: 0x0, symName: __ZN4pyo35impl_10trampoline11module_init17hacfe0c509023bfd2E, symObjAddr: 0x0, symBinAddr: 0x1EB78, symSize: 0x28 }
  - { offset: 0x74D52, size: 0x8, addend: 0x0, symName: __ZN4pyo35impl_10trampoline11richcmpfunc17h77e7ae74c8b046b1E, symObjAddr: 0x28, symBinAddr: 0x1EBA0, symSize: 0x50 }
  - { offset: 0x74DA8, size: 0x8, addend: 0x0, symName: __ZN4pyo35impl_10trampoline22fastcall_with_keywords17h07740a93e350105aE, symObjAddr: 0x78, symBinAddr: 0x1EBF0, symSize: 0x5C }
  - { offset: 0x74E0C, size: 0x8, addend: 0x0, symName: __ZN4pyo35impl_10trampoline6noargs17hbf7c148afd593862E, symObjAddr: 0xD4, symBinAddr: 0x1EC4C, symSize: 0x64 }
  - { offset: 0x74E54, size: 0x8, addend: 0x0, symName: __ZN4pyo35impl_10trampoline7dealloc17h2d535a1d8ec90afcE, symObjAddr: 0x138, symBinAddr: 0x1ECB0, symSize: 0x34 }
  - { offset: 0x74E8A, size: 0x8, addend: 0x0, symName: __ZN4pyo35impl_10trampoline7lenfunc17h2d4073ea6b519cceE, symObjAddr: 0x16C, symBinAddr: 0x1ECE4, symSize: 0x30 }
  - { offset: 0x74EC4, size: 0x8, addend: 0x0, symName: __ZN4pyo35impl_10trampoline7newfunc17hdfe2d82e9c471398E, symObjAddr: 0x19C, symBinAddr: 0x1ED14, symSize: 0x50 }
  - { offset: 0x74F1A, size: 0x8, addend: 0x0, symName: __ZN4pyo35impl_10trampoline8reprfunc17h30c4a175dac6e270E, symObjAddr: 0x1EC, symBinAddr: 0x1ED64, symSize: 0x30 }
  - { offset: 0x75951, size: 0x8, addend: 0x0, symName: '__ZN87_$LT$$BP$mut$u20$pyo3_ffi..object..PyObject$u20$as$u20$pyo3..ffi_ptr_ext..FfiPtrExt$GT$12assume_owned17he595eadb416b173cE', symObjAddr: 0x0, symBinAddr: 0x1ED94, symSize: 0x24 }
  - { offset: 0x75986, size: 0x8, addend: 0x0, symName: __ZN8pyo3_ffi6object10Py_IS_TYPE17hfefe044db24f8996E, symObjAddr: 0x90, symBinAddr: 0x1EE24, symSize: 0x38 }
  - { offset: 0x759C0, size: 0x8, addend: 0x0, symName: __ZN8pyo3_ffi6object17PyType_HasFeature17h5330a182ca0c4406E, symObjAddr: 0xC8, symBinAddr: 0x1EE5C, symSize: 0x8C }
  - { offset: 0x75A1B, size: 0x8, addend: 0x0, symName: __ZN8pyo3_ffi6object17Py_NotImplemented17h3b09f3dd9561aa89E, symObjAddr: 0x154, symBinAddr: 0x1EEE8, symSize: 0xC }
  - { offset: 0x75A39, size: 0x8, addend: 0x0, symName: __ZN8pyo3_ffi6object18PyObject_TypeCheck17h12055a0f3fec3ae0E, symObjAddr: 0x160, symBinAddr: 0x1EEF4, symSize: 0x70 }
  - { offset: 0x75A76, size: 0x8, addend: 0x0, symName: __ZN8pyo3_ffi6object19PyType_FastSubclass17h35932e590a553d0dE, symObjAddr: 0x1D0, symBinAddr: 0x1EF64, symSize: 0x28 }
  - { offset: 0x75AB3, size: 0x8, addend: 0x0, symName: __ZN8pyo3_ffi6object7Py_None17h1a1e9fea0b28bb6bE, symObjAddr: 0x1F8, symBinAddr: 0x1EF8C, symSize: 0xC }
  - { offset: 0x75AD1, size: 0x8, addend: 0x0, symName: __ZN8pyo3_ffi6object7Py_TYPE17h3e2f75d7ec271eb5E, symObjAddr: 0x204, symBinAddr: 0x1EF98, symSize: 0x74 }
  - { offset: 0x76BF6, size: 0x8, addend: 0x0, symName: '__ZN87_$LT$$BP$mut$u20$pyo3_ffi..object..PyObject$u20$as$u20$pyo3..ffi_ptr_ext..FfiPtrExt$GT$12assume_owned17he595eadb416b173cE', symObjAddr: 0x0, symBinAddr: 0x1ED94, symSize: 0x24 }
  - { offset: 0x76C3B, size: 0x8, addend: 0x0, symName: '__ZN87_$LT$$BP$mut$u20$pyo3_ffi..object..PyObject$u20$as$u20$pyo3..ffi_ptr_ext..FfiPtrExt$GT$15assume_borrowed17h79bf55ed513fa674E', symObjAddr: 0x24, symBinAddr: 0x1EDB8, symSize: 0x24 }
  - { offset: 0x76C80, size: 0x8, addend: 0x0, symName: '__ZN87_$LT$$BP$mut$u20$pyo3_ffi..object..PyObject$u20$as$u20$pyo3..ffi_ptr_ext..FfiPtrExt$GT$22assume_borrowed_or_opt17hd923579382735c37E', symObjAddr: 0x48, symBinAddr: 0x1EDDC, symSize: 0x24 }
  - { offset: 0x76CC5, size: 0x8, addend: 0x0, symName: '__ZN87_$LT$$BP$mut$u20$pyo3_ffi..object..PyObject$u20$as$u20$pyo3..ffi_ptr_ext..FfiPtrExt$GT$25assume_borrowed_unchecked17hc7db63fe6cecfc58E', symObjAddr: 0x6C, symBinAddr: 0x1EE00, symSize: 0x24 }
  - { offset: 0x772E0, size: 0x8, addend: 0x0, symName: '__ZN12zcash_zip321162_$LT$impl$u20$pyo3..impl_..pyclass..PyMethods$LT$zcash_zip321..Payment$GT$$u20$for$u20$pyo3..impl_..pyclass..PyClassImplCollector$LT$zcash_zip321..Payment$GT$$GT$10py_methods17hf58ec31559113674E', symObjAddr: 0x0, symBinAddr: 0x1F00C, symSize: 0x14 }
  - { offset: 0x78C70, size: 0x8, addend: 0x0, symName: '__ZN12zcash_zip321162_$LT$impl$u20$pyo3..impl_..pyclass..PyMethods$LT$zcash_zip321..Payment$GT$$u20$for$u20$pyo3..impl_..pyclass..PyClassImplCollector$LT$zcash_zip321..Payment$GT$$GT$10py_methods17hf58ec31559113674E', symObjAddr: 0x0, symBinAddr: 0x1F00C, symSize: 0x14 }
  - { offset: 0x78CBB, size: 0x8, addend: 0x0, symName: '__ZN12zcash_zip321162_$LT$impl$u20$pyo3..impl_..pyclass..PyMethods$LT$zcash_zip321..Payment$GT$$u20$for$u20$pyo3..impl_..pyclass..PyClassImplCollector$LT$zcash_zip321..Payment$GT$$GT$10py_methods5ITEMS10trampoline176_$LT$impl$u20$pyo3..impl_..pyclass..PyClassNewTextSignature$LT$zcash_zip321..Payment$GT$$u20$for$u20$pyo3..impl_..pyclass..PyClassImplCollector$LT$zcash_zip321..Payment$GT$$GT$18new_text_signature17h7cff751756e31dd4E', symObjAddr: 0x14, symBinAddr: 0x1F020, symSize: 0x1C }
  - { offset: 0x78CFC, size: 0x8, addend: 0x0, symName: '__ZN12zcash_zip321178_$LT$impl$u20$pyo3..impl_..pyclass..PyClass__eq__SlotFragment$LT$zcash_zip321..Payment$GT$$u20$for$u20$pyo3..impl_..pyclass..PyClassImplCollector$LT$zcash_zip321..Payment$GT$$GT$6__eq__17h17fd125c6f8d8c2cE', symObjAddr: 0x30, symBinAddr: 0x1F03C, symSize: 0x2C }
  - { offset: 0x78D6E, size: 0x8, addend: 0x0, symName: '__ZN12zcash_zip321184_$LT$impl$u20$pyo3..impl_..pyclass..PyMethods$LT$zcash_zip321..TransactionRequest$GT$$u20$for$u20$pyo3..impl_..pyclass..PyClassImplCollector$LT$zcash_zip321..TransactionRequest$GT$$GT$10py_methods17hcc826b080339e9f6E', symObjAddr: 0x5C, symBinAddr: 0x1F068, symSize: 0x14 }
  - { offset: 0x78DBC, size: 0x8, addend: 0x0, symName: '__ZN12zcash_zip321184_$LT$impl$u20$pyo3..impl_..pyclass..PyMethods$LT$zcash_zip321..TransactionRequest$GT$$u20$for$u20$pyo3..impl_..pyclass..PyClassImplCollector$LT$zcash_zip321..TransactionRequest$GT$$GT$10py_methods5ITEMS10trampoline198_$LT$impl$u20$pyo3..impl_..pyclass..PyClassNewTextSignature$LT$zcash_zip321..TransactionRequest$GT$$u20$for$u20$pyo3..impl_..pyclass..PyClassImplCollector$LT$zcash_zip321..TransactionRequest$GT$$GT$18new_text_signature17h9158ff814373219eE', symObjAddr: 0x70, symBinAddr: 0x1F07C, symSize: 0x1C }
  - { offset: 0x79E69, size: 0x8, addend: 0x0, symName: '__ZN4core3ptr9const_ptr33_$LT$impl$u20$$BP$const$u20$T$GT$20offset_from_unsigned18precondition_check17h1e783ffe8195930bE', symObjAddr: 0x0, symBinAddr: 0x1F098, symSize: 0xAC }
  - { offset: 0x7A153, size: 0x8, addend: 0x0, symName: '__ZN4core3ptr9const_ptr33_$LT$impl$u20$$BP$const$u20$T$GT$20offset_from_unsigned18precondition_check17h1e783ffe8195930bE', symObjAddr: 0x0, symBinAddr: 0x1F098, symSize: 0xAC }
  - { offset: 0x7A251, size: 0x8, addend: 0x0, symName: '__ZN4core3ptr9const_ptr33_$LT$impl$u20$$BP$const$u20$T$GT$6offset18precondition_check17h0b2b22061159c32fE', symObjAddr: 0xAC, symBinAddr: 0x1F144, symSize: 0x110 }
  - { offset: 0x7A7D6, size: 0x8, addend: 0x0, symName: '__ZN106_$LT$core..ops..range..Range$LT$usize$GT$$u20$as$u20$core..slice..index..SliceIndex$LT$$u5b$T$u5d$$GT$$GT$13get_unchecked18precondition_check17h7974295bd2a69c8bE', symObjAddr: 0x0, symBinAddr: 0x1F254, symSize: 0xCC }
  - { offset: 0x7AB02, size: 0x8, addend: 0x0, symName: '__ZN106_$LT$core..ops..range..Range$LT$usize$GT$$u20$as$u20$core..slice..index..SliceIndex$LT$$u5b$T$u5d$$GT$$GT$13get_unchecked18precondition_check17h7974295bd2a69c8bE', symObjAddr: 0x0, symBinAddr: 0x1F254, symSize: 0xCC }
  - { offset: 0x7AB7E, size: 0x8, addend: 0x0, symName: '__ZN106_$LT$core..ops..range..Range$LT$usize$GT$$u20$as$u20$core..slice..index..SliceIndex$LT$$u5b$T$u5d$$GT$$GT$17get_unchecked_mut18precondition_check17hcfa3ac5bb5a536e3E', symObjAddr: 0xCC, symBinAddr: 0x1F320, symSize: 0xCC }
  - { offset: 0x7AC00, size: 0x8, addend: 0x0, symName: '__ZN75_$LT$usize$u20$as$u20$core..slice..index..SliceIndex$LT$$u5b$T$u5d$$GT$$GT$13get_unchecked18precondition_check17hb67ab70d7a4e8001E', symObjAddr: 0x198, symBinAddr: 0x1F3EC, symSize: 0xAC }
  - { offset: 0x7AC6E, size: 0x8, addend: 0x0, symName: '__ZN75_$LT$usize$u20$as$u20$core..slice..index..SliceIndex$LT$$u5b$T$u5d$$GT$$GT$17get_unchecked_mut18precondition_check17h4e9a3729987460aaE', symObjAddr: 0x244, symBinAddr: 0x1F498, symSize: 0xAC }
  - { offset: 0x7AEB4, size: 0x8, addend: 0x0, symName: '__ZN102_$LT$core..iter..adapters..map..Map$LT$I$C$F$GT$$u20$as$u20$core..iter..traits..iterator..Iterator$GT$4next17h2e3524adf0725da3E', symObjAddr: 0x0, symBinAddr: 0x1F544, symSize: 0xA8 }
  - { offset: 0x7C49C, size: 0x8, addend: 0x0, symName: '__ZN102_$LT$core..iter..adapters..map..Map$LT$I$C$F$GT$$u20$as$u20$core..iter..traits..iterator..Iterator$GT$4next17h2e3524adf0725da3E', symObjAddr: 0x0, symBinAddr: 0x1F544, symSize: 0xA8 }
  - { offset: 0x7C538, size: 0x8, addend: 0x0, symName: '__ZN102_$LT$core..iter..adapters..map..Map$LT$I$C$F$GT$$u20$as$u20$core..iter..traits..iterator..Iterator$GT$4next17ha799e00eec3f8d20E', symObjAddr: 0xA8, symBinAddr: 0x1F5EC, symSize: 0xA8 }
  - { offset: 0x7C5D4, size: 0x8, addend: 0x0, symName: '__ZN102_$LT$core..iter..adapters..map..Map$LT$I$C$F$GT$$u20$as$u20$core..iter..traits..iterator..Iterator$GT$8try_fold17h6c3b658af62463aaE', symObjAddr: 0x150, symBinAddr: 0x1F694, symSize: 0x54 }
  - { offset: 0x7C677, size: 0x8, addend: 0x0, symName: '__ZN102_$LT$core..iter..adapters..map..Map$LT$I$C$F$GT$$u20$as$u20$core..iter..traits..iterator..Iterator$GT$9size_hint17h16201d1626a40014E', symObjAddr: 0x1A4, symBinAddr: 0x1F6E8, symSize: 0x24 }
  - { offset: 0x7C6BE, size: 0x8, addend: 0x0, symName: '__ZN102_$LT$core..iter..adapters..map..Map$LT$I$C$F$GT$$u20$as$u20$core..iter..traits..iterator..Iterator$GT$9size_hint17h81af134960702f94E', symObjAddr: 0x1C8, symBinAddr: 0x1F70C, symSize: 0x24 }
  - { offset: 0x7C705, size: 0x8, addend: 0x0, symName: '__ZN102_$LT$core..iter..adapters..map..Map$LT$I$C$F$GT$$u20$as$u20$core..iter..traits..iterator..Iterator$GT$9size_hint17hd83786d63bd3fae4E', symObjAddr: 0x1EC, symBinAddr: 0x1F730, symSize: 0x24 }
  - { offset: 0x7C7CD, size: 0x8, addend: 0x0, symName: '__ZN4core4iter8adapters3map12map_try_fold28_$u7b$$u7b$closure$u7d$$u7d$17h3be295b7a2b61efdE', symObjAddr: 0x43C, symBinAddr: 0x1F980, symSize: 0xA8 }
  - { offset: 0x7C953, size: 0x8, addend: 0x0, symName: __ZN4core4iter6traits8iterator8Iterator7collect17h195074533a0390c1E, symObjAddr: 0x210, symBinAddr: 0x1F754, symSize: 0x6C }
  - { offset: 0x7C9E9, size: 0x8, addend: 0x0, symName: __ZN4core4iter6traits8iterator8Iterator7collect17h36956536b0b61316E, symObjAddr: 0x27C, symBinAddr: 0x1F7C0, symSize: 0x74 }
  - { offset: 0x7CA7F, size: 0x8, addend: 0x0, symName: __ZN4core4iter6traits8iterator8Iterator7collect17ha81442836ca0e068E, symObjAddr: 0x2F0, symBinAddr: 0x1F834, symSize: 0x6C }
  - { offset: 0x7CB15, size: 0x8, addend: 0x0, symName: __ZN4core4iter6traits8iterator8Iterator7collect17heacb3f666f8da6b8E, symObjAddr: 0x35C, symBinAddr: 0x1F8A0, symSize: 0x74 }
  - { offset: 0x7CBAB, size: 0x8, addend: 0x0, symName: __ZN4core4iter6traits8iterator8Iterator7collect17hffa291d185934f59E, symObjAddr: 0x3D0, symBinAddr: 0x1F914, symSize: 0x6C }
  - { offset: 0x7CC4D, size: 0x8, addend: 0x0, symName: '__ZN63_$LT$I$u20$as$u20$core..iter..traits..collect..IntoIterator$GT$9into_iter17h1b168de0d9ec49a4E', symObjAddr: 0x4E4, symBinAddr: 0x1FA28, symSize: 0x30 }
  - { offset: 0x7CC85, size: 0x8, addend: 0x0, symName: '__ZN63_$LT$I$u20$as$u20$core..iter..traits..collect..IntoIterator$GT$9into_iter17h99a9e7d37e56ff61E', symObjAddr: 0x514, symBinAddr: 0x1FA58, symSize: 0x30 }
  - { offset: 0x7CCBD, size: 0x8, addend: 0x0, symName: '__ZN63_$LT$I$u20$as$u20$core..iter..traits..collect..IntoIterator$GT$9into_iter17hf4420fb728a32253E', symObjAddr: 0x544, symBinAddr: 0x1FA88, symSize: 0x30 }
  - { offset: 0x7F670, size: 0x8, addend: 0x0, symName: '__ZN4core5slice29_$LT$impl$u20$$u5b$T$u5d$$GT$7reverse7revswap17h1c7fc599dd6a8566E', symObjAddr: 0x0, symBinAddr: 0x1FAB8, symSize: 0x2A8 }
  - { offset: 0x7FC6F, size: 0x8, addend: 0x0, symName: '__ZN4core5slice29_$LT$impl$u20$$u5b$T$u5d$$GT$7reverse7revswap17h1c7fc599dd6a8566E', symObjAddr: 0x0, symBinAddr: 0x1FAB8, symSize: 0x2A8 }
  - { offset: 0x7FDE0, size: 0x8, addend: 0x0, symName: '__ZN4core5slice29_$LT$impl$u20$$u5b$T$u5d$$GT$7reverse7revswap17hb21fc9cc7ec753f8E', symObjAddr: 0x2A8, symBinAddr: 0x1FD60, symSize: 0x2A8 }
  - { offset: 0x80439, size: 0x8, addend: 0x0, symName: '__ZN4core5slice4sort6stable5merge19MergeState$LT$T$GT$10merge_down17h6009339b56056a40E', symObjAddr: 0x0, symBinAddr: 0x20008, symSize: 0x1E0 }
  - { offset: 0x80B00, size: 0x8, addend: 0x0, symName: __ZN4core5slice4sort6stable5merge5merge17h39a5c216e7cc57b6E, symObjAddr: 0x700, symBinAddr: 0x20708, symSize: 0x334 }
  - { offset: 0x80D72, size: 0x8, addend: 0x0, symName: __ZN4core5slice4sort6stable5merge5merge17h9218637a1584239eE, symObjAddr: 0xA34, symBinAddr: 0x20A3C, symSize: 0x334 }
  - { offset: 0x81431, size: 0x8, addend: 0x0, symName: '__ZN4core5slice4sort6stable5merge19MergeState$LT$T$GT$10merge_down17h6009339b56056a40E', symObjAddr: 0x0, symBinAddr: 0x20008, symSize: 0x1E0 }
  - { offset: 0x81626, size: 0x8, addend: 0x0, symName: '__ZN4core5slice4sort6stable5merge19MergeState$LT$T$GT$10merge_down17h6113d2242121c61aE', symObjAddr: 0x1E0, symBinAddr: 0x201E8, symSize: 0x1E0 }
  - { offset: 0x817BC, size: 0x8, addend: 0x0, symName: '__ZN4core5slice4sort6stable5merge19MergeState$LT$T$GT$8merge_up17h3dd962af6282d224E', symObjAddr: 0x3C0, symBinAddr: 0x203C8, symSize: 0x1A0 }
  - { offset: 0x81902, size: 0x8, addend: 0x0, symName: '__ZN4core5slice4sort6stable5merge19MergeState$LT$T$GT$8merge_up17h76f0c0933a21839bE', symObjAddr: 0x560, symBinAddr: 0x20568, symSize: 0x1A0 }
  - { offset: 0x81B62, size: 0x8, addend: 0x0, symName: _PyInit_zcash_zip321, symObjAddr: 0x0, symBinAddr: 0x20D70, symSize: 0x34 }
  - { offset: 0x81B87, size: 0x8, addend: 0x0, symName: __ZN12zcash_zip32112zcash_zip3219_PYO3_DEF17h3903c9401e1e283eE, symObjAddr: 0x58, symBinAddr: 0x198578, symSize: 0x0 }
  - { offset: 0x81B94, size: 0x8, addend: 0x0, symName: _PyInit_zcash_zip321, symObjAddr: 0x0, symBinAddr: 0x20D70, symSize: 0x34 }
  - { offset: 0x83B9F, size: 0x8, addend: 0x0, symName: '__ZN4pyo35impl_7pyclass16lazy_type_object23LazyTypeObject$LT$T$GT$11get_or_init17hdc3e76e1f61c0415E', symObjAddr: 0x0, symBinAddr: 0x20DA4, symSize: 0x40 }
  - { offset: 0x85885, size: 0x8, addend: 0x0, symName: '__ZN4pyo35impl_7pyclass16lazy_type_object23LazyTypeObject$LT$T$GT$11get_or_init28_$u7b$$u7b$closure$u7d$$u7d$17h67ee4e555c44bc38E', symObjAddr: 0x80, symBinAddr: 0x20E24, symSize: 0x98 }
  - { offset: 0x858F2, size: 0x8, addend: 0x0, symName: '__ZN4pyo35impl_7pyclass16lazy_type_object23LazyTypeObject$LT$T$GT$11get_or_init28_$u7b$$u7b$closure$u7d$$u7d$17hef73c3c518cba096E', symObjAddr: 0x118, symBinAddr: 0x20EBC, symSize: 0x98 }
  - { offset: 0x867E4, size: 0x8, addend: 0x0, symName: '__ZN4pyo35impl_7pyclass16lazy_type_object23LazyTypeObject$LT$T$GT$11get_or_init17hdc3e76e1f61c0415E', symObjAddr: 0x0, symBinAddr: 0x20DA4, symSize: 0x40 }
  - { offset: 0x868C6, size: 0x8, addend: 0x0, symName: '__ZN4pyo35impl_7pyclass16lazy_type_object23LazyTypeObject$LT$T$GT$11get_or_init17hf81c5fdbac764505E', symObjAddr: 0x40, symBinAddr: 0x20DE4, symSize: 0x40 }
  - { offset: 0x8690A, size: 0x8, addend: 0x0, symName: '__ZN4pyo35impl_7pyclass16lazy_type_object23LazyTypeObject$LT$T$GT$15get_or_try_init17h0b8a9daf9e8f0284E', symObjAddr: 0x1B0, symBinAddr: 0x20F54, symSize: 0x58 }
  - { offset: 0x8694E, size: 0x8, addend: 0x0, symName: '__ZN4pyo35impl_7pyclass16lazy_type_object23LazyTypeObject$LT$T$GT$15get_or_try_init17h7c68975805328816E', symObjAddr: 0x208, symBinAddr: 0x20FAC, symSize: 0x58 }
  - { offset: 0x86A56, size: 0x8, addend: 0x0, symName: '__ZN103_$LT$pyo3..instance..Bound$LT$pyo3..types..any..PyAny$GT$$u20$as$u20$pyo3..types..any..PyAnyMethods$GT$12rich_compare17hcffc604c7248970cE', symObjAddr: 0x0, symBinAddr: 0x21004, symSize: 0x140 }
  - { offset: 0x8720E, size: 0x8, addend: 0x0, symName: '__ZN4core5slice29_$LT$impl$u20$$u5b$T$u5d$$GT$4iter17h7f42c972359ae5cbE', symObjAddr: 0x123C, symBinAddr: 0x22240, symSize: 0x28 }
  - { offset: 0x89101, size: 0x8, addend: 0x0, symName: '__ZN63_$LT$I$u20$as$u20$core..iter..traits..collect..IntoIterator$GT$9into_iter17h67ecde5465ddbb36E', symObjAddr: 0x1EC8, symBinAddr: 0x22ECC, symSize: 0x14 }
  - { offset: 0x8919E, size: 0x8, addend: 0x0, symName: '__ZN103_$LT$pyo3..instance..Bound$LT$pyo3..types..any..PyAny$GT$$u20$as$u20$pyo3..types..any..PyAnyMethods$GT$12rich_compare17hcffc604c7248970cE', symObjAddr: 0x0, symBinAddr: 0x21004, symSize: 0x140 }
  - { offset: 0x89220, size: 0x8, addend: 0x0, symName: '__ZN103_$LT$pyo3..instance..Bound$LT$pyo3..types..any..PyAny$GT$$u20$as$u20$pyo3..types..any..PyAnyMethods$GT$14is_instance_of17h3e637239dcc69b93E', symObjAddr: 0x140, symBinAddr: 0x21144, symSize: 0x24 }
  - { offset: 0x89257, size: 0x8, addend: 0x0, symName: '__ZN103_$LT$pyo3..instance..Bound$LT$pyo3..types..any..PyAny$GT$$u20$as$u20$pyo3..types..any..PyAnyMethods$GT$18downcast_unchecked17h02fc38ef407d8973E', symObjAddr: 0x164, symBinAddr: 0x21168, symSize: 0x74 }
  - { offset: 0x8928E, size: 0x8, addend: 0x0, symName: '__ZN103_$LT$pyo3..instance..Bound$LT$pyo3..types..any..PyAny$GT$$u20$as$u20$pyo3..types..any..PyAnyMethods$GT$18downcast_unchecked17h2bc88ec19b2ca786E', symObjAddr: 0x1D8, symBinAddr: 0x211DC, symSize: 0x74 }
  - { offset: 0x892C5, size: 0x8, addend: 0x0, symName: '__ZN103_$LT$pyo3..instance..Bound$LT$pyo3..types..any..PyAny$GT$$u20$as$u20$pyo3..types..any..PyAnyMethods$GT$18downcast_unchecked17hcf3664c8e7819291E', symObjAddr: 0x24C, symBinAddr: 0x21250, symSize: 0x74 }
  - { offset: 0x892FC, size: 0x8, addend: 0x0, symName: '__ZN103_$LT$pyo3..instance..Bound$LT$pyo3..types..any..PyAny$GT$$u20$as$u20$pyo3..types..any..PyAnyMethods$GT$18downcast_unchecked17hde62b72969453b32E', symObjAddr: 0x2C0, symBinAddr: 0x212C4, symSize: 0x74 }
  - { offset: 0x89333, size: 0x8, addend: 0x0, symName: '__ZN103_$LT$pyo3..instance..Bound$LT$pyo3..types..any..PyAny$GT$$u20$as$u20$pyo3..types..any..PyAnyMethods$GT$23downcast_into_unchecked17h2f281f1b79199aa6E', symObjAddr: 0x334, symBinAddr: 0x21338, symSize: 0x14 }
  - { offset: 0x8936A, size: 0x8, addend: 0x0, symName: '__ZN103_$LT$pyo3..instance..Bound$LT$pyo3..types..any..PyAny$GT$$u20$as$u20$pyo3..types..any..PyAnyMethods$GT$23downcast_into_unchecked17hca76ff3f59dad441E', symObjAddr: 0x348, symBinAddr: 0x2134C, symSize: 0x14 }
  - { offset: 0x893A1, size: 0x8, addend: 0x0, symName: '__ZN103_$LT$pyo3..instance..Bound$LT$pyo3..types..any..PyAny$GT$$u20$as$u20$pyo3..types..any..PyAnyMethods$GT$2eq17h2f82baf4c2730f13E', symObjAddr: 0x35C, symBinAddr: 0x21360, symSize: 0x48 }
  - { offset: 0x893E7, size: 0x8, addend: 0x0, symName: '__ZN103_$LT$pyo3..instance..Bound$LT$pyo3..types..any..PyAny$GT$$u20$as$u20$pyo3..types..any..PyAnyMethods$GT$7extract17h02f852c54f274aefE', symObjAddr: 0x3A4, symBinAddr: 0x213A8, symSize: 0x30 }
  - { offset: 0x8941E, size: 0x8, addend: 0x0, symName: '__ZN103_$LT$pyo3..instance..Bound$LT$pyo3..types..any..PyAny$GT$$u20$as$u20$pyo3..types..any..PyAnyMethods$GT$7extract17h0a1fdcd0efb1573dE', symObjAddr: 0x3D4, symBinAddr: 0x213D8, symSize: 0x30 }
  - { offset: 0x89455, size: 0x8, addend: 0x0, symName: '__ZN103_$LT$pyo3..instance..Bound$LT$pyo3..types..any..PyAny$GT$$u20$as$u20$pyo3..types..any..PyAnyMethods$GT$7extract17h219cf171d55e5aa3E', symObjAddr: 0x404, symBinAddr: 0x21408, symSize: 0x30 }
  - { offset: 0x8948C, size: 0x8, addend: 0x0, symName: '__ZN103_$LT$pyo3..instance..Bound$LT$pyo3..types..any..PyAny$GT$$u20$as$u20$pyo3..types..any..PyAnyMethods$GT$7extract17h3b0c393e7594795bE', symObjAddr: 0x434, symBinAddr: 0x21438, symSize: 0x30 }
  - { offset: 0x894C3, size: 0x8, addend: 0x0, symName: '__ZN103_$LT$pyo3..instance..Bound$LT$pyo3..types..any..PyAny$GT$$u20$as$u20$pyo3..types..any..PyAnyMethods$GT$7extract17h66b3aecb2b119f30E', symObjAddr: 0x464, symBinAddr: 0x21468, symSize: 0x30 }
  - { offset: 0x894FA, size: 0x8, addend: 0x0, symName: '__ZN103_$LT$pyo3..instance..Bound$LT$pyo3..types..any..PyAny$GT$$u20$as$u20$pyo3..types..any..PyAnyMethods$GT$7extract17hc9196f3cea423bf5E', symObjAddr: 0x494, symBinAddr: 0x21498, symSize: 0x30 }
  - { offset: 0x89531, size: 0x8, addend: 0x0, symName: '__ZN103_$LT$pyo3..instance..Bound$LT$pyo3..types..any..PyAny$GT$$u20$as$u20$pyo3..types..any..PyAnyMethods$GT$7extract17hefa8f21eb3744431E', symObjAddr: 0x4C4, symBinAddr: 0x214C8, symSize: 0x30 }
  - { offset: 0x89568, size: 0x8, addend: 0x0, symName: '__ZN103_$LT$pyo3..instance..Bound$LT$pyo3..types..any..PyAny$GT$$u20$as$u20$pyo3..types..any..PyAnyMethods$GT$7extract17hfe640ede38a81901E', symObjAddr: 0x4F4, symBinAddr: 0x214F8, symSize: 0x30 }
  - { offset: 0x8959F, size: 0x8, addend: 0x0, symName: '__ZN103_$LT$pyo3..instance..Bound$LT$pyo3..types..any..PyAny$GT$$u20$as$u20$pyo3..types..any..PyAnyMethods$GT$8downcast17h047c2bc6923d0e56E', symObjAddr: 0x524, symBinAddr: 0x21528, symSize: 0x84 }
  - { offset: 0x895D6, size: 0x8, addend: 0x0, symName: '__ZN103_$LT$pyo3..instance..Bound$LT$pyo3..types..any..PyAny$GT$$u20$as$u20$pyo3..types..any..PyAnyMethods$GT$8downcast17h232e8f85a70c1f9bE', symObjAddr: 0x5A8, symBinAddr: 0x215AC, symSize: 0x84 }
  - { offset: 0x8960D, size: 0x8, addend: 0x0, symName: '__ZN103_$LT$pyo3..instance..Bound$LT$pyo3..types..any..PyAny$GT$$u20$as$u20$pyo3..types..any..PyAnyMethods$GT$8downcast17ha226e01edfcc3efdE', symObjAddr: 0x62C, symBinAddr: 0x21630, symSize: 0x84 }
  - { offset: 0x89644, size: 0x8, addend: 0x0, symName: '__ZN103_$LT$pyo3..instance..Bound$LT$pyo3..types..any..PyAny$GT$$u20$as$u20$pyo3..types..any..PyAnyMethods$GT$8downcast17hb0cc542938ffc77bE', symObjAddr: 0x6B0, symBinAddr: 0x216B4, symSize: 0x84 }
  - { offset: 0x8969C, size: 0x8, addend: 0x0, symName: '__ZN107_$LT$pyo3..instance..Bound$LT$pyo3..types..dict..PyDict$GT$$u20$as$u20$pyo3..types..dict..PyDictMethods$GT$8set_item17hab291b40fcf32960E', symObjAddr: 0x734, symBinAddr: 0x21738, symSize: 0x274 }
  - { offset: 0x89769, size: 0x8, addend: 0x0, symName: '__ZN115_$LT$pyo3..instance..Bound$LT$pyo3..types..module..PyModule$GT$$u20$as$u20$pyo3..types..module..PyModuleMethods$GT$3add17h03df19812ee4fbc7E', symObjAddr: 0x9DC, symBinAddr: 0x219E0, symSize: 0x258 }
  - { offset: 0x89834, size: 0x8, addend: 0x0, symName: '__ZN115_$LT$pyo3..instance..Bound$LT$pyo3..types..module..PyModule$GT$$u20$as$u20$pyo3..types..module..PyModuleMethods$GT$3add17h39e5e52b87645609E', symObjAddr: 0xC34, symBinAddr: 0x21C38, symSize: 0x248 }
  - { offset: 0x898FF, size: 0x8, addend: 0x0, symName: '__ZN115_$LT$pyo3..instance..Bound$LT$pyo3..types..module..PyModule$GT$$u20$as$u20$pyo3..types..module..PyModuleMethods$GT$3add17h772f6a4bba7bac06E', symObjAddr: 0xE7C, symBinAddr: 0x21E80, symSize: 0x22C }
  - { offset: 0x899C9, size: 0x8, addend: 0x0, symName: '__ZN115_$LT$pyo3..instance..Bound$LT$pyo3..types..module..PyModule$GT$$u20$as$u20$pyo3..types..module..PyModuleMethods$GT$9add_class17h36c94aa3edfac60fE', symObjAddr: 0x10A8, symBinAddr: 0x220AC, symSize: 0xB8 }
  - { offset: 0x89A3D, size: 0x8, addend: 0x0, symName: '__ZN115_$LT$pyo3..instance..Bound$LT$pyo3..types..module..PyModule$GT$$u20$as$u20$pyo3..types..module..PyModuleMethods$GT$9add_class17hd88c66e6f17e8da1E', symObjAddr: 0x1160, symBinAddr: 0x22164, symSize: 0xB8 }
  - { offset: 0x89BB0, size: 0x8, addend: 0x0, symName: '__ZN111_$LT$T$u20$as$u20$pyo3..impl_..callback..IntoPyCallbackOutput$LT$$BP$mut$u20$pyo3_ffi..object..PyObject$GT$$GT$7convert17hea0ade5f6a8a3b88E', symObjAddr: 0x9A8, symBinAddr: 0x219AC, symSize: 0x34 }
  - { offset: 0x89C0A, size: 0x8, addend: 0x0, symName: '__ZN4pyo35impl_9pymethods133_$LT$impl$u20$core..convert..From$LT$pyo3..impl_..pymethods..BoundRef$LT$T$GT$$GT$$u20$for$u20$$RF$pyo3..instance..Bound$LT$T$GT$$GT$4from17h9d2032316f889afbE', symObjAddr: 0x12F4, symBinAddr: 0x222F8, symSize: 0x14 }
  - { offset: 0x89CD0, size: 0x8, addend: 0x0, symName: '__ZN80_$LT$T$u20$as$u20$pyo3..impl_..extract_argument..PyFunctionArgument$LT$_$GT$$GT$7extract17h93633a73f7166fbdE', symObjAddr: 0x2094, symBinAddr: 0x23098, symSize: 0x28 }
  - { offset: 0x89D0F, size: 0x8, addend: 0x0, symName: '__ZN80_$LT$T$u20$as$u20$pyo3..impl_..extract_argument..PyFunctionArgument$LT$_$GT$$GT$7extract17h9f008931d9f1c580E', symObjAddr: 0x20BC, symBinAddr: 0x230C0, symSize: 0x28 }
  - { offset: 0x89D5B, size: 0x8, addend: 0x0, symName: __ZN4pyo310conversion15IntoPyObjectExt22into_pyobject_or_pyerr17h158d33849ba85466E, symObjAddr: 0x1264, symBinAddr: 0x22268, symSize: 0x48 }
  - { offset: 0x89DCB, size: 0x8, addend: 0x0, symName: __ZN4pyo310conversion15IntoPyObjectExt22into_pyobject_or_pyerr17h86d736f99262a2faE, symObjAddr: 0x12AC, symBinAddr: 0x222B0, symSize: 0x48 }
  - { offset: 0x89E41, size: 0x8, addend: 0x0, symName: '__ZN57_$LT$T$u20$as$u20$pyo3..conversion..FromPyObjectBound$GT$20from_py_object_bound17h5d1b2658b78bba29E', symObjAddr: 0x1E60, symBinAddr: 0x22E64, symSize: 0x34 }
  - { offset: 0x89E78, size: 0x8, addend: 0x0, symName: '__ZN57_$LT$T$u20$as$u20$pyo3..conversion..FromPyObjectBound$GT$20from_py_object_bound17h967ed85586f110e8E', symObjAddr: 0x1E94, symBinAddr: 0x22E98, symSize: 0x34 }
  - { offset: 0x89EB5, size: 0x8, addend: 0x0, symName: '__ZN81_$LT$pyo3..instance..Bound$LT$T$GT$$u20$as$u20$pyo3..conversion..IntoPyObject$GT$13into_pyobject17hf4677cc98aaf1c97E', symObjAddr: 0x217C, symBinAddr: 0x23180, symSize: 0x14 }
  - { offset: 0x8A715, size: 0x8, addend: 0x0, symName: '__ZN4pyo38instance39Borrowed$LT$pyo3..types..any..PyAny$GT$15from_ptr_or_opt28_$u7b$$u7b$closure$u7d$$u7d$17hfb5a7ec16193fbb4E', symObjAddr: 0x1DC8, symBinAddr: 0x22DCC, symSize: 0x20 }
  - { offset: 0x8A92E, size: 0x8, addend: 0x0, symName: '__ZN69_$LT$pyo3..instance..Bound$LT$T$GT$$u20$as$u20$core..clone..Clone$GT$5clone17ha12b2514fc604180E', symObjAddr: 0x1EDC, symBinAddr: 0x22EE0, symSize: 0x34 }
  - { offset: 0x8A965, size: 0x8, addend: 0x0, symName: '__ZN69_$LT$pyo3..instance..Bound$LT$T$GT$$u20$as$u20$core..clone..Clone$GT$5clone17haa1da194ed18eccaE', symObjAddr: 0x1F10, symBinAddr: 0x22F14, symSize: 0x34 }
  - { offset: 0x8A99C, size: 0x8, addend: 0x0, symName: '__ZN69_$LT$pyo3..instance..Bound$LT$T$GT$$u20$as$u20$core..clone..Clone$GT$5clone17hdb5c13a515aad833E', symObjAddr: 0x1F44, symBinAddr: 0x22F48, symSize: 0x34 }
  - { offset: 0x8A9D3, size: 0x8, addend: 0x0, symName: '__ZN69_$LT$pyo3..instance..Bound$LT$T$GT$$u20$as$u20$core..clone..Clone$GT$5clone17he12d34bd9258686cE', symObjAddr: 0x1F78, symBinAddr: 0x22F7C, symSize: 0x34 }
  - { offset: 0x8AA10, size: 0x8, addend: 0x0, symName: '__ZN77_$LT$pyo3..instance..Borrowed$LT$T$GT$$u20$as$u20$core..ops..deref..Deref$GT$5deref17h41d7c3ee4ec50399E', symObjAddr: 0x1FAC, symBinAddr: 0x22FB0, symSize: 0x74 }
  - { offset: 0x8AA47, size: 0x8, addend: 0x0, symName: '__ZN77_$LT$pyo3..instance..Borrowed$LT$T$GT$$u20$as$u20$core..ops..deref..Deref$GT$5deref17h48e8dee85e84f56bE', symObjAddr: 0x2020, symBinAddr: 0x23024, symSize: 0x74 }
  - { offset: 0x8AA84, size: 0x8, addend: 0x0, symName: '__ZN81_$LT$pyo3..instance..Bound$LT$T$GT$$u20$as$u20$pyo3..conversion..FromPyObject$GT$13extract_bound17h37a03b9776f9f3bdE', symObjAddr: 0x20E4, symBinAddr: 0x230E8, symSize: 0x4C }
  - { offset: 0x8AABB, size: 0x8, addend: 0x0, symName: '__ZN81_$LT$pyo3..instance..Bound$LT$T$GT$$u20$as$u20$pyo3..conversion..FromPyObject$GT$13extract_bound17h72deb4bc461a3be3E', symObjAddr: 0x2130, symBinAddr: 0x23134, symSize: 0x4C }
  - { offset: 0x8AAF8, size: 0x8, addend: 0x0, symName: '__ZN87_$LT$pyo3..instance..Bound$LT$T$GT$$u20$as$u20$pyo3..instance..BoundObject$LT$T$GT$$GT$8into_any17h525a3042261fd000E', symObjAddr: 0x2190, symBinAddr: 0x23194, symSize: 0x24 }
  - { offset: 0x8AB2F, size: 0x8, addend: 0x0, symName: '__ZN87_$LT$pyo3..instance..Bound$LT$T$GT$$u20$as$u20$pyo3..instance..BoundObject$LT$T$GT$$GT$8into_any17h88e4e9eeedde8412E', symObjAddr: 0x21B4, symBinAddr: 0x231B8, symSize: 0x24 }
  - { offset: 0x8AB66, size: 0x8, addend: 0x0, symName: '__ZN87_$LT$pyo3..instance..Bound$LT$T$GT$$u20$as$u20$pyo3..instance..BoundObject$LT$T$GT$$GT$8into_any17ha188dad966b8f01aE', symObjAddr: 0x21D8, symBinAddr: 0x231DC, symSize: 0x24 }
  - { offset: 0x8AB9D, size: 0x8, addend: 0x0, symName: '__ZN87_$LT$pyo3..instance..Bound$LT$T$GT$$u20$as$u20$pyo3..instance..BoundObject$LT$T$GT$$GT$8into_any17hce178d9234952097E', symObjAddr: 0x21FC, symBinAddr: 0x23200, symSize: 0x24 }
  - { offset: 0x8ABD4, size: 0x8, addend: 0x0, symName: '__ZN87_$LT$pyo3..instance..Bound$LT$T$GT$$u20$as$u20$pyo3..instance..BoundObject$LT$T$GT$$GT$8into_ptr17he56892d95c36ee4eE', symObjAddr: 0x2220, symBinAddr: 0x23224, symSize: 0x24 }
  - { offset: 0x8AC0B, size: 0x8, addend: 0x0, symName: '__ZN87_$LT$pyo3..instance..Bound$LT$T$GT$$u20$as$u20$pyo3..instance..BoundObject$LT$T$GT$$GT$8into_ptr17hf18e57c5bec993acE', symObjAddr: 0x2244, symBinAddr: 0x23248, symSize: 0x24 }
  - { offset: 0x8AC48, size: 0x8, addend: 0x0, symName: '__ZN90_$LT$pyo3..instance..Borrowed$LT$T$GT$$u20$as$u20$pyo3..instance..BoundObject$LT$T$GT$$GT$8into_ptr17hebf387e6e8128a1cE', symObjAddr: 0x2268, symBinAddr: 0x2326C, symSize: 0x30 }
  - { offset: 0x8B0ED, size: 0x8, addend: 0x0, symName: '__ZN44_$LT$T$u20$as$u20$alloc..borrow..ToOwned$GT$8to_owned17h2b905332041b796aE', symObjAddr: 0x1218, symBinAddr: 0x2221C, symSize: 0x24 }
  - { offset: 0x8B8BB, size: 0x8, addend: 0x0, symName: '__ZN4pyo38instance11Py$LT$T$GT$10into_bound17h2c32acffed70a968E', symObjAddr: 0x1308, symBinAddr: 0x2230C, symSize: 0x1C }
  - { offset: 0x8B9A1, size: 0x8, addend: 0x0, symName: '__ZN4pyo38instance11Py$LT$T$GT$10into_bound17hc3963944218c1de4E', symObjAddr: 0x1324, symBinAddr: 0x22328, symSize: 0x1C }
  - { offset: 0x8B9E8, size: 0x8, addend: 0x0, symName: '__ZN4pyo38instance11Py$LT$T$GT$13from_non_null17h036dbfd9a155c200E', symObjAddr: 0x1340, symBinAddr: 0x22344, symSize: 0x14 }
  - { offset: 0x8BA14, size: 0x8, addend: 0x0, symName: '__ZN4pyo38instance11Py$LT$T$GT$13from_non_null17h3635f49ccedcdc1bE', symObjAddr: 0x1354, symBinAddr: 0x22358, symSize: 0x14 }
  - { offset: 0x8BA40, size: 0x8, addend: 0x0, symName: '__ZN4pyo38instance11Py$LT$T$GT$13from_non_null17h3dd55cc99abcae2dE', symObjAddr: 0x1368, symBinAddr: 0x2236C, symSize: 0x14 }
  - { offset: 0x8BA6C, size: 0x8, addend: 0x0, symName: '__ZN4pyo38instance11Py$LT$T$GT$13from_non_null17hd0cda407d39cd13dE', symObjAddr: 0x137C, symBinAddr: 0x22380, symSize: 0x14 }
  - { offset: 0x8BAB2, size: 0x8, addend: 0x0, symName: '__ZN4pyo38instance11Py$LT$T$GT$16get_class_object17h3e49e0c8409be6a7E', symObjAddr: 0x1390, symBinAddr: 0x22394, symSize: 0x78 }
  - { offset: 0x8BB0E, size: 0x8, addend: 0x0, symName: '__ZN4pyo38instance11Py$LT$T$GT$16get_class_object17h6af208930d84c5d9E', symObjAddr: 0x1408, symBinAddr: 0x2240C, symSize: 0x78 }
  - { offset: 0x8BB5D, size: 0x8, addend: 0x0, symName: '__ZN4pyo38instance11Py$LT$T$GT$6as_ptr17h501c75aafaa8e9b2E', symObjAddr: 0x1480, symBinAddr: 0x22484, symSize: 0x1C }
  - { offset: 0x8BB89, size: 0x8, addend: 0x0, symName: '__ZN4pyo38instance11Py$LT$T$GT$6as_ptr17hcff5d973bcd334d9E', symObjAddr: 0x149C, symBinAddr: 0x224A0, symSize: 0x1C }
  - { offset: 0x8BBB5, size: 0x8, addend: 0x0, symName: '__ZN4pyo38instance11Py$LT$T$GT$6as_ptr17hda5a8126cc4c5bb4E', symObjAddr: 0x14B8, symBinAddr: 0x224BC, symSize: 0x1C }
  - { offset: 0x8BBE1, size: 0x8, addend: 0x0, symName: '__ZN4pyo38instance11Py$LT$T$GT$8into_any17ha20a7a143bdb7cf2E', symObjAddr: 0x14D4, symBinAddr: 0x224D8, symSize: 0x3C }
  - { offset: 0x8BC0D, size: 0x8, addend: 0x0, symName: '__ZN4pyo38instance11Py$LT$T$GT$8into_any17he787ca4bed51ef6dE', symObjAddr: 0x1510, symBinAddr: 0x22514, symSize: 0x3C }
  - { offset: 0x8BC39, size: 0x8, addend: 0x0, symName: '__ZN4pyo38instance11Py$LT$T$GT$8into_any17hf4c893553ffeae81E', symObjAddr: 0x154C, symBinAddr: 0x22550, symSize: 0x3C }
  - { offset: 0x8BC65, size: 0x8, addend: 0x0, symName: '__ZN4pyo38instance11Py$LT$T$GT$8into_ptr17hb9aae8bec69b4594E', symObjAddr: 0x1588, symBinAddr: 0x2258C, symSize: 0x30 }
  - { offset: 0x8BC91, size: 0x8, addend: 0x0, symName: '__ZN4pyo38instance11Py$LT$T$GT$9clone_ref17h62977c71c44809f0E', symObjAddr: 0x15B8, symBinAddr: 0x225BC, symSize: 0xF8 }
  - { offset: 0x8BCF6, size: 0x8, addend: 0x0, symName: '__ZN4pyo38instance11Py$LT$T$GT$9clone_ref17h7bd843df863fd718E', symObjAddr: 0x16B0, symBinAddr: 0x226B4, symSize: 0xF8 }
  - { offset: 0x8BD68, size: 0x8, addend: 0x0, symName: '__ZN4pyo38instance11Py$LT$T$GT$9clone_ref17hc11d93d4e8bd9fe1E', symObjAddr: 0x17A8, symBinAddr: 0x227AC, symSize: 0xF8 }
  - { offset: 0x8BDCD, size: 0x8, addend: 0x0, symName: '__ZN4pyo38instance11Py$LT$T$GT$9clone_ref17hf2f09f84ffb07916E', symObjAddr: 0x18A0, symBinAddr: 0x228A4, symSize: 0xF8 }
  - { offset: 0x8BE3F, size: 0x8, addend: 0x0, symName: '__ZN4pyo38instance14Bound$LT$T$GT$10try_borrow17h2d2cfb1a3950120aE', symObjAddr: 0x1998, symBinAddr: 0x2299C, symSize: 0x24 }
  - { offset: 0x8BE78, size: 0x8, addend: 0x0, symName: '__ZN4pyo38instance14Bound$LT$T$GT$10try_borrow17ha08365688bde8987E', symObjAddr: 0x19BC, symBinAddr: 0x229C0, symSize: 0x24 }
  - { offset: 0x8BEA4, size: 0x8, addend: 0x0, symName: '__ZN4pyo38instance14Bound$LT$T$GT$16get_class_object17h360d3edd77c83c02E', symObjAddr: 0x19E0, symBinAddr: 0x229E4, symSize: 0x2C }
  - { offset: 0x8BED0, size: 0x8, addend: 0x0, symName: '__ZN4pyo38instance14Bound$LT$T$GT$16get_class_object17h787c91ee7a84ec0cE', symObjAddr: 0x1A0C, symBinAddr: 0x22A10, symSize: 0x2C }
  - { offset: 0x8C0E3, size: 0x8, addend: 0x0, symName: '__ZN4pyo38instance14Bound$LT$T$GT$3new17ha546b4991b95024eE', symObjAddr: 0x1A38, symBinAddr: 0x22A3C, symSize: 0x3C }
  - { offset: 0x8C131, size: 0x8, addend: 0x0, symName: '__ZN4pyo38instance14Bound$LT$T$GT$3new17hbf4064574254bf0fE', symObjAddr: 0x1A74, symBinAddr: 0x22A78, symSize: 0x3C }
  - { offset: 0x8C17F, size: 0x8, addend: 0x0, symName: '__ZN4pyo38instance14Bound$LT$T$GT$6as_ptr17h20843897e08cabc0E', symObjAddr: 0x1AB0, symBinAddr: 0x22AB4, symSize: 0x2C }
  - { offset: 0x8C1AB, size: 0x8, addend: 0x0, symName: '__ZN4pyo38instance14Bound$LT$T$GT$6as_ptr17h58d7cec396f16954E', symObjAddr: 0x1ADC, symBinAddr: 0x22AE0, symSize: 0x2C }
  - { offset: 0x8C1D7, size: 0x8, addend: 0x0, symName: '__ZN4pyo38instance14Bound$LT$T$GT$6unbind17h127d4585888a6119E', symObjAddr: 0x1B08, symBinAddr: 0x22B0C, symSize: 0x48 }
  - { offset: 0x8C221, size: 0x8, addend: 0x0, symName: '__ZN4pyo38instance14Bound$LT$T$GT$6unbind17hbed5e237e7f8e56bE', symObjAddr: 0x1B50, symBinAddr: 0x22B54, symSize: 0x48 }
  - { offset: 0x8C26B, size: 0x8, addend: 0x0, symName: '__ZN4pyo38instance14Bound$LT$T$GT$6unbind17hf13a4c5bc4b9ad23E', symObjAddr: 0x1B98, symBinAddr: 0x22B9C, symSize: 0x48 }
  - { offset: 0x8C2B5, size: 0x8, addend: 0x0, symName: '__ZN4pyo38instance14Bound$LT$T$GT$8into_any17h39615f2a0c3c93f9E', symObjAddr: 0x1BE0, symBinAddr: 0x22BE4, symSize: 0x30 }
  - { offset: 0x8C2E1, size: 0x8, addend: 0x0, symName: '__ZN4pyo38instance14Bound$LT$T$GT$8into_any17ha93ae270a258f360E', symObjAddr: 0x1C10, symBinAddr: 0x22C14, symSize: 0x30 }
  - { offset: 0x8C30D, size: 0x8, addend: 0x0, symName: '__ZN4pyo38instance14Bound$LT$T$GT$8into_any17he97749d47567c265E', symObjAddr: 0x1C40, symBinAddr: 0x22C44, symSize: 0x30 }
  - { offset: 0x8C339, size: 0x8, addend: 0x0, symName: '__ZN4pyo38instance14Bound$LT$T$GT$8into_ptr17h02682319bb6ca1e7E', symObjAddr: 0x1C70, symBinAddr: 0x22C74, symSize: 0x40 }
  - { offset: 0x8C365, size: 0x8, addend: 0x0, symName: '__ZN4pyo38instance14Bound$LT$T$GT$8into_ptr17h9f413a81d767347fE', symObjAddr: 0x1CB0, symBinAddr: 0x22CB4, symSize: 0x40 }
  - { offset: 0x8C391, size: 0x8, addend: 0x0, symName: '__ZN4pyo38instance14Bound$LT$T$GT$8into_ptr17hce86173a8751917bE', symObjAddr: 0x1CF0, symBinAddr: 0x22CF4, symSize: 0x40 }
  - { offset: 0x8C3BD, size: 0x8, addend: 0x0, symName: '__ZN4pyo38instance14Bound$LT$T$GT$8into_ptr17hf80f492c42980c6cE', symObjAddr: 0x1D30, symBinAddr: 0x22D34, symSize: 0x40 }
  - { offset: 0x8C3E9, size: 0x8, addend: 0x0, symName: '__ZN4pyo38instance17Borrowed$LT$T$GT$8to_owned17h6203e537c0e821ebE', symObjAddr: 0x1D70, symBinAddr: 0x22D74, symSize: 0x2C }
  - { offset: 0x8C415, size: 0x8, addend: 0x0, symName: '__ZN4pyo38instance17Borrowed$LT$T$GT$8to_owned17he94d41e5b391c8ecE', symObjAddr: 0x1D9C, symBinAddr: 0x22DA0, symSize: 0x2C }
  - { offset: 0x8C45B, size: 0x8, addend: 0x0, symName: '__ZN4pyo38instance39Borrowed$LT$pyo3..types..any..PyAny$GT$18downcast_unchecked17h2b0da097ff6340c2E', symObjAddr: 0x1DE8, symBinAddr: 0x22DEC, symSize: 0x14 }
  - { offset: 0x8C487, size: 0x8, addend: 0x0, symName: '__ZN4pyo38instance39Borrowed$LT$pyo3..types..any..PyAny$GT$18downcast_unchecked17h9070e0703187222bE', symObjAddr: 0x1DFC, symBinAddr: 0x22E00, symSize: 0x14 }
  - { offset: 0x8C4B3, size: 0x8, addend: 0x0, symName: '__ZN4pyo38instance39Borrowed$LT$pyo3..types..any..PyAny$GT$18downcast_unchecked17haf09d7b2aa54925cE', symObjAddr: 0x1E10, symBinAddr: 0x22E14, symSize: 0x14 }
  - { offset: 0x8C4EC, size: 0x8, addend: 0x0, symName: '__ZN4pyo38instance39Borrowed$LT$pyo3..types..any..PyAny$GT$18downcast_unchecked17hda12cce0393dc89aE', symObjAddr: 0x1E24, symBinAddr: 0x22E28, symSize: 0x14 }
  - { offset: 0x8C525, size: 0x8, addend: 0x0, symName: '__ZN4pyo38internal8get_slot78_$LT$impl$u20$pyo3..instance..Bound$LT$pyo3..types..typeobject..PyType$GT$$GT$8get_slot17hcede9666a9f22f53E', symObjAddr: 0x1E38, symBinAddr: 0x22E3C, symSize: 0x28 }
  - { offset: 0x8C6B4, size: 0x8, addend: 0x0, symName: '__ZN111_$LT$T$u20$as$u20$pyo3..impl_..callback..IntoPyCallbackOutput$LT$$BP$mut$u20$pyo3_ffi..object..PyObject$GT$$GT$7convert17h2f2389968728e721E', symObjAddr: 0x0, symBinAddr: 0x2329C, symSize: 0x2C }
  - { offset: 0x8DBB1, size: 0x8, addend: 0x0, symName: '__ZN111_$LT$T$u20$as$u20$pyo3..impl_..callback..IntoPyCallbackOutput$LT$$BP$mut$u20$pyo3_ffi..object..PyObject$GT$$GT$7convert17h2f2389968728e721E', symObjAddr: 0x0, symBinAddr: 0x2329C, symSize: 0x2C }
  - { offset: 0x8DC0C, size: 0x8, addend: 0x0, symName: '__ZN80_$LT$T$u20$as$u20$pyo3..impl_..extract_argument..PyFunctionArgument$LT$_$GT$$GT$7extract17hb356f3a9f5715752E', symObjAddr: 0x60, symBinAddr: 0x232FC, symSize: 0x28 }
  - { offset: 0x8DC73, size: 0x8, addend: 0x0, symName: '__ZN57_$LT$T$u20$as$u20$pyo3..conversion..FromPyObjectBound$GT$20from_py_object_bound17hb193bc6a2a1a2540E', symObjAddr: 0x2C, symBinAddr: 0x232C8, symSize: 0x34 }
  - { offset: 0x8E6F7, size: 0x8, addend: 0x0, symName: __ZN4core4sync6atomic11AtomicUsize3new17h546720c1aa41d56eE, symObjAddr: 0x0, symBinAddr: 0x23324, symSize: 0x18 }
  - { offset: 0x8E76C, size: 0x8, addend: 0x0, symName: __ZN4core4sync6atomic11AtomicUsize3new17h546720c1aa41d56eE, symObjAddr: 0x0, symBinAddr: 0x23324, symSize: 0x18 }
  - { offset: 0x8E7AD, size: 0x8, addend: 0x0, symName: '__ZN5alloc7raw_vec19RawVec$LT$T$C$A$GT$8grow_one17h3bbf42da9173a2fcE', symObjAddr: 0x0, symBinAddr: 0x2333C, symSize: 0x90 }
  - { offset: 0x8F0CF, size: 0x8, addend: 0x0, symName: '__ZN5alloc7raw_vec19RawVec$LT$T$C$A$GT$8grow_one17h3bbf42da9173a2fcE', symObjAddr: 0x0, symBinAddr: 0x2333C, symSize: 0x90 }
  - { offset: 0x8F446, size: 0x8, addend: 0x0, symName: '__ZN5alloc7raw_vec19RawVec$LT$T$C$A$GT$8grow_one17hc005d907af04f846E', symObjAddr: 0x90, symBinAddr: 0x233CC, symSize: 0x90 }
  - { offset: 0x8F4D1, size: 0x8, addend: 0x0, symName: __ZN4pyo35impl_9pymethods11tp_new_impl17h0d7b78e4aaae5625E, symObjAddr: 0x0, symBinAddr: 0x2345C, symSize: 0x3C }
  - { offset: 0x8F50B, size: 0x8, addend: 0x0, symName: '__ZN50_$LT$T$u20$as$u20$core..convert..Into$LT$U$GT$$GT$4into17h24066e63033720d4E', symObjAddr: 0x78, symBinAddr: 0x234D4, symSize: 0x24 }
  - { offset: 0x90D45, size: 0x8, addend: 0x0, symName: __ZN4pyo35impl_9pymethods11tp_new_impl17h0d7b78e4aaae5625E, symObjAddr: 0x0, symBinAddr: 0x2345C, symSize: 0x3C }
  - { offset: 0x90DA7, size: 0x8, addend: 0x0, symName: __ZN4pyo35impl_9pymethods11tp_new_impl17h5bb32668966280abE, symObjAddr: 0x3C, symBinAddr: 0x23498, symSize: 0x3C }
  - { offset: 0x91C75, size: 0x8, addend: 0x0, symName: '__ZN4pyo34sync20GILOnceCell$LT$T$GT$11get_or_init17h0b4c85e5d4fcf071E', symObjAddr: 0x0, symBinAddr: 0x234F8, symSize: 0xD8 }
  - { offset: 0x93CCE, size: 0x8, addend: 0x0, symName: '__ZN4pyo34sync20GILOnceCell$LT$T$GT$11get_or_init28_$u7b$$u7b$closure$u7d$$u7d$17h112ee97318819651E', symObjAddr: 0x798, symBinAddr: 0x23C90, symSize: 0x24 }
  - { offset: 0x93D0D, size: 0x8, addend: 0x0, symName: '__ZN4pyo34sync20GILOnceCell$LT$T$GT$11get_or_init28_$u7b$$u7b$closure$u7d$$u7d$17h29a0dcd813d440adE', symObjAddr: 0x7BC, symBinAddr: 0x23CB4, symSize: 0x24 }
  - { offset: 0x93D4C, size: 0x8, addend: 0x0, symName: '__ZN4pyo34sync20GILOnceCell$LT$T$GT$11get_or_init28_$u7b$$u7b$closure$u7d$$u7d$17h2bf88937d5b1554bE', symObjAddr: 0x7E0, symBinAddr: 0x23CD8, symSize: 0x24 }
  - { offset: 0x93D8B, size: 0x8, addend: 0x0, symName: '__ZN4pyo34sync20GILOnceCell$LT$T$GT$11get_or_init28_$u7b$$u7b$closure$u7d$$u7d$17h77647bfd4994cbd4E', symObjAddr: 0x804, symBinAddr: 0x23CFC, symSize: 0x24 }
  - { offset: 0x93DCA, size: 0x8, addend: 0x0, symName: '__ZN4pyo34sync20GILOnceCell$LT$T$GT$11get_or_init28_$u7b$$u7b$closure$u7d$$u7d$17h8e08269e772ac20bE', symObjAddr: 0x828, symBinAddr: 0x23D20, symSize: 0x24 }
  - { offset: 0x93E09, size: 0x8, addend: 0x0, symName: '__ZN4pyo34sync20GILOnceCell$LT$T$GT$11get_or_init28_$u7b$$u7b$closure$u7d$$u7d$17h90d65cd667c92f30E', symObjAddr: 0x84C, symBinAddr: 0x23D44, symSize: 0x24 }
  - { offset: 0x93E48, size: 0x8, addend: 0x0, symName: '__ZN4pyo34sync20GILOnceCell$LT$T$GT$11get_or_init28_$u7b$$u7b$closure$u7d$$u7d$17ha77794d61d25babaE', symObjAddr: 0x870, symBinAddr: 0x23D68, symSize: 0x24 }
  - { offset: 0x93E87, size: 0x8, addend: 0x0, symName: '__ZN4pyo34sync20GILOnceCell$LT$T$GT$11get_or_init28_$u7b$$u7b$closure$u7d$$u7d$17hdb49eaa4f2325af8E', symObjAddr: 0x894, symBinAddr: 0x23D8C, symSize: 0x24 }
  - { offset: 0x93EC6, size: 0x8, addend: 0x0, symName: '__ZN4pyo34sync20GILOnceCell$LT$T$GT$11get_or_init28_$u7b$$u7b$closure$u7d$$u7d$17he5b5f2a0f6632adbE', symObjAddr: 0x8B8, symBinAddr: 0x23DB0, symSize: 0x24 }
  - { offset: 0x93FB6, size: 0x8, addend: 0x0, symName: '__ZN4pyo34sync20GILOnceCell$LT$T$GT$3set28_$u7b$$u7b$closure$u7d$$u7d$17hc9b84a66b5e3ba22E', symObjAddr: 0xBB0, symBinAddr: 0x240A8, symSize: 0x100 }
  - { offset: 0x941EB, size: 0x8, addend: 0x0, symName: __ZN4pyo34sync21with_critical_section17h9c08023e58fedd0fE, symObjAddr: 0x19BC, symBinAddr: 0x241A8, symSize: 0x28 }
  - { offset: 0x94B8B, size: 0x8, addend: 0x0, symName: '__ZN4pyo34sync20GILOnceCell$LT$T$GT$11get_or_init17h0b4c85e5d4fcf071E', symObjAddr: 0x0, symBinAddr: 0x234F8, symSize: 0xD8 }
  - { offset: 0x94C19, size: 0x8, addend: 0x0, symName: '__ZN4pyo34sync20GILOnceCell$LT$T$GT$11get_or_init17h1244c62ed834eddcE', symObjAddr: 0xD8, symBinAddr: 0x235D0, symSize: 0xD8 }
  - { offset: 0x94CA7, size: 0x8, addend: 0x0, symName: '__ZN4pyo34sync20GILOnceCell$LT$T$GT$11get_or_init17h12fb20d6ddb61ffcE', symObjAddr: 0x1B0, symBinAddr: 0x236A8, symSize: 0xD8 }
  - { offset: 0x94D35, size: 0x8, addend: 0x0, symName: '__ZN4pyo34sync20GILOnceCell$LT$T$GT$11get_or_init17h20cf47a45455ea90E', symObjAddr: 0x288, symBinAddr: 0x23780, symSize: 0xD8 }
  - { offset: 0x94DC3, size: 0x8, addend: 0x0, symName: '__ZN4pyo34sync20GILOnceCell$LT$T$GT$11get_or_init17h21cba5e9ec83bf34E', symObjAddr: 0x360, symBinAddr: 0x23858, symSize: 0xD8 }
  - { offset: 0x94E51, size: 0x8, addend: 0x0, symName: '__ZN4pyo34sync20GILOnceCell$LT$T$GT$11get_or_init17h62d4d68d77665088E', symObjAddr: 0x438, symBinAddr: 0x23930, symSize: 0xD8 }
  - { offset: 0x94EDF, size: 0x8, addend: 0x0, symName: '__ZN4pyo34sync20GILOnceCell$LT$T$GT$11get_or_init17hd07e52d52155d829E', symObjAddr: 0x510, symBinAddr: 0x23A08, symSize: 0xD8 }
  - { offset: 0x94F6D, size: 0x8, addend: 0x0, symName: '__ZN4pyo34sync20GILOnceCell$LT$T$GT$11get_or_init17hd10419fa84ba32beE', symObjAddr: 0x5E8, symBinAddr: 0x23AE0, symSize: 0xD8 }
  - { offset: 0x94FFB, size: 0x8, addend: 0x0, symName: '__ZN4pyo34sync20GILOnceCell$LT$T$GT$11get_or_init17he75d85f3d8d1b6c6E', symObjAddr: 0x6C0, symBinAddr: 0x23BB8, symSize: 0xD8 }
  - { offset: 0x9522C, size: 0x8, addend: 0x0, symName: '__ZN4pyo34sync20GILOnceCell$LT$T$GT$15get_or_try_init17h8e42c62efb006af5E', symObjAddr: 0x8DC, symBinAddr: 0x23DD4, symSize: 0xB4 }
  - { offset: 0x952A5, size: 0x8, addend: 0x0, symName: '__ZN4pyo34sync20GILOnceCell$LT$T$GT$15get_or_try_init17hea35ed5dab291272E', symObjAddr: 0x990, symBinAddr: 0x23E88, symSize: 0xB4 }
  - { offset: 0x9531E, size: 0x8, addend: 0x0, symName: '__ZN4pyo34sync20GILOnceCell$LT$T$GT$3get17hba2d924f330e49fcE', symObjAddr: 0xA44, symBinAddr: 0x23F3C, symSize: 0xA8 }
  - { offset: 0x95362, size: 0x8, addend: 0x0, symName: '__ZN4pyo34sync20GILOnceCell$LT$T$GT$3set17h001c48495009fe6fE', symObjAddr: 0xAEC, symBinAddr: 0x23FE4, symSize: 0xC4 }
  - { offset: 0x954AC, size: 0x8, addend: 0x0, symName: '__ZN4pyo34sync20GILOnceCell$LT$T$GT$4init17h027b6158ae648fc8E', symObjAddr: 0xCB0, symBinAddr: 0x10EF48, symSize: 0x11C }
  - { offset: 0x95560, size: 0x8, addend: 0x0, symName: '__ZN4pyo34sync20GILOnceCell$LT$T$GT$4init17h0fabebb2d12309bbE', symObjAddr: 0xDCC, symBinAddr: 0x10F064, symSize: 0x11C }
  - { offset: 0x9563F, size: 0x8, addend: 0x0, symName: '__ZN4pyo34sync20GILOnceCell$LT$T$GT$4init17h2068111f0968affcE', symObjAddr: 0xEE8, symBinAddr: 0x10F180, symSize: 0x188 }
  - { offset: 0x95711, size: 0x8, addend: 0x0, symName: '__ZN4pyo34sync20GILOnceCell$LT$T$GT$4init17h337f3cc85a9c28a3E', symObjAddr: 0x1070, symBinAddr: 0x10F308, symSize: 0x11C }
  - { offset: 0x957C5, size: 0x8, addend: 0x0, symName: '__ZN4pyo34sync20GILOnceCell$LT$T$GT$4init17h4019dce4dabbb2c6E', symObjAddr: 0x118C, symBinAddr: 0x10F424, symSize: 0x188 }
  - { offset: 0x95897, size: 0x8, addend: 0x0, symName: '__ZN4pyo34sync20GILOnceCell$LT$T$GT$4init17h448c71a1055df08fE', symObjAddr: 0x1314, symBinAddr: 0x10F5AC, symSize: 0x11C }
  - { offset: 0x9594B, size: 0x8, addend: 0x0, symName: '__ZN4pyo34sync20GILOnceCell$LT$T$GT$4init17h8819032b73c26559E', symObjAddr: 0x1430, symBinAddr: 0x10F6C8, symSize: 0x11C }
  - { offset: 0x959FF, size: 0x8, addend: 0x0, symName: '__ZN4pyo34sync20GILOnceCell$LT$T$GT$4init17hde5292b84ce0186cE', symObjAddr: 0x154C, symBinAddr: 0x10F7E4, symSize: 0x11C }
  - { offset: 0x95AB3, size: 0x8, addend: 0x0, symName: '__ZN4pyo34sync20GILOnceCell$LT$T$GT$4init17he0f4900413047783E', symObjAddr: 0x1668, symBinAddr: 0x10F900, symSize: 0x11C }
  - { offset: 0x95B67, size: 0x8, addend: 0x0, symName: '__ZN4pyo34sync20GILOnceCell$LT$T$GT$4init17he9600b0264236727E', symObjAddr: 0x1784, symBinAddr: 0x10FA1C, symSize: 0x11C }
  - { offset: 0x95C1B, size: 0x8, addend: 0x0, symName: '__ZN4pyo34sync20GILOnceCell$LT$T$GT$4init17hff52cd6d095480c5E', symObjAddr: 0x18A0, symBinAddr: 0x10FB38, symSize: 0x11C }
  - { offset: 0x95D35, size: 0x8, addend: 0x0, symName: __ZN4core4hint16assert_unchecked18precondition_check17h2af39536b6fd3397E, symObjAddr: 0x0, symBinAddr: 0x241D0, symSize: 0xA4 }
  - { offset: 0x96057, size: 0x8, addend: 0x0, symName: __ZN4core4hint16assert_unchecked18precondition_check17h2af39536b6fd3397E, symObjAddr: 0x0, symBinAddr: 0x241D0, symSize: 0xA4 }
  - { offset: 0x960B7, size: 0x8, addend: 0x0, symName: __ZN4core4hint21unreachable_unchecked18precondition_check17h88b675f04250f481E, symObjAddr: 0xA4, symBinAddr: 0x24274, symSize: 0x84 }
  - { offset: 0x962CA, size: 0x8, addend: 0x0, symName: '__ZN128_$LT$pyo3..impl_..pyclass_init..PyNativeTypeInitializer$LT$T$GT$$u20$as$u20$pyo3..impl_..pyclass_init..PyObjectInit$LT$T$GT$$GT$15into_new_object17h1a1fac75f7f7b27eE', symObjAddr: 0x0, symBinAddr: 0x242F8, symSize: 0x3C }
  - { offset: 0x97696, size: 0x8, addend: 0x0, symName: '__ZN128_$LT$pyo3..impl_..pyclass_init..PyNativeTypeInitializer$LT$T$GT$$u20$as$u20$pyo3..impl_..pyclass_init..PyObjectInit$LT$T$GT$$GT$15into_new_object17h1a1fac75f7f7b27eE', symObjAddr: 0x0, symBinAddr: 0x242F8, symSize: 0x3C }
  - { offset: 0x9771A, size: 0x8, addend: 0x0, symName: '__ZN128_$LT$pyo3..impl_..pyclass_init..PyNativeTypeInitializer$LT$T$GT$$u20$as$u20$pyo3..impl_..pyclass_init..PyObjectInit$LT$T$GT$$GT$17can_be_subclassed17h575de12765dbc744E', symObjAddr: 0x3C, symBinAddr: 0x24334, symSize: 0x18 }
  - { offset: 0x98055, size: 0x8, addend: 0x0, symName: '__ZN4pyo311conversions3std6string68_$LT$impl$u20$pyo3..conversion..IntoPyObject$u20$for$u20$$RF$str$GT$13into_pyobject17hb2a009beb4f4cd80E', symObjAddr: 0x0, symBinAddr: 0x2434C, symSize: 0x28 }
  - { offset: 0x991A3, size: 0x8, addend: 0x0, symName: '__ZN4pyo311conversions3std6string68_$LT$impl$u20$pyo3..conversion..IntoPyObject$u20$for$u20$$RF$str$GT$13into_pyobject17hb2a009beb4f4cd80E', symObjAddr: 0x0, symBinAddr: 0x2434C, symSize: 0x28 }
  - { offset: 0x99866, size: 0x8, addend: 0x0, symName: __ZN4core3ptr5write17h2cbb5c54a8d898f5E, symObjAddr: 0x188, symBinAddr: 0x24374, symSize: 0x24 }
  - { offset: 0x998A8, size: 0x8, addend: 0x0, symName: __ZN4core3ptr5write17hbf23e368564763d8E, symObjAddr: 0x1AC, symBinAddr: 0x24398, symSize: 0x2C }
  - { offset: 0x9A23E, size: 0x8, addend: 0x0, symName: '__ZN106_$LT$core..iter..adapters..GenericShunt$LT$I$C$R$GT$$u20$as$u20$core..iter..traits..iterator..Iterator$GT$4next17hcd238ddb269c911fE', symObjAddr: 0x0, symBinAddr: 0x243C4, symSize: 0xB0 }
  - { offset: 0x9A32F, size: 0x8, addend: 0x0, symName: __ZN4core4iter6traits8iterator8Iterator7collect17h4f92e9d2cbad2eb4E, symObjAddr: 0x424, symBinAddr: 0x247E8, symSize: 0x74 }
  - { offset: 0x9A3F0, size: 0x8, addend: 0x0, symName: '__ZN63_$LT$I$u20$as$u20$core..iter..traits..collect..IntoIterator$GT$9into_iter17h50a89573daa80ffbE', symObjAddr: 0x628, symBinAddr: 0x249EC, symSize: 0x30 }
  - { offset: 0x9A4A1, size: 0x8, addend: 0x0, symName: '__ZN106_$LT$core..iter..adapters..GenericShunt$LT$I$C$R$GT$$u20$as$u20$core..iter..traits..iterator..Iterator$GT$4next17hcd238ddb269c911fE', symObjAddr: 0x0, symBinAddr: 0x243C4, symSize: 0xB0 }
  - { offset: 0x9A534, size: 0x8, addend: 0x0, symName: '__ZN106_$LT$core..iter..adapters..GenericShunt$LT$I$C$R$GT$$u20$as$u20$core..iter..traits..iterator..Iterator$GT$8try_fold17h4584c664b717f354E', symObjAddr: 0xB0, symBinAddr: 0x24474, symSize: 0xC0 }
  - { offset: 0x9A600, size: 0x8, addend: 0x0, symName: '__ZN106_$LT$core..iter..adapters..GenericShunt$LT$I$C$R$GT$$u20$as$u20$core..iter..traits..iterator..Iterator$GT$8try_fold28_$u7b$$u7b$closure$u7d$$u7d$17h9b6c5142d5289436E', symObjAddr: 0x170, symBinAddr: 0x24534, symSize: 0x218 }
  - { offset: 0x9A6FC, size: 0x8, addend: 0x0, symName: '__ZN106_$LT$core..iter..adapters..GenericShunt$LT$I$C$R$GT$$u20$as$u20$core..iter..traits..iterator..Iterator$GT$9size_hint17h2aa9933cf8f8c1c3E', symObjAddr: 0x388, symBinAddr: 0x2474C, symSize: 0x9C }
  - { offset: 0x9A775, size: 0x8, addend: 0x0, symName: __ZN4core4iter8adapters11try_process17hea0d2a9f720858f4E, symObjAddr: 0x498, symBinAddr: 0x2485C, symSize: 0x190 }
  - { offset: 0x9DAB0, size: 0x8, addend: 0x0, symName: '__ZN103_$LT$alloc..vec..into_iter..IntoIter$LT$T$C$A$GT$$u20$as$u20$core..iter..traits..iterator..Iterator$GT$4next17h97eae6a220786959E', symObjAddr: 0x0, symBinAddr: 0x24A1C, symSize: 0xE4 }
  - { offset: 0x9E303, size: 0x8, addend: 0x0, symName: __ZN4core4iter6traits10exact_size17ExactSizeIterator3len17h27de848540393dd5E, symObjAddr: 0x280, symBinAddr: 0x24C9C, symSize: 0xC4 }
  - { offset: 0x9E402, size: 0x8, addend: 0x0, symName: __ZN4core4iter6traits10exact_size17ExactSizeIterator3len17he764dd7ad1c950d7E, symObjAddr: 0x344, symBinAddr: 0x24D60, symSize: 0xC4 }
  - { offset: 0x9E50D, size: 0x8, addend: 0x0, symName: __ZN4core4iter6traits8iterator8Iterator8peekable17h7d508fe05050b76cE, symObjAddr: 0x408, symBinAddr: 0x24E24, symSize: 0x4C }
  - { offset: 0x9E55A, size: 0x8, addend: 0x0, symName: __ZN4core4iter6traits8iterator8Iterator8peekable17ha067b2466446fe54E, symObjAddr: 0x454, symBinAddr: 0x24E70, symSize: 0x4C }
  - { offset: 0x9E760, size: 0x8, addend: 0x0, symName: '__ZN103_$LT$alloc..vec..into_iter..IntoIter$LT$T$C$A$GT$$u20$as$u20$core..iter..traits..iterator..Iterator$GT$4next17h97eae6a220786959E', symObjAddr: 0x0, symBinAddr: 0x24A1C, symSize: 0xE4 }
  - { offset: 0x9E8D4, size: 0x8, addend: 0x0, symName: '__ZN103_$LT$alloc..vec..into_iter..IntoIter$LT$T$C$A$GT$$u20$as$u20$core..iter..traits..iterator..Iterator$GT$4next17hc01828dc3251bbebE', symObjAddr: 0xE4, symBinAddr: 0x24B00, symSize: 0xE4 }
  - { offset: 0x9EA48, size: 0x8, addend: 0x0, symName: '__ZN103_$LT$alloc..vec..into_iter..IntoIter$LT$T$C$A$GT$$u20$as$u20$core..iter..traits..iterator..Iterator$GT$9size_hint17h70e9f5b51a5cb865E', symObjAddr: 0x1C8, symBinAddr: 0x24BE4, symSize: 0x5C }
  - { offset: 0x9EAA3, size: 0x8, addend: 0x0, symName: '__ZN103_$LT$alloc..vec..into_iter..IntoIter$LT$T$C$A$GT$$u20$as$u20$core..iter..traits..iterator..Iterator$GT$9size_hint17hade5f986f7bbadcbE', symObjAddr: 0x224, symBinAddr: 0x24C40, symSize: 0x5C }
  - { offset: 0x9EE3F, size: 0x8, addend: 0x0, symName: '__ZN110_$LT$core..iter..adapters..enumerate..Enumerate$LT$I$GT$$u20$as$u20$core..iter..traits..iterator..Iterator$GT$4next17ha7b6bdea70022073E', symObjAddr: 0x0, symBinAddr: 0x24EBC, symSize: 0xEC }
  - { offset: 0xA02FE, size: 0x8, addend: 0x0, symName: '__ZN110_$LT$core..iter..adapters..enumerate..Enumerate$LT$I$GT$$u20$as$u20$core..iter..traits..iterator..Iterator$GT$4next17ha7b6bdea70022073E', symObjAddr: 0x0, symBinAddr: 0x24EBC, symSize: 0xEC }
  - { offset: 0xA03E4, size: 0x8, addend: 0x0, symName: '__ZN110_$LT$core..iter..adapters..enumerate..Enumerate$LT$I$GT$$u20$as$u20$core..iter..traits..iterator..Iterator$GT$4next17hd7df7e9f58967261E', symObjAddr: 0xEC, symBinAddr: 0x24FA8, symSize: 0xE0 }
  - { offset: 0xA0560, size: 0x8, addend: 0x0, symName: '__ZN63_$LT$I$u20$as$u20$core..iter..traits..collect..IntoIterator$GT$9into_iter17h4a8d95663922db36E', symObjAddr: 0x1CC, symBinAddr: 0x25088, symSize: 0x14 }
  - { offset: 0xA0597, size: 0x8, addend: 0x0, symName: '__ZN63_$LT$I$u20$as$u20$core..iter..traits..collect..IntoIterator$GT$9into_iter17h6f5f01c986dc8af6E', symObjAddr: 0x1E0, symBinAddr: 0x2509C, symSize: 0x30 }
  - { offset: 0xA0D85, size: 0x8, addend: 0x0, symName: '__ZN137_$LT$alloc..collections..btree..dedup_sorted_iter..DedupSortedIter$LT$K$C$V$C$I$GT$$u20$as$u20$core..iter..traits..iterator..Iterator$GT$4next17h2e21f198a39258b0E', symObjAddr: 0x0, symBinAddr: 0x250CC, symSize: 0x228 }
  - { offset: 0xA15C1, size: 0x8, addend: 0x0, symName: '__ZN137_$LT$alloc..collections..btree..dedup_sorted_iter..DedupSortedIter$LT$K$C$V$C$I$GT$$u20$as$u20$core..iter..traits..iterator..Iterator$GT$4next17h2e21f198a39258b0E', symObjAddr: 0x0, symBinAddr: 0x250CC, symSize: 0x228 }
  - { offset: 0xA1727, size: 0x8, addend: 0x0, symName: '__ZN137_$LT$alloc..collections..btree..dedup_sorted_iter..DedupSortedIter$LT$K$C$V$C$I$GT$$u20$as$u20$core..iter..traits..iterator..Iterator$GT$4next17hb2d55f4da248f249E', symObjAddr: 0x228, symBinAddr: 0x252F4, symSize: 0x228 }
  - { offset: 0xA1B7E, size: 0x8, addend: 0x0, symName: '__ZN12zcash_zip32112zcash_zip32111__pyo3_init28_$u7b$$u7b$closure$u7d$$u7d$17h1f553349b9e162bbE', symObjAddr: 0x0, symBinAddr: 0x2551C, symSize: 0x30 }
  - { offset: 0xA2F45, size: 0x8, addend: 0x0, symName: '__ZN12zcash_zip32112zcash_zip32111__pyo3_init28_$u7b$$u7b$closure$u7d$$u7d$17h1f553349b9e162bbE', symObjAddr: 0x0, symBinAddr: 0x2551C, symSize: 0x30 }
  - { offset: 0xA38C2, size: 0x8, addend: 0x0, symName: __ZN5alloc11collections5btree3mem7replace17h0a9ca57e7cf66edfE, symObjAddr: 0x0, symBinAddr: 0x2554C, symSize: 0xCC }
  - { offset: 0xA44ED, size: 0x8, addend: 0x0, symName: __ZN5alloc11collections5btree3mem7replace17h0a9ca57e7cf66edfE, symObjAddr: 0x0, symBinAddr: 0x2554C, symSize: 0xCC }
  - { offset: 0xA45DD, size: 0x8, addend: 0x0, symName: __ZN5alloc11collections5btree3mem7replace17h1a5fcb1ad00e5721E, symObjAddr: 0xCC, symBinAddr: 0x25618, symSize: 0x90 }
  - { offset: 0xA46C6, size: 0x8, addend: 0x0, symName: __ZN5alloc11collections5btree3mem7replace17h8ea288c38cf7219fE, symObjAddr: 0x15C, symBinAddr: 0x256A8, symSize: 0xCC }
  - { offset: 0xA47B6, size: 0x8, addend: 0x0, symName: __ZN5alloc11collections5btree3mem7replace17hb4453d6d2e80b4fdE, symObjAddr: 0x228, symBinAddr: 0x25774, symSize: 0x90 }
  - { offset: 0xA489F, size: 0x8, addend: 0x0, symName: __ZN5alloc11collections5btree3mem7replace17heb4fedbbae5c0046E, symObjAddr: 0x2B8, symBinAddr: 0x25804, symSize: 0xC4 }
  - { offset: 0xA4993, size: 0x8, addend: 0x0, symName: '__ZN5alloc11collections5btree3mem8take_mut28_$u7b$$u7b$closure$u7d$$u7d$17he76d82f3cb543a4cE', symObjAddr: 0x37C, symBinAddr: 0x258C8, symSize: 0x28 }
  - { offset: 0xA49E0, size: 0x8, addend: 0x0, symName: '__ZN5alloc11collections5btree3mem8take_mut28_$u7b$$u7b$closure$u7d$$u7d$17hffafa91cdd6c4985E', symObjAddr: 0x3A4, symBinAddr: 0x258F0, symSize: 0x28 }
  - { offset: 0xA4DE6, size: 0x8, addend: 0x0, symName: __ZN4pyo33err5PyErr10from_state17h3f393350dc459fe4E, symObjAddr: 0x0, symBinAddr: 0x25918, symSize: 0x30 }
  - { offset: 0xA6AC6, size: 0x8, addend: 0x0, symName: __ZN4pyo33err5PyErr10from_state17h3f393350dc459fe4E, symObjAddr: 0x0, symBinAddr: 0x25918, symSize: 0x30 }
  - { offset: 0xA6B2F, size: 0x8, addend: 0x0, symName: __ZN4pyo33err5PyErr16write_unraisable17h54cfe8b016bbea77E, symObjAddr: 0x30, symBinAddr: 0x25948, symSize: 0x34 }
  - { offset: 0xA6B7D, size: 0x8, addend: 0x0, symName: __ZN4pyo33err5PyErr7restore17h6264d7fd241595a5E, symObjAddr: 0x64, symBinAddr: 0x2597C, symSize: 0x38 }
  - { offset: 0xA6BDA, size: 0x8, addend: 0x0, symName: '__ZN100_$LT$core..iter..adapters..take..Take$LT$I$GT$$u20$as$u20$core..iter..traits..iterator..Iterator$GT$4next17hb50d6e870da83c57E', symObjAddr: 0x0, symBinAddr: 0x259B4, symSize: 0x58 }
  - { offset: 0xA6C1E, size: 0x8, addend: 0x0, symName: '__ZN100_$LT$core..iter..adapters..take..Take$LT$I$GT$$u20$as$u20$core..iter..traits..iterator..Iterator$GT$4next17hb50d6e870da83c57E', symObjAddr: 0x0, symBinAddr: 0x259B4, symSize: 0x58 }
  - { offset: 0xA6CDD, size: 0x8, addend: 0x0, symName: __ZN4core4iter6traits8iterator8Iterator9enumerate17h53adbf0f6fbe3180E, symObjAddr: 0x58, symBinAddr: 0x25A0C, symSize: 0x18 }
  - { offset: 0xA6D0E, size: 0x8, addend: 0x0, symName: __ZN4core4iter6traits8iterator8Iterator9enumerate17h53adbf0f6fbe3180E, symObjAddr: 0x58, symBinAddr: 0x25A0C, symSize: 0x18 }
  - { offset: 0xA8497, size: 0x8, addend: 0x0, symName: __ZN4core3ptr19copy_nonoverlapping18precondition_check17hb383e646ab98e4d0E, symObjAddr: 0x0, symBinAddr: 0x25A24, symSize: 0x36C }
  - { offset: 0xA87E8, size: 0x8, addend: 0x0, symName: __ZN4core3ptr19copy_nonoverlapping18precondition_check17hb383e646ab98e4d0E, symObjAddr: 0x0, symBinAddr: 0x25A24, symSize: 0x36C }
  - { offset: 0xA8AC8, size: 0x8, addend: 0x0, symName: __ZN4core3ptr4copy18precondition_check17h5bdb1fdd22340ed3E, symObjAddr: 0x8F0, symBinAddr: 0x25D90, symSize: 0x240 }
  - { offset: 0xA915A, size: 0x8, addend: 0x0, symName: '__ZN111_$LT$T$u20$as$u20$pyo3..impl_..callback..IntoPyCallbackOutput$LT$$BP$mut$u20$pyo3_ffi..object..PyObject$GT$$GT$7convert17h23343c4042ce4df4E', symObjAddr: 0x0, symBinAddr: 0x25FD0, symSize: 0x34 }
  - { offset: 0xA91CB, size: 0x8, addend: 0x0, symName: '__ZN4core3ptr9const_ptr33_$LT$impl$u20$$BP$const$u20$T$GT$7is_null17h32a4651f0c8c4bb5E', symObjAddr: 0x11C, symBinAddr: 0x260EC, symSize: 0x18 }
  - { offset: 0xA946B, size: 0x8, addend: 0x0, symName: '__ZN4core5slice29_$LT$impl$u20$$u5b$T$u5d$$GT$15copy_from_slice17h7b21414ff3e9002eE', symObjAddr: 0x134, symBinAddr: 0x26104, symSize: 0xAC }
  - { offset: 0xA9536, size: 0x8, addend: 0x0, symName: '__ZN4core5slice29_$LT$impl$u20$$u5b$T$u5d$$GT$18split_at_unchecked17hcacfb1384e7f20feE', symObjAddr: 0x1E0, symBinAddr: 0x261B0, symSize: 0xEC }
  - { offset: 0xA96C2, size: 0x8, addend: 0x0, symName: '__ZN4core5slice29_$LT$impl$u20$$u5b$T$u5d$$GT$8split_at17hfd25207a4a941501E', symObjAddr: 0x2CC, symBinAddr: 0x2629C, symSize: 0xD8 }
  - { offset: 0xAB5F3, size: 0x8, addend: 0x0, symName: __ZN4core6option6Option4Some17h8907ba77727cdd31E, symObjAddr: 0x1490, symBinAddr: 0x27460, symSize: 0x14 }
  - { offset: 0xAB626, size: 0x8, addend: 0x0, symName: __ZN4core6option6Option4Some17h984e30883393d5f9E, symObjAddr: 0x14A4, symBinAddr: 0x27474, symSize: 0x1C }
  - { offset: 0xAB659, size: 0x8, addend: 0x0, symName: __ZN4core6option6Option4Some17hcec188da0c5be27dE, symObjAddr: 0x14C0, symBinAddr: 0x27490, symSize: 0x18 }
  - { offset: 0xAB693, size: 0x8, addend: 0x0, symName: '__ZN68_$LT$core..option..Option$LT$T$GT$$u20$as$u20$core..clone..Clone$GT$5clone17h11cab3a13a328e50E', symObjAddr: 0x1654, symBinAddr: 0x27624, symSize: 0x84 }
  - { offset: 0xAB6E8, size: 0x8, addend: 0x0, symName: '__ZN68_$LT$core..option..Option$LT$T$GT$$u20$as$u20$core..clone..Clone$GT$5clone17h832202a04f6ae5bdE', symObjAddr: 0x16D8, symBinAddr: 0x276A8, symSize: 0x84 }
  - { offset: 0xAB73D, size: 0x8, addend: 0x0, symName: '__ZN68_$LT$core..option..Option$LT$T$GT$$u20$as$u20$core..clone..Clone$GT$5clone17hc131337d970dceeaE', symObjAddr: 0x175C, symBinAddr: 0x2772C, symSize: 0x5C }
  - { offset: 0xAB7B6, size: 0x8, addend: 0x0, symName: '__ZN70_$LT$core..option..Option$LT$T$GT$$u20$as$u20$core..cmp..PartialEq$GT$2eq17h1a6ae5ab6eefc387E', symObjAddr: 0x17B8, symBinAddr: 0x27788, symSize: 0x9C }
  - { offset: 0xAB82A, size: 0x8, addend: 0x0, symName: '__ZN70_$LT$core..option..Option$LT$T$GT$$u20$as$u20$core..cmp..PartialEq$GT$2eq17h3005a837c58e539cE', symObjAddr: 0x1854, symBinAddr: 0x27824, symSize: 0xB8 }
  - { offset: 0xAB89E, size: 0x8, addend: 0x0, symName: '__ZN70_$LT$core..option..Option$LT$T$GT$$u20$as$u20$core..cmp..PartialEq$GT$2eq17h922a6b5fdfed3058E', symObjAddr: 0x190C, symBinAddr: 0x278DC, symSize: 0xB8 }
  - { offset: 0xACCE8, size: 0x8, addend: 0x0, symName: '__ZN111_$LT$T$u20$as$u20$pyo3..impl_..callback..IntoPyCallbackOutput$LT$$BP$mut$u20$pyo3_ffi..object..PyObject$GT$$GT$7convert17h23343c4042ce4df4E', symObjAddr: 0x0, symBinAddr: 0x25FD0, symSize: 0x34 }
  - { offset: 0xACD36, size: 0x8, addend: 0x0, symName: '__ZN111_$LT$T$u20$as$u20$pyo3..impl_..callback..IntoPyCallbackOutput$LT$$BP$mut$u20$pyo3_ffi..object..PyObject$GT$$GT$7convert17h48d33239692f4dbbE', symObjAddr: 0x34, symBinAddr: 0x26004, symSize: 0x38 }
  - { offset: 0xACD84, size: 0x8, addend: 0x0, symName: '__ZN111_$LT$T$u20$as$u20$pyo3..impl_..callback..IntoPyCallbackOutput$LT$$BP$mut$u20$pyo3_ffi..object..PyObject$GT$$GT$7convert17h69295e817277a2aeE', symObjAddr: 0x6C, symBinAddr: 0x2603C, symSize: 0x2C }
  - { offset: 0xACDD3, size: 0x8, addend: 0x0, symName: '__ZN111_$LT$T$u20$as$u20$pyo3..impl_..callback..IntoPyCallbackOutput$LT$$BP$mut$u20$pyo3_ffi..object..PyObject$GT$$GT$7convert17h6f8f9bcdc1c37beaE', symObjAddr: 0x98, symBinAddr: 0x26068, symSize: 0x34 }
  - { offset: 0xACE21, size: 0x8, addend: 0x0, symName: '__ZN111_$LT$T$u20$as$u20$pyo3..impl_..callback..IntoPyCallbackOutput$LT$$BP$mut$u20$pyo3_ffi..object..PyObject$GT$$GT$7convert17h95bbb2f1893eed72E', symObjAddr: 0xCC, symBinAddr: 0x2609C, symSize: 0x50 }
  - { offset: 0xACEBC, size: 0x8, addend: 0x0, symName: '__ZN86_$LT$core..option..Option$LT$T$GT$$u20$as$u20$pyo3..impl_..wrap..SomeWrap$LT$T$GT$$GT$4wrap17h11df865d489070c8E', symObjAddr: 0x19C4, symBinAddr: 0x27994, symSize: 0x14 }
  - { offset: 0xACEF1, size: 0x8, addend: 0x0, symName: '__ZN86_$LT$core..option..Option$LT$T$GT$$u20$as$u20$pyo3..impl_..wrap..SomeWrap$LT$T$GT$$GT$4wrap17h35c8ddec171deeb4E', symObjAddr: 0x19D8, symBinAddr: 0x279A8, symSize: 0x14 }
  - { offset: 0xACF26, size: 0x8, addend: 0x0, symName: '__ZN86_$LT$core..option..Option$LT$T$GT$$u20$as$u20$pyo3..impl_..wrap..SomeWrap$LT$T$GT$$GT$4wrap17haaac2e44fbb26795E', symObjAddr: 0x19EC, symBinAddr: 0x279BC, symSize: 0x18 }
  - { offset: 0xAD4B8, size: 0x8, addend: 0x0, symName: '__ZN4pyo311conversions3std6option90_$LT$impl$u20$pyo3..conversion..IntoPyObject$u20$for$u20$core..option..Option$LT$T$GT$$GT$13into_pyobject17h1ab7f94fb8f319d3E', symObjAddr: 0x1578, symBinAddr: 0x27548, symSize: 0x30 }
  - { offset: 0xAD506, size: 0x8, addend: 0x0, symName: '__ZN4pyo311conversions3std6option90_$LT$impl$u20$pyo3..conversion..IntoPyObject$u20$for$u20$core..option..Option$LT$T$GT$$GT$13into_pyobject17h8535563d7b8f2e3cE', symObjAddr: 0x15A8, symBinAddr: 0x27578, symSize: 0x30 }
  - { offset: 0xAD554, size: 0x8, addend: 0x0, symName: '__ZN4pyo311conversions3std6option90_$LT$impl$u20$pyo3..conversion..IntoPyObject$u20$for$u20$core..option..Option$LT$T$GT$$GT$13into_pyobject17h8bb7b230611f90f4E', symObjAddr: 0x15D8, symBinAddr: 0x275A8, symSize: 0x24 }
  - { offset: 0xAD5A3, size: 0x8, addend: 0x0, symName: '__ZN4pyo311conversions3std6option90_$LT$impl$u20$pyo3..conversion..IntoPyObject$u20$for$u20$core..option..Option$LT$T$GT$$GT$13into_pyobject17ha7701a88f5df97a5E', symObjAddr: 0x15FC, symBinAddr: 0x275CC, symSize: 0x2C }
  - { offset: 0xAD5F1, size: 0x8, addend: 0x0, symName: '__ZN4pyo311conversions3std6option90_$LT$impl$u20$pyo3..conversion..IntoPyObject$u20$for$u20$core..option..Option$LT$T$GT$$GT$13into_pyobject17ha8e713fd8ec9a4eeE', symObjAddr: 0x1628, symBinAddr: 0x275F8, symSize: 0x2C }
  - { offset: 0xAD68F, size: 0x8, addend: 0x0, symName: __ZN4pyo310conversion15IntoPyObjectExt17into_bound_py_any17h5075f104d5015a9eE, symObjAddr: 0x14D8, symBinAddr: 0x274A8, symSize: 0x50 }
  - { offset: 0xAD6FF, size: 0x8, addend: 0x0, symName: __ZN4pyo310conversion15IntoPyObjectExt17into_bound_py_any17ha224a8ddb7890238E, symObjAddr: 0x1528, symBinAddr: 0x274F8, symSize: 0x50 }
  - { offset: 0xAE805, size: 0x8, addend: 0x0, symName: '__ZN4core6option15Option$LT$T$GT$10ok_or_else17h1e1f8288cd73a6f0E', symObjAddr: 0x3A4, symBinAddr: 0x26374, symSize: 0xA4 }
  - { offset: 0xAE871, size: 0x8, addend: 0x0, symName: '__ZN4core6option15Option$LT$T$GT$10ok_or_else17hed4601a829e84fcbE', symObjAddr: 0x448, symBinAddr: 0x26418, symSize: 0x7C }
  - { offset: 0xAE8E9, size: 0x8, addend: 0x0, symName: '__ZN4core6option15Option$LT$T$GT$11map_or_else17h5d4231ec92de679eE', symObjAddr: 0x4C4, symBinAddr: 0x26494, symSize: 0xD8 }
  - { offset: 0xAE96B, size: 0x8, addend: 0x0, symName: '__ZN4core6option15Option$LT$T$GT$11map_or_else17h60db7f07db8fc056E', symObjAddr: 0x59C, symBinAddr: 0x2656C, symSize: 0xD8 }
  - { offset: 0xAEA04, size: 0x8, addend: 0x0, symName: '__ZN4core6option15Option$LT$T$GT$11map_or_else17h9ec3c9a8c2075e3aE', symObjAddr: 0x674, symBinAddr: 0x26644, symSize: 0xD8 }
  - { offset: 0xAEA87, size: 0x8, addend: 0x0, symName: '__ZN4core6option15Option$LT$T$GT$11map_or_else17hce6a868991d02534E', symObjAddr: 0x74C, symBinAddr: 0x2671C, symSize: 0xE8 }
  - { offset: 0xAEB02, size: 0x8, addend: 0x0, symName: '__ZN4core6option15Option$LT$T$GT$11map_or_else17hf9a8e2c801b55520E', symObjAddr: 0x834, symBinAddr: 0x26804, symSize: 0x100 }
  - { offset: 0xAEC51, size: 0x8, addend: 0x0, symName: '__ZN4core6option15Option$LT$T$GT$18get_or_insert_with17h06a3bf0563839683E', symObjAddr: 0x934, symBinAddr: 0x26904, symSize: 0x14C }
  - { offset: 0xAED99, size: 0x8, addend: 0x0, symName: '__ZN4core6option15Option$LT$T$GT$18get_or_insert_with17h088f0821f7899075E', symObjAddr: 0xA80, symBinAddr: 0x26A50, symSize: 0x14C }
  - { offset: 0xAEE39, size: 0x8, addend: 0x0, symName: '__ZN4core6option15Option$LT$T$GT$3map17h0a4c79ae34496e9eE', symObjAddr: 0xBCC, symBinAddr: 0x26B9C, symSize: 0x58 }
  - { offset: 0xAEEA4, size: 0x8, addend: 0x0, symName: '__ZN4core6option15Option$LT$T$GT$3map17h192416b0210a86edE', symObjAddr: 0xC24, symBinAddr: 0x26BF4, symSize: 0x58 }
  - { offset: 0xAEF1C, size: 0x8, addend: 0x0, symName: '__ZN4core6option15Option$LT$T$GT$3map17h2e86d7aeab743e28E', symObjAddr: 0xC7C, symBinAddr: 0x26C4C, symSize: 0x6C }
  - { offset: 0xAEF94, size: 0x8, addend: 0x0, symName: '__ZN4core6option15Option$LT$T$GT$3map17h2ef6d7617ee5a968E', symObjAddr: 0xCE8, symBinAddr: 0x26CB8, symSize: 0x50 }
  - { offset: 0xAEFFF, size: 0x8, addend: 0x0, symName: '__ZN4core6option15Option$LT$T$GT$3map17h3aec5d1f7f2f833cE', symObjAddr: 0xD38, symBinAddr: 0x26D08, symSize: 0x58 }
  - { offset: 0xAF06A, size: 0x8, addend: 0x0, symName: '__ZN4core6option15Option$LT$T$GT$3map17h840a1247dc7c0895E', symObjAddr: 0xD90, symBinAddr: 0x26D60, symSize: 0x58 }
  - { offset: 0xAF0E2, size: 0x8, addend: 0x0, symName: '__ZN4core6option15Option$LT$T$GT$3map17h8a92dfbc8bcf5a48E', symObjAddr: 0xDE8, symBinAddr: 0x26DB8, symSize: 0x50 }
  - { offset: 0xAF14D, size: 0x8, addend: 0x0, symName: '__ZN4core6option15Option$LT$T$GT$3map17ha5702aa2918a23d8E', symObjAddr: 0xE38, symBinAddr: 0x26E08, symSize: 0x5C }
  - { offset: 0xAF1D0, size: 0x8, addend: 0x0, symName: '__ZN4core6option15Option$LT$T$GT$3map17hf1012c887331cc58E', symObjAddr: 0xE94, symBinAddr: 0x26E64, symSize: 0x78 }
  - { offset: 0xAF28D, size: 0x8, addend: 0x0, symName: '__ZN4core6option15Option$LT$T$GT$4take17h41ed928d72fe93f4E', symObjAddr: 0xF0C, symBinAddr: 0x26EDC, symSize: 0x40 }
  - { offset: 0xAF2F1, size: 0x8, addend: 0x0, symName: '__ZN4core6option15Option$LT$T$GT$6as_ref17h43874ec7c0b496faE', symObjAddr: 0xF4C, symBinAddr: 0x26F1C, symSize: 0x50 }
  - { offset: 0xAF33B, size: 0x8, addend: 0x0, symName: '__ZN4core6option15Option$LT$T$GT$6expect17he0d006a42c458ea2E', symObjAddr: 0xF9C, symBinAddr: 0x26F6C, symSize: 0x5C }
  - { offset: 0xAF376, size: 0x8, addend: 0x0, symName: '__ZN4core6option15Option$LT$T$GT$6expect17hfe126dbff3ad8153E', symObjAddr: 0xFF8, symBinAddr: 0x26FC8, symSize: 0x5C }
  - { offset: 0xAF421, size: 0x8, addend: 0x0, symName: '__ZN4core6option15Option$LT$T$GT$6insert17h2b253f005ab73186E', symObjAddr: 0x1054, symBinAddr: 0x27024, symSize: 0xA8 }
  - { offset: 0xAF593, size: 0x8, addend: 0x0, symName: '__ZN4core6option15Option$LT$T$GT$6insert17h32c1db72e584e67cE', symObjAddr: 0x10FC, symBinAddr: 0x270CC, symSize: 0xA8 }
  - { offset: 0xAF629, size: 0x8, addend: 0x0, symName: '__ZN4core6option15Option$LT$T$GT$7is_some17h0d3a29f516a2e2caE', symObjAddr: 0x11A4, symBinAddr: 0x27174, symSize: 0x2C }
  - { offset: 0xAF662, size: 0x8, addend: 0x0, symName: '__ZN4core6option15Option$LT$T$GT$7is_some17hb28b59b68ca5b4e8E', symObjAddr: 0x11D0, symBinAddr: 0x271A0, symSize: 0x28 }
  - { offset: 0xAF69B, size: 0x8, addend: 0x0, symName: '__ZN4core6option15Option$LT$T$GT$7replace17h41907701fbd9a543E', symObjAddr: 0x11F8, symBinAddr: 0x271C8, symSize: 0x28 }
  - { offset: 0xAF6F4, size: 0x8, addend: 0x0, symName: '__ZN4core6option15Option$LT$T$GT$8and_then17h88f4dacff30f3440E', symObjAddr: 0x1220, symBinAddr: 0x271F0, symSize: 0x58 }
  - { offset: 0xAF819, size: 0x8, addend: 0x0, symName: '__ZN4core6option15Option$LT$T$GT$8as_deref17h1a0cef90affea979E', symObjAddr: 0x1278, symBinAddr: 0x27248, symSize: 0x6C }
  - { offset: 0xAF97C, size: 0x8, addend: 0x0, symName: '__ZN4core6option15Option$LT$T$GT$8as_deref17h494e76a8a87221ceE', symObjAddr: 0x12E4, symBinAddr: 0x272B4, symSize: 0x78 }
  - { offset: 0xAFAC5, size: 0x8, addend: 0x0, symName: '__ZN4core6option15Option$LT$T$GT$8as_deref17hdea914c7b4d0c334E', symObjAddr: 0x135C, symBinAddr: 0x2732C, symSize: 0x78 }
  - { offset: 0xAFB6E, size: 0x8, addend: 0x0, symName: '__ZN4core6option15Option$LT$T$GT$9unwrap_or17h09955cb300fd3a8cE', symObjAddr: 0x13D4, symBinAddr: 0x273A4, symSize: 0x48 }
  - { offset: 0xAFBC7, size: 0x8, addend: 0x0, symName: '__ZN4core6option19Option$LT$$RF$T$GT$6cloned17hc109c69952cc886eE', symObjAddr: 0x141C, symBinAddr: 0x273EC, symSize: 0x74 }
  - { offset: 0xAFC49, size: 0x8, addend: 0x0, symName: __ZN3std4sync6poison4once4Once12is_completed17he79696bb75003a86E, symObjAddr: 0x0, symBinAddr: 0x279D4, symSize: 0x54 }
  - { offset: 0xAFE01, size: 0x8, addend: 0x0, symName: __ZN3std4sync6poison4once4Once12is_completed17he79696bb75003a86E, symObjAddr: 0x0, symBinAddr: 0x279D4, symSize: 0x54 }
  - { offset: 0xAFE75, size: 0x8, addend: 0x0, symName: '__ZN79_$LT$pyo3..exceptions..PyException$u20$as$u20$pyo3..type_object..PyTypeInfo$GT$15type_object_raw17he55fa1afd2ba2d9eE', symObjAddr: 0x0, symBinAddr: 0x27A28, symSize: 0x24 }
  - { offset: 0xB0EA6, size: 0x8, addend: 0x0, symName: '__ZN79_$LT$pyo3..exceptions..PyException$u20$as$u20$pyo3..type_object..PyTypeInfo$GT$15type_object_raw17he55fa1afd2ba2d9eE', symObjAddr: 0x0, symBinAddr: 0x27A28, symSize: 0x24 }
  - { offset: 0xB13E8, size: 0x8, addend: 0x0, symName: __ZN5alloc5slice11stable_sort17h230bae442625aa67E, symObjAddr: 0x0, symBinAddr: 0x27A4C, symSize: 0xC8 }
  - { offset: 0xB19B9, size: 0x8, addend: 0x0, symName: '__ZN5alloc5slice29_$LT$impl$u20$$u5b$T$u5d$$GT$7sort_by28_$u7b$$u7b$closure$u7d$$u7d$17h300d929673e06579E', symObjAddr: 0x190, symBinAddr: 0x27BDC, symSize: 0x5C }
  - { offset: 0xB1A33, size: 0x8, addend: 0x0, symName: '__ZN5alloc5slice29_$LT$impl$u20$$u5b$T$u5d$$GT$7sort_by28_$u7b$$u7b$closure$u7d$$u7d$17h749df675c5e018deE', symObjAddr: 0x1EC, symBinAddr: 0x27C38, symSize: 0x5C }
  - { offset: 0xB1AAF, size: 0x8, addend: 0x0, symName: __ZN5alloc5slice11stable_sort17h230bae442625aa67E, symObjAddr: 0x0, symBinAddr: 0x27A4C, symSize: 0xC8 }
  - { offset: 0xB1B64, size: 0x8, addend: 0x0, symName: __ZN5alloc5slice11stable_sort17h599f9e229c1a149aE, symObjAddr: 0xC8, symBinAddr: 0x27B14, symSize: 0xC8 }
  - { offset: 0xB1D4E, size: 0x8, addend: 0x0, symName: '__ZN4pyo311conversions3std6option90_$LT$impl$u20$pyo3..conversion..IntoPyObject$u20$for$u20$core..option..Option$LT$T$GT$$GT$13into_pyobject28_$u7b$$u7b$closure$u7d$$u7d$17h14ea19bb329feda1E', symObjAddr: 0x0, symBinAddr: 0x27C94, symSize: 0x30 }
  - { offset: 0xB3246, size: 0x8, addend: 0x0, symName: '__ZN4pyo311conversions3std6option90_$LT$impl$u20$pyo3..conversion..IntoPyObject$u20$for$u20$core..option..Option$LT$T$GT$$GT$13into_pyobject28_$u7b$$u7b$closure$u7d$$u7d$17h14ea19bb329feda1E', symObjAddr: 0x0, symBinAddr: 0x27C94, symSize: 0x30 }
  - { offset: 0xB3295, size: 0x8, addend: 0x0, symName: '__ZN4pyo311conversions3std6option90_$LT$impl$u20$pyo3..conversion..IntoPyObject$u20$for$u20$core..option..Option$LT$T$GT$$GT$13into_pyobject28_$u7b$$u7b$closure$u7d$$u7d$17h1b083a299085851aE', symObjAddr: 0x30, symBinAddr: 0x27CC4, symSize: 0x24 }
  - { offset: 0xB32D5, size: 0x8, addend: 0x0, symName: '__ZN4pyo311conversions3std6option90_$LT$impl$u20$pyo3..conversion..IntoPyObject$u20$for$u20$core..option..Option$LT$T$GT$$GT$13into_pyobject28_$u7b$$u7b$closure$u7d$$u7d$17h31c6f22fa293d722E', symObjAddr: 0x54, symBinAddr: 0x27CE8, symSize: 0x24 }
  - { offset: 0xB3315, size: 0x8, addend: 0x0, symName: '__ZN4pyo311conversions3std6option90_$LT$impl$u20$pyo3..conversion..IntoPyObject$u20$for$u20$core..option..Option$LT$T$GT$$GT$13into_pyobject28_$u7b$$u7b$closure$u7d$$u7d$17h3bfeaffb4a1a42c4E', symObjAddr: 0x78, symBinAddr: 0x27D0C, symSize: 0x2C }
  - { offset: 0xB3363, size: 0x8, addend: 0x0, symName: '__ZN4pyo311conversions3std6option90_$LT$impl$u20$pyo3..conversion..IntoPyObject$u20$for$u20$core..option..Option$LT$T$GT$$GT$13into_pyobject28_$u7b$$u7b$closure$u7d$$u7d$17h4cee75d1c2f16d4dE', symObjAddr: 0xA4, symBinAddr: 0x27D38, symSize: 0x60 }
  - { offset: 0xB33B1, size: 0x8, addend: 0x0, symName: '__ZN4pyo311conversions3std6option90_$LT$impl$u20$pyo3..conversion..IntoPyObject$u20$for$u20$core..option..Option$LT$T$GT$$GT$13into_pyobject28_$u7b$$u7b$closure$u7d$$u7d$17h63fe5cd591855a26E', symObjAddr: 0x104, symBinAddr: 0x27D98, symSize: 0x24 }
  - { offset: 0xB33F1, size: 0x8, addend: 0x0, symName: '__ZN4pyo311conversions3std6option90_$LT$impl$u20$pyo3..conversion..IntoPyObject$u20$for$u20$core..option..Option$LT$T$GT$$GT$13into_pyobject28_$u7b$$u7b$closure$u7d$$u7d$17h761da6b57a1fbcdfE', symObjAddr: 0x128, symBinAddr: 0x27DBC, symSize: 0x40 }
  - { offset: 0xB343F, size: 0x8, addend: 0x0, symName: '__ZN4pyo311conversions3std6option90_$LT$impl$u20$pyo3..conversion..IntoPyObject$u20$for$u20$core..option..Option$LT$T$GT$$GT$13into_pyobject28_$u7b$$u7b$closure$u7d$$u7d$17ha43731cd2807bd0bE', symObjAddr: 0x168, symBinAddr: 0x27DFC, symSize: 0x34 }
  - { offset: 0xB347F, size: 0x8, addend: 0x0, symName: '__ZN4pyo311conversions3std6option90_$LT$impl$u20$pyo3..conversion..IntoPyObject$u20$for$u20$core..option..Option$LT$T$GT$$GT$13into_pyobject28_$u7b$$u7b$closure$u7d$$u7d$17hb2944e8680bf67f3E', symObjAddr: 0x19C, symBinAddr: 0x27E30, symSize: 0x34 }
  - { offset: 0xB34CD, size: 0x8, addend: 0x0, symName: '__ZN4pyo311conversions3std6option90_$LT$impl$u20$pyo3..conversion..IntoPyObject$u20$for$u20$core..option..Option$LT$T$GT$$GT$13into_pyobject28_$u7b$$u7b$closure$u7d$$u7d$17he41a781ba2ae659bE', symObjAddr: 0x1D0, symBinAddr: 0x27E64, symSize: 0x24 }
  - { offset: 0xB4038, size: 0x8, addend: 0x0, symName: '__ZN82_$LT$usize$u20$as$u20$pyo3..impl_..callback..IntoPyCallbackOutput$LT$isize$GT$$GT$7convert17h01bee88473f911b0E', symObjAddr: 0x0, symBinAddr: 0x27E88, symSize: 0x2C }
  - { offset: 0xB53F2, size: 0x8, addend: 0x0, symName: '__ZN82_$LT$usize$u20$as$u20$pyo3..impl_..callback..IntoPyCallbackOutput$LT$isize$GT$$GT$7convert17h01bee88473f911b0E', symObjAddr: 0x0, symBinAddr: 0x27E88, symSize: 0x2C }
  - { offset: 0xB5D0B, size: 0x8, addend: 0x0, symName: '__ZN102_$LT$pyo3..internal..get_slot..Slot$LT$74_i32$GT$$u20$as$u20$pyo3..internal..get_slot..GetSlotImpl$GT$8get_slot17haec4e9a901141359E', symObjAddr: 0x0, symBinAddr: 0x27EB4, symSize: 0x74 }
  - { offset: 0xB65B3, size: 0x8, addend: 0x0, symName: '__ZN102_$LT$pyo3..internal..get_slot..Slot$LT$74_i32$GT$$u20$as$u20$pyo3..internal..get_slot..GetSlotImpl$GT$8get_slot17haec4e9a901141359E', symObjAddr: 0x0, symBinAddr: 0x27EB4, symSize: 0x74 }
  - { offset: 0xB718A, size: 0x8, addend: 0x0, symName: '__ZN58_$LT$alloc..string..String$u20$as$u20$core..fmt..Debug$GT$3fmt17h7d00cecacf66bb27E', symObjAddr: 0x0, symBinAddr: 0x27F28, symSize: 0x88 }
  - { offset: 0xB721B, size: 0x8, addend: 0x0, symName: '__ZN65_$LT$alloc..string..String$u20$as$u20$core..ops..deref..Deref$GT$5deref17h6e0c07eebd14bdc7E', symObjAddr: 0x144, symBinAddr: 0x2806C, symSize: 0x24 }
  - { offset: 0xB724F, size: 0x8, addend: 0x0, symName: '__ZN58_$LT$alloc..string..String$u20$as$u20$core..fmt..Debug$GT$3fmt17h7d00cecacf66bb27E', symObjAddr: 0x0, symBinAddr: 0x27F28, symSize: 0x88 }
  - { offset: 0xB73B4, size: 0x8, addend: 0x0, symName: '__ZN62_$LT$alloc..string..String$u20$as$u20$core..cmp..PartialEq$GT$2eq17hfa73ee69b712019cE', symObjAddr: 0x118, symBinAddr: 0x28040, symSize: 0x2C }
  - { offset: 0xB73F7, size: 0x8, addend: 0x0, symName: '__ZN76_$LT$alloc..string..String$u20$as$u20$core..convert..From$LT$$RF$str$GT$$GT$4from17hbb658f72d205db7dE', symObjAddr: 0x168, symBinAddr: 0x28090, symSize: 0x50 }
  - { offset: 0xB7B64, size: 0x8, addend: 0x0, symName: __ZN5alloc6string6String10into_bytes17he521f7e87fd895fcE, symObjAddr: 0x88, symBinAddr: 0x27FB0, symSize: 0x18 }
  - { offset: 0xB7C1C, size: 0x8, addend: 0x0, symName: __ZN5alloc6string6String6as_str17he3c0bcde147e9968E, symObjAddr: 0xA0, symBinAddr: 0x27FC8, symSize: 0x78 }
  - { offset: 0xB7DCE, size: 0x8, addend: 0x0, symName: __ZN3std5panic12catch_unwind17h3b0afeb3fcb48c5cE, symObjAddr: 0x0, symBinAddr: 0x280E0, symSize: 0xCC }
  - { offset: 0xBA542, size: 0x8, addend: 0x0, symName: __ZN3std5panic12catch_unwind17h3b0afeb3fcb48c5cE, symObjAddr: 0x0, symBinAddr: 0x280E0, symSize: 0xCC }
  - { offset: 0xBA5F4, size: 0x8, addend: 0x0, symName: __ZN3std5panic12catch_unwind17h431420143248813bE, symObjAddr: 0xCC, symBinAddr: 0x281AC, symSize: 0xB0 }
  - { offset: 0xBA686, size: 0x8, addend: 0x0, symName: __ZN3std5panic12catch_unwind17h4e23277057cb58f5E, symObjAddr: 0x17C, symBinAddr: 0x2825C, symSize: 0xC0 }
  - { offset: 0xBA718, size: 0x8, addend: 0x0, symName: __ZN3std5panic12catch_unwind17h5b116cf1c98084eeE, symObjAddr: 0x23C, symBinAddr: 0x2831C, symSize: 0xC0 }
  - { offset: 0xBA7AA, size: 0x8, addend: 0x0, symName: __ZN3std5panic12catch_unwind17h8eafd42b4637253eE, symObjAddr: 0x2FC, symBinAddr: 0x283DC, symSize: 0xC0 }
  - { offset: 0xBA83C, size: 0x8, addend: 0x0, symName: __ZN3std5panic12catch_unwind17hc8a6e96d1244b3fcE, symObjAddr: 0x3BC, symBinAddr: 0x2849C, symSize: 0xCC }
  - { offset: 0xBA8EE, size: 0x8, addend: 0x0, symName: __ZN3std5panic12catch_unwind17hd61c3a8a4f5bc348E, symObjAddr: 0x488, symBinAddr: 0x28568, symSize: 0xC0 }
  - { offset: 0xBA980, size: 0x8, addend: 0x0, symName: __ZN3std5panic12catch_unwind17hea9bd2a71416238cE, symObjAddr: 0x548, symBinAddr: 0x28628, symSize: 0xDC }
  - { offset: 0xBAD2E, size: 0x8, addend: 0x0, symName: __ZN4core5alloc6layout6Layout25from_size_align_unchecked18precondition_check17h06a1952fbd85122cE, symObjAddr: 0x0, symBinAddr: 0x28758, symSize: 0xBC }
  - { offset: 0xBB05A, size: 0x8, addend: 0x0, symName: __ZN4core5alloc6layout6Layout25from_size_align_unchecked18precondition_check17h06a1952fbd85122cE, symObjAddr: 0x0, symBinAddr: 0x28758, symSize: 0xBC }
  - { offset: 0xBB26A, size: 0x8, addend: 0x0, symName: __ZN4pyo35types10typeobject6PyType22from_borrowed_type_ptr17ha5a3f85c33fd8238E, symObjAddr: 0x0, symBinAddr: 0x28814, symSize: 0x34 }
  - { offset: 0xBC8C3, size: 0x8, addend: 0x0, symName: __ZN4pyo35types10typeobject6PyType22from_borrowed_type_ptr17ha5a3f85c33fd8238E, symObjAddr: 0x0, symBinAddr: 0x28814, symSize: 0x34 }
  - { offset: 0xBC91C, size: 0x8, addend: 0x0, symName: __ZN3std4sync6poison4once4Once15call_once_force17h74e8bac50de14036E, symObjAddr: 0x0, symBinAddr: 0x28848, symSize: 0x108 }
  - { offset: 0xBC955, size: 0x8, addend: 0x0, symName: '__ZN3std4sync6poison4once4Once15call_once_force28_$u7b$$u7b$closure$u7d$$u7d$17hd528dbb99d100b8fE', symObjAddr: 0x108, symBinAddr: 0x28950, symSize: 0x84 }
  - { offset: 0xBCFC1, size: 0x8, addend: 0x0, symName: __ZN3std4sync6poison4once4Once15call_once_force17h74e8bac50de14036E, symObjAddr: 0x0, symBinAddr: 0x28848, symSize: 0x108 }
  - { offset: 0xBD10D, size: 0x8, addend: 0x0, symName: '__ZN108_$LT$alloc..collections..btree..map..Iter$LT$K$C$V$GT$$u20$as$u20$core..iter..traits..iterator..Iterator$GT$4next17hff82e918cade48beE', symObjAddr: 0x0, symBinAddr: 0x289D4, symSize: 0xB0 }
  - { offset: 0xBF0E8, size: 0x8, addend: 0x0, symName: __ZN4core4iter6traits8iterator8Iterator3map17h0c1b060593e0798eE, symObjAddr: 0x804, symBinAddr: 0x291D8, symSize: 0x30 }
  - { offset: 0xBF156, size: 0x8, addend: 0x0, symName: __ZN4core4iter6traits8iterator8Iterator3map17h13026b9797f86a51E, symObjAddr: 0x834, symBinAddr: 0x29208, symSize: 0x30 }
  - { offset: 0xBF1C4, size: 0x8, addend: 0x0, symName: __ZN4core4iter6traits8iterator8Iterator3map17h1d57f085b49fa9c7E, symObjAddr: 0x864, symBinAddr: 0x29238, symSize: 0x30 }
  - { offset: 0xBF232, size: 0x8, addend: 0x0, symName: __ZN4core4iter6traits8iterator8Iterator8try_fold17h5c9fa1089692b996E, symObjAddr: 0x894, symBinAddr: 0x29268, symSize: 0x144 }
  - { offset: 0xBF319, size: 0x8, addend: 0x0, symName: '__ZN63_$LT$I$u20$as$u20$core..iter..traits..collect..IntoIterator$GT$9into_iter17h03ab13fcfbcc3debE', symObjAddr: 0x16EC, symBinAddr: 0x2A0C0, symSize: 0x30 }
  - { offset: 0xC0FB9, size: 0x8, addend: 0x0, symName: '__ZN108_$LT$alloc..collections..btree..map..Iter$LT$K$C$V$GT$$u20$as$u20$core..iter..traits..iterator..Iterator$GT$4next17hff82e918cade48beE', symObjAddr: 0x0, symBinAddr: 0x289D4, symSize: 0xB0 }
  - { offset: 0xC1041, size: 0x8, addend: 0x0, symName: '__ZN108_$LT$alloc..collections..btree..map..Iter$LT$K$C$V$GT$$u20$as$u20$core..iter..traits..iterator..Iterator$GT$9size_hint17h4deaaeb4da4e13a1E', symObjAddr: 0xB0, symBinAddr: 0x28A84, symSize: 0x2C }
  - { offset: 0xC10B8, size: 0x8, addend: 0x0, symName: '__ZN110_$LT$alloc..collections..btree..map..Values$LT$K$C$V$GT$$u20$as$u20$core..iter..traits..iterator..Iterator$GT$4next17h654bea899b483a76E', symObjAddr: 0xDC, symBinAddr: 0x28AB0, symSize: 0x64 }
  - { offset: 0xC113E, size: 0x8, addend: 0x0, symName: '__ZN110_$LT$alloc..collections..btree..map..Values$LT$K$C$V$GT$$u20$as$u20$core..iter..traits..iterator..Iterator$GT$9size_hint17he1ac040ed085f4cfE', symObjAddr: 0x140, symBinAddr: 0x28B14, symSize: 0x2C }
  - { offset: 0xC11DF, size: 0x8, addend: 0x0, symName: '__ZN116_$LT$alloc..collections..btree..map..IntoIter$LT$K$C$V$C$A$GT$$u20$as$u20$core..iter..traits..iterator..Iterator$GT$4next17hce318cd174d8e8ffE', symObjAddr: 0x16C, symBinAddr: 0x28B40, symSize: 0x88 }
  - { offset: 0xC1446, size: 0x8, addend: 0x0, symName: '__ZN119_$LT$alloc..collections..btree..map..BTreeMap$LT$K$C$V$C$A$GT$$u20$as$u20$core..iter..traits..collect..IntoIterator$GT$9into_iter17h0996afec14e7a678E', symObjAddr: 0x1F4, symBinAddr: 0x28BC8, symSize: 0x190 }
  - { offset: 0xC15BE, size: 0x8, addend: 0x0, symName: '__ZN119_$LT$alloc..collections..btree..map..BTreeMap$LT$K$C$V$C$A$GT$$u20$as$u20$core..iter..traits..collect..IntoIterator$GT$9into_iter17h98b92f56ce6d4840E', symObjAddr: 0x384, symBinAddr: 0x28D58, symSize: 0x190 }
  - { offset: 0xC17F2, size: 0x8, addend: 0x0, symName: '__ZN136_$LT$alloc..collections..btree..map..BTreeMap$LT$K$C$V$GT$$u20$as$u20$core..iter..traits..collect..FromIterator$LT$$LP$K$C$V$RP$$GT$$GT$9from_iter17h05c91b37028ef8c0E', symObjAddr: 0x514, symBinAddr: 0x28EE8, symSize: 0x13C }
  - { offset: 0xC1961, size: 0x8, addend: 0x0, symName: '__ZN136_$LT$alloc..collections..btree..map..BTreeMap$LT$K$C$V$GT$$u20$as$u20$core..iter..traits..collect..FromIterator$LT$$LP$K$C$V$RP$$GT$$GT$9from_iter17he78f84889e76394bE', symObjAddr: 0x650, symBinAddr: 0x29024, symSize: 0x13C }
  - { offset: 0xC1AD5, size: 0x8, addend: 0x0, symName: '__ZN136_$LT$alloc..collections..btree..map..BTreeMap$LT$K$C$V$GT$$u20$as$u20$core..iter..traits..collect..FromIterator$LT$$LP$K$C$V$RP$$GT$$GT$9from_iter28_$u7b$$u7b$closure$u7d$$u7d$17hd4c4b965b676d715E', symObjAddr: 0x78C, symBinAddr: 0x29160, symSize: 0x3C }
  - { offset: 0xC1B38, size: 0x8, addend: 0x0, symName: '__ZN136_$LT$alloc..collections..btree..map..BTreeMap$LT$K$C$V$GT$$u20$as$u20$core..iter..traits..collect..FromIterator$LT$$LP$K$C$V$RP$$GT$$GT$9from_iter28_$u7b$$u7b$closure$u7d$$u7d$17hfcc2a8e6be4b11edE', symObjAddr: 0x7C8, symBinAddr: 0x2919C, symSize: 0x3C }
  - { offset: 0xC3137, size: 0x8, addend: 0x0, symName: __ZN4pyo310conversion15IntoPyObjectExt17into_bound_py_any17hd2c21f69437e4518E, symObjAddr: 0x9D8, symBinAddr: 0x293AC, symSize: 0xB4 }
  - { offset: 0xC31DD, size: 0x8, addend: 0x0, symName: '__ZN4pyo311conversions3std3map114_$LT$impl$u20$pyo3..conversion..IntoPyObject$u20$for$u20$alloc..collections..btree..map..BTreeMap$LT$K$C$V$GT$$GT$13into_pyobject17h550eacac0bbb49d5E', symObjAddr: 0xA8C, symBinAddr: 0x29460, symSize: 0x204 }
  - { offset: 0xC35C8, size: 0x8, addend: 0x0, symName: '__ZN5alloc11collections5btree3map21BTreeMap$LT$K$C$V$GT$3new17hb0653c04fe7734a7E', symObjAddr: 0xC90, symBinAddr: 0x29664, symSize: 0x24 }
  - { offset: 0xC371A, size: 0x8, addend: 0x0, symName: '__ZN5alloc11collections5btree3map25BTreeMap$LT$K$C$V$C$A$GT$27bulk_build_from_sorted_iter17h7ccabfe52869ceebE', symObjAddr: 0xCB4, symBinAddr: 0x29688, symSize: 0x17C }
  - { offset: 0xC3962, size: 0x8, addend: 0x0, symName: '__ZN5alloc11collections5btree3map25BTreeMap$LT$K$C$V$C$A$GT$27bulk_build_from_sorted_iter17hf61aeb29d02e5a47E', symObjAddr: 0xE30, symBinAddr: 0x29804, symSize: 0x17C }
  - { offset: 0xC3AA9, size: 0x8, addend: 0x0, symName: '__ZN5alloc11collections5btree3map25BTreeMap$LT$K$C$V$C$A$GT$3len17h96aec37a2ec95182E', symObjAddr: 0xFAC, symBinAddr: 0x29980, symSize: 0x18 }
  - { offset: 0xC3B72, size: 0x8, addend: 0x0, symName: '__ZN5alloc11collections5btree3map25BTreeMap$LT$K$C$V$C$A$GT$4iter17hff7735fb944a74b9E', symObjAddr: 0xFC4, symBinAddr: 0x29998, symSize: 0x124 }
  - { offset: 0xC3D50, size: 0x8, addend: 0x0, symName: '__ZN5alloc11collections5btree3map25BTreeMap$LT$K$C$V$C$A$GT$5entry17h132fce58d9d14e5eE', symObjAddr: 0x10E8, symBinAddr: 0x29ABC, symSize: 0x240 }
  - { offset: 0xC3EF0, size: 0x8, addend: 0x0, symName: '__ZN5alloc11collections5btree3map25BTreeMap$LT$K$C$V$C$A$GT$6insert17hf8666ead80e6eafeE', symObjAddr: 0x1328, symBinAddr: 0x29CFC, symSize: 0x174 }
  - { offset: 0xC4075, size: 0x8, addend: 0x0, symName: '__ZN5alloc11collections5btree3map25BTreeMap$LT$K$C$V$C$A$GT$6values17h8c4162e0dfba764aE', symObjAddr: 0x149C, symBinAddr: 0x29E70, symSize: 0x130 }
  - { offset: 0xC4179, size: 0x8, addend: 0x0, symName: '__ZN5alloc11collections5btree3map25IntoIter$LT$K$C$V$C$A$GT$10dying_next17h5397c518604de48aE', symObjAddr: 0x15CC, symBinAddr: 0x29FA0, symSize: 0x90 }
  - { offset: 0xC41C4, size: 0x8, addend: 0x0, symName: '__ZN5alloc11collections5btree3map25IntoIter$LT$K$C$V$C$A$GT$10dying_next17h76124bd60ccf53c0E', symObjAddr: 0x165C, symBinAddr: 0x2A030, symSize: 0x90 }
  - { offset: 0xC4900, size: 0x8, addend: 0x0, symName: __ZN4pyo37pyclass18create_type_object18create_type_object17h818d9de1308ea466E, symObjAddr: 0x0, symBinAddr: 0x2A0F0, symSize: 0x15C }
  - { offset: 0xC6257, size: 0x8, addend: 0x0, symName: __ZN4pyo37pyclass18create_type_object18create_type_object17h818d9de1308ea466E, symObjAddr: 0x0, symBinAddr: 0x2A0F0, symSize: 0x15C }
  - { offset: 0xC62B5, size: 0x8, addend: 0x0, symName: __ZN4pyo37pyclass18create_type_object18create_type_object17hcf7df9be42903814E, symObjAddr: 0x15C, symBinAddr: 0x2A24C, symSize: 0x15C }
  - { offset: 0xC70C6, size: 0x8, addend: 0x0, symName: __ZN4core9ub_checks23maybe_is_nonoverlapping7runtime17hbf24e9ef5a235e53E, symObjAddr: 0x0, symBinAddr: 0x2A3A8, symSize: 0xD8 }
  - { offset: 0xC724B, size: 0x8, addend: 0x0, symName: __ZN4core9ub_checks23maybe_is_nonoverlapping7runtime17hbf24e9ef5a235e53E, symObjAddr: 0x0, symBinAddr: 0x2A3A8, symSize: 0xD8 }
  - { offset: 0xC745E, size: 0x8, addend: 0x0, symName: __ZN4pyo35types4list17BoundListIterator14next_unchecked17hf78f4272553ea788E, symObjAddr: 0x0, symBinAddr: 0x2A480, symSize: 0x104 }
  - { offset: 0xC863B, size: 0x8, addend: 0x0, symName: '__ZN95_$LT$pyo3..types..list..BoundListIterator$u20$as$u20$core..iter..traits..iterator..Iterator$GT$4next17h05a5f514569f4cfcE', symObjAddr: 0x104, symBinAddr: 0x2A584, symSize: 0x24 }
  - { offset: 0xC8C54, size: 0x8, addend: 0x0, symName: __ZN4pyo35types4list17BoundListIterator14next_unchecked17hf78f4272553ea788E, symObjAddr: 0x0, symBinAddr: 0x2A480, symSize: 0x104 }
  - { offset: 0xC8D02, size: 0x8, addend: 0x0, symName: '__ZN103_$LT$pyo3..instance..Bound$LT$pyo3..types..any..PyAny$GT$$u20$as$u20$pyo3..types..any..PyAnyMethods$GT$2eq28_$u7b$$u7b$closure$u7d$$u7d$17hf85694ca5958bb9fE', symObjAddr: 0x0, symBinAddr: 0x2A5A8, symSize: 0x5C }
  - { offset: 0xCA12D, size: 0x8, addend: 0x0, symName: '__ZN103_$LT$pyo3..instance..Bound$LT$pyo3..types..any..PyAny$GT$$u20$as$u20$pyo3..types..any..PyAnyMethods$GT$2eq28_$u7b$$u7b$closure$u7d$$u7d$17hf85694ca5958bb9fE', symObjAddr: 0x0, symBinAddr: 0x2A5A8, symSize: 0x5C }
  - { offset: 0xCA182, size: 0x8, addend: 0x0, symName: '__ZN73_$LT$pyo3..types..any..PyAny$u20$as$u20$pyo3..type_object..PyTypeInfo$GT$15type_object_raw28_$u7b$$u7b$closure$u7d$$u7d$17h7a46ad6d31b12052E', symObjAddr: 0x8C, symBinAddr: 0x2A634, symSize: 0x18 }
  - { offset: 0xCA223, size: 0x8, addend: 0x0, symName: __ZN4pyo311type_object10PyTypeInfo11type_object17h46be122182180db2E, symObjAddr: 0x5C, symBinAddr: 0x2A604, symSize: 0x30 }
  - { offset: 0xCABBA, size: 0x8, addend: 0x0, symName: '__ZN118_$LT$pyo3..impl_..pyclass..SendablePyClass$LT$T$GT$$u20$as$u20$pyo3..impl_..pyclass..PyClassThreadChecker$LT$T$GT$$GT$3new17h01dccc1179cbb320E', symObjAddr: 0x0, symBinAddr: 0x2A64C, symSize: 0x4 }
  - { offset: 0xCC403, size: 0x8, addend: 0x0, symName: '__ZN118_$LT$pyo3..impl_..pyclass..SendablePyClass$LT$T$GT$$u20$as$u20$pyo3..impl_..pyclass..PyClassThreadChecker$LT$T$GT$$GT$3new17h01dccc1179cbb320E', symObjAddr: 0x0, symBinAddr: 0x2A64C, symSize: 0x4 }
  - { offset: 0xCC427, size: 0x8, addend: 0x0, symName: '__ZN118_$LT$pyo3..impl_..pyclass..SendablePyClass$LT$T$GT$$u20$as$u20$pyo3..impl_..pyclass..PyClassThreadChecker$LT$T$GT$$GT$3new17h0c6c51f51f7838a4E', symObjAddr: 0x4, symBinAddr: 0x2A650, symSize: 0x4 }
  - { offset: 0xCC44B, size: 0x8, addend: 0x0, symName: '__ZN118_$LT$pyo3..impl_..pyclass..SendablePyClass$LT$T$GT$$u20$as$u20$pyo3..impl_..pyclass..PyClassThreadChecker$LT$T$GT$$GT$6ensure17h47555db6b514aeaeE', symObjAddr: 0x8, symBinAddr: 0x2A654, symSize: 0x10 }
  - { offset: 0xCC47E, size: 0x8, addend: 0x0, symName: '__ZN118_$LT$pyo3..impl_..pyclass..SendablePyClass$LT$T$GT$$u20$as$u20$pyo3..impl_..pyclass..PyClassThreadChecker$LT$T$GT$$GT$6ensure17h4b75e8d7e99aa807E', symObjAddr: 0x18, symBinAddr: 0x2A664, symSize: 0x10 }
  - { offset: 0xCC4B1, size: 0x8, addend: 0x0, symName: '__ZN118_$LT$pyo3..impl_..pyclass..SendablePyClass$LT$T$GT$$u20$as$u20$pyo3..impl_..pyclass..PyClassThreadChecker$LT$T$GT$$GT$8can_drop17h1c7ee40db93f3dcfE', symObjAddr: 0x28, symBinAddr: 0x2A674, symSize: 0x18 }
  - { offset: 0xCC503, size: 0x8, addend: 0x0, symName: '__ZN118_$LT$pyo3..impl_..pyclass..SendablePyClass$LT$T$GT$$u20$as$u20$pyo3..impl_..pyclass..PyClassThreadChecker$LT$T$GT$$GT$8can_drop17haee2928a0a321241E', symObjAddr: 0x40, symBinAddr: 0x2A68C, symSize: 0x18 }
  - { offset: 0xCC556, size: 0x8, addend: 0x0, symName: __ZN4pyo35impl_7pyclass10tp_dealloc17hc1ed5615aa629545E, symObjAddr: 0x58, symBinAddr: 0x2A6A4, symSize: 0x34 }
  - { offset: 0xCC589, size: 0x8, addend: 0x0, symName: __ZN4pyo35impl_7pyclass10tp_dealloc17heba314c1137790d3E, symObjAddr: 0x8C, symBinAddr: 0x2A6D8, symSize: 0x34 }
  - { offset: 0xCC5C1, size: 0x8, addend: 0x0, symName: __ZN4pyo35impl_7pyclass11PyClassDict10clear_dict17h1473e39df9bf0593E, symObjAddr: 0xC0, symBinAddr: 0x2A70C, symSize: 0x10 }
  - { offset: 0xCC611, size: 0x8, addend: 0x0, symName: __ZN4pyo35impl_7pyclass14PyClassWeakRef14clear_weakrefs17h4e00260ed493b091E, symObjAddr: 0xD0, symBinAddr: 0x2A71C, symSize: 0x14 }
  - { offset: 0xCC66A, size: 0x8, addend: 0x0, symName: __ZN4pyo35impl_7pyclass18tp_dealloc_with_gc17h67ad9b50361e3e8bE, symObjAddr: 0xE4, symBinAddr: 0x2A730, symSize: 0x4C }
  - { offset: 0xCC6BB, size: 0x8, addend: 0x0, symName: __ZN4pyo35impl_7pyclass18tp_dealloc_with_gc17hb4755caf7ebeb54dE, symObjAddr: 0x130, symBinAddr: 0x2A77C, symSize: 0x4C }
  - { offset: 0xCC711, size: 0x8, addend: 0x0, symName: __ZN4pyo35impl_7pyclass25PyClass__ge__SlotFragment6__ge__17hfe1c2bfb9c4c3975E, symObjAddr: 0x17C, symBinAddr: 0x2A7C8, symSize: 0x6C }
  - { offset: 0xCC790, size: 0x8, addend: 0x0, symName: __ZN4pyo35impl_7pyclass25PyClass__gt__SlotFragment6__gt__17h46d4dabefccbbbd6E, symObjAddr: 0x1E8, symBinAddr: 0x2A834, symSize: 0x6C }
  - { offset: 0xCC80F, size: 0x8, addend: 0x0, symName: __ZN4pyo35impl_7pyclass25PyClass__le__SlotFragment6__le__17he7428286eae70788E, symObjAddr: 0x254, symBinAddr: 0x2A8A0, symSize: 0x6C }
  - { offset: 0xCC88E, size: 0x8, addend: 0x0, symName: __ZN4pyo35impl_7pyclass25PyClass__lt__SlotFragment6__lt__17h592962afa7662b32E, symObjAddr: 0x2C0, symBinAddr: 0x2A90C, symSize: 0x6C }
  - { offset: 0xCC90D, size: 0x8, addend: 0x0, symName: __ZN4pyo35impl_7pyclass25PyClass__ne__SlotFragment6__ne__17h97da9f286baa79d4E, symObjAddr: 0x32C, symBinAddr: 0x2A978, symSize: 0xC4 }
  - { offset: 0xCC9C7, size: 0x8, addend: 0x0, symName: '__ZN4pyo35impl_7pyclass25PyClass__ne__SlotFragment6__ne__28_$u7b$$u7b$closure$u7d$$u7d$17h00d2bae5b8411061E', symObjAddr: 0x3F0, symBinAddr: 0x2AA3C, symSize: 0x30 }
  - { offset: 0xCD47D, size: 0x8, addend: 0x0, symName: '__ZN4pyo35impl_7pyclass29PyClassImplCollector$LT$T$GT$3new17hca18e24edf6be182E', symObjAddr: 0x420, symBinAddr: 0x2AA6C, symSize: 0x4 }
  - { offset: 0xCD539, size: 0x8, addend: 0x0, symName: '__ZN4pyo35impl_7pyclass29PyClassImplCollector$LT$T$GT$3new17hcb27cd14f80c2c06E', symObjAddr: 0x424, symBinAddr: 0x2AA70, symSize: 0x4 }
  - { offset: 0xCD7F5, size: 0x8, addend: 0x0, symName: '__ZN4core5slice29_$LT$impl$u20$$u5b$T$u5d$$GT$18split_at_unchecked18precondition_check17h7ef4f0a275b5dd2eE', symObjAddr: 0x0, symBinAddr: 0x2AA74, symSize: 0xAC }
  - { offset: 0xCDB1C, size: 0x8, addend: 0x0, symName: '__ZN4core5slice29_$LT$impl$u20$$u5b$T$u5d$$GT$18split_at_unchecked18precondition_check17h7ef4f0a275b5dd2eE', symObjAddr: 0x0, symBinAddr: 0x2AA74, symSize: 0xAC }
  - { offset: 0xCDB8A, size: 0x8, addend: 0x0, symName: '__ZN4core5slice29_$LT$impl$u20$$u5b$T$u5d$$GT$22split_at_mut_unchecked18precondition_check17h4f624b2b2db5f5e8E', symObjAddr: 0xAC, symBinAddr: 0x2AB20, symSize: 0xAC }
  - { offset: 0xCDDAB, size: 0x8, addend: 0x0, symName: '__ZN102_$LT$core..iter..adapters..zip..Zip$LT$A$C$B$GT$$u20$as$u20$core..iter..traits..iterator..Iterator$GT$4next17h3bc06628e730dd5dE', symObjAddr: 0x0, symBinAddr: 0x2ABCC, symSize: 0x24 }
  - { offset: 0xCDDEF, size: 0x8, addend: 0x0, symName: '__ZN102_$LT$core..iter..adapters..zip..Zip$LT$A$C$B$GT$$u20$as$u20$core..iter..traits..iterator..Iterator$GT$4next17h3bc06628e730dd5dE', symObjAddr: 0x0, symBinAddr: 0x2ABCC, symSize: 0x24 }
  - { offset: 0xCDE33, size: 0x8, addend: 0x0, symName: '__ZN111_$LT$core..iter..adapters..zip..Zip$LT$A$C$B$GT$$u20$as$u20$core..iter..adapters..zip..ZipImpl$LT$A$C$B$GT$$GT$3new17h33a9ec14c3b95ffaE', symObjAddr: 0x24, symBinAddr: 0x2ABF0, symSize: 0x3C }
  - { offset: 0xCDE7F, size: 0x8, addend: 0x0, symName: '__ZN111_$LT$core..iter..adapters..zip..Zip$LT$A$C$B$GT$$u20$as$u20$core..iter..adapters..zip..ZipImpl$LT$A$C$B$GT$$GT$4next17hc3b41bfba3a4203dE', symObjAddr: 0x60, symBinAddr: 0x2AC2C, symSize: 0xE0 }
  - { offset: 0xCE0AC, size: 0x8, addend: 0x0, symName: '__ZN63_$LT$I$u20$as$u20$core..iter..traits..collect..IntoIterator$GT$9into_iter17h4c3d3b59fea32ca0E', symObjAddr: 0x140, symBinAddr: 0x2AD0C, symSize: 0x30 }
  - { offset: 0xCE0E4, size: 0x8, addend: 0x0, symName: '__ZN63_$LT$I$u20$as$u20$core..iter..traits..collect..IntoIterator$GT$9into_iter17h56539c145047b31eE', symObjAddr: 0x170, symBinAddr: 0x2AD3C, symSize: 0x30 }
  - { offset: 0xCFC36, size: 0x8, addend: 0x0, symName: '__ZN57_$LT$zip321..parse..Param$u20$as$u20$core..fmt..Debug$GT$3fmt17h52f1fcded9ae498dE', symObjAddr: 0x0, symBinAddr: 0x2AD6C, symSize: 0x200 }
  - { offset: 0xD024A, size: 0x8, addend: 0x0, symName: '__ZN57_$LT$zip321..parse..Param$u20$as$u20$core..fmt..Debug$GT$3fmt17h52f1fcded9ae498dE', symObjAddr: 0x0, symBinAddr: 0x2AD6C, symSize: 0x200 }
  - { offset: 0xD04EB, size: 0x8, addend: 0x0, symName: '__ZN4core3ptr8non_null16NonNull$LT$T$GT$13new_unchecked18precondition_check17h0e0191e65edfb26dE', symObjAddr: 0x0, symBinAddr: 0x2AF6C, symSize: 0xA4 }
  - { offset: 0xD076D, size: 0x8, addend: 0x0, symName: '__ZN4core3ptr8non_null16NonNull$LT$T$GT$13new_unchecked18precondition_check17h0e0191e65edfb26dE', symObjAddr: 0x0, symBinAddr: 0x2AF6C, symSize: 0xA4 }
  - { offset: 0xD0A1A, size: 0x8, addend: 0x0, symName: __ZN4core5slice4sort6shared9smallsort11insert_tail17hb3653687913349e4E, symObjAddr: 0x0, symBinAddr: 0x2B010, symSize: 0x1DC }
  - { offset: 0xD1AAC, size: 0x8, addend: 0x0, symName: __ZN4core5slice4sort6shared9smallsort11insert_tail17hb3653687913349e4E, symObjAddr: 0x0, symBinAddr: 0x2B010, symSize: 0x1DC }
  - { offset: 0xD1C07, size: 0x8, addend: 0x0, symName: __ZN4core5slice4sort6shared9smallsort11insert_tail17he44094a084545a74E, symObjAddr: 0x1DC, symBinAddr: 0x2B1EC, symSize: 0x1DC }
  - { offset: 0xD1D62, size: 0x8, addend: 0x0, symName: __ZN4core5slice4sort6shared9smallsort12sort4_stable17h2ec96a6cb1ac99f3E, symObjAddr: 0x3B8, symBinAddr: 0x2B3C8, symSize: 0x7DC }
  - { offset: 0xD3047, size: 0x8, addend: 0x0, symName: __ZN4core5slice4sort6shared9smallsort12sort4_stable17hf32fdab5cd2f2be8E, symObjAddr: 0xB94, symBinAddr: 0x2BBA4, symSize: 0x7DC }
  - { offset: 0xD4410, size: 0x8, addend: 0x0, symName: __ZN4core5slice4sort6shared9smallsort19bidirectional_merge17hf31abe39598ee158E, symObjAddr: 0x1370, symBinAddr: 0x2C380, symSize: 0x59C }
  - { offset: 0xD4BBC, size: 0x8, addend: 0x0, symName: __ZN4core5slice4sort6shared9smallsort19bidirectional_merge17hf4eed231791a34abE, symObjAddr: 0x190C, symBinAddr: 0x2C91C, symSize: 0x59C }
  - { offset: 0xD5284, size: 0x8, addend: 0x0, symName: __ZN4core5slice4sort6shared9smallsort25insertion_sort_shift_left17ha917b0537e6a3995E, symObjAddr: 0x1EA8, symBinAddr: 0x2CEB8, symSize: 0xD0 }
  - { offset: 0xD53BE, size: 0x8, addend: 0x0, symName: __ZN4core5slice4sort6shared9smallsort25insertion_sort_shift_left17hb9d2e25fd51c370eE, symObjAddr: 0x1F78, symBinAddr: 0x2CF88, symSize: 0xD0 }
  - { offset: 0xD54F8, size: 0x8, addend: 0x0, symName: __ZN4core5slice4sort6shared9smallsort31small_sort_general_with_scratch17ha04867ec6e0f3c46E, symObjAddr: 0x2048, symBinAddr: 0x2D058, symSize: 0x500 }
  - { offset: 0xD5938, size: 0x8, addend: 0x0, symName: __ZN4core5slice4sort6shared9smallsort31small_sort_general_with_scratch17ha0cc7bd212f7318bE, symObjAddr: 0x2548, symBinAddr: 0x2D558, symSize: 0x500 }
  - { offset: 0xD6AE1, size: 0x8, addend: 0x0, symName: '__ZN106_$LT$core..ops..range..Range$LT$usize$GT$$u20$as$u20$core..slice..index..SliceIndex$LT$$u5b$T$u5d$$GT$$GT$9index_mut17h67c25febd29fce9aE', symObjAddr: 0x0, symBinAddr: 0x2DA58, symSize: 0xBC }
  - { offset: 0xD75FD, size: 0x8, addend: 0x0, symName: '__ZN106_$LT$core..ops..range..Range$LT$usize$GT$$u20$as$u20$core..slice..index..SliceIndex$LT$$u5b$T$u5d$$GT$$GT$9index_mut17h67c25febd29fce9aE', symObjAddr: 0x0, symBinAddr: 0x2DA58, symSize: 0xBC }
  - { offset: 0xD7777, size: 0x8, addend: 0x0, symName: '__ZN108_$LT$core..ops..range..RangeTo$LT$usize$GT$$u20$as$u20$core..slice..index..SliceIndex$LT$$u5b$T$u5d$$GT$$GT$9index_mut17h5cabf4282a98cbd2E', symObjAddr: 0xBC, symBinAddr: 0x2DB14, symSize: 0x54 }
  - { offset: 0xD77F7, size: 0x8, addend: 0x0, symName: '__ZN110_$LT$core..ops..range..RangeFrom$LT$usize$GT$$u20$as$u20$core..slice..index..SliceIndex$LT$$u5b$T$u5d$$GT$$GT$5index17h4ad35fd6c020e9c8E', symObjAddr: 0x110, symBinAddr: 0x2DB68, symSize: 0x94 }
  - { offset: 0xD78FB, size: 0x8, addend: 0x0, symName: '__ZN110_$LT$core..ops..range..RangeFrom$LT$usize$GT$$u20$as$u20$core..slice..index..SliceIndex$LT$$u5b$T$u5d$$GT$$GT$9index_mut17ha4e69637d83d49a3E', symObjAddr: 0x1A4, symBinAddr: 0x2DBFC, symSize: 0xAC }
  - { offset: 0xD79FF, size: 0x8, addend: 0x0, symName: '__ZN110_$LT$core..ops..range..RangeFrom$LT$usize$GT$$u20$as$u20$core..slice..index..SliceIndex$LT$$u5b$T$u5d$$GT$$GT$9index_mut17haafc3233f956f6a7E', symObjAddr: 0x250, symBinAddr: 0x2DCA8, symSize: 0xAC }
  - { offset: 0xD8C97, size: 0x8, addend: 0x0, symName: __ZN4core5slice4sort6stable5drift10create_run17h9786177e399ffb07E, symObjAddr: 0x0, symBinAddr: 0x2DD54, symSize: 0x438 }
  - { offset: 0xD952A, size: 0x8, addend: 0x0, symName: __ZN4core5slice4sort6stable5drift10create_run17h9786177e399ffb07E, symObjAddr: 0x0, symBinAddr: 0x2DD54, symSize: 0x438 }
  - { offset: 0xD9A3B, size: 0x8, addend: 0x0, symName: __ZN4core5slice4sort6stable5drift10create_run17h9ad73dc48ed0f132E, symObjAddr: 0x438, symBinAddr: 0x2E18C, symSize: 0x438 }
  - { offset: 0xD9F4C, size: 0x8, addend: 0x0, symName: __ZN4core5slice4sort6stable5drift16stable_quicksort17h147d6154acf33753E, symObjAddr: 0x870, symBinAddr: 0x2E5C4, symSize: 0xB4 }
  - { offset: 0xDA086, size: 0x8, addend: 0x0, symName: __ZN4core5slice4sort6stable5drift16stable_quicksort17h7e34482f2c5714ccE, symObjAddr: 0x924, symBinAddr: 0x2E678, symSize: 0xB4 }
  - { offset: 0xDA2AB, size: 0x8, addend: 0x0, symName: __ZN4core5slice4sort6stable5drift4sort17h920f67917595a79eE, symObjAddr: 0x9D8, symBinAddr: 0x2E72C, symSize: 0x5C4 }
  - { offset: 0xDAB20, size: 0x8, addend: 0x0, symName: __ZN4core5slice4sort6stable5drift4sort17hcc0be2b85263d090E, symObjAddr: 0xF9C, symBinAddr: 0x2ECF0, symSize: 0x5C4 }
  - { offset: 0xDC77B, size: 0x8, addend: 0x0, symName: '__ZN59_$LT$alloc..alloc..Global$u20$as$u20$core..clone..Clone$GT$5clone17hc11614fcb400accbE', symObjAddr: 0x0, symBinAddr: 0x2F2B4, symSize: 0x10 }
  - { offset: 0xDD07E, size: 0x8, addend: 0x0, symName: '__ZN59_$LT$alloc..alloc..Global$u20$as$u20$core..clone..Clone$GT$5clone17hc11614fcb400accbE', symObjAddr: 0x0, symBinAddr: 0x2F2B4, symSize: 0x10 }
  - { offset: 0xDD0D4, size: 0x8, addend: 0x0, symName: '__ZN63_$LT$alloc..alloc..Global$u20$as$u20$core..alloc..Allocator$GT$10deallocate17h187096a3720f883eE', symObjAddr: 0x2B8, symBinAddr: 0x2F56C, symSize: 0x80 }
  - { offset: 0xDD19B, size: 0x8, addend: 0x0, symName: '__ZN63_$LT$alloc..alloc..Global$u20$as$u20$core..alloc..Allocator$GT$8allocate17h605e96e517365491E', symObjAddr: 0x338, symBinAddr: 0x2F5EC, symSize: 0x34 }
  - { offset: 0xDD1FE, size: 0x8, addend: 0x0, symName: __ZN5alloc5alloc15exchange_malloc17hb9c3828f622b067aE, symObjAddr: 0x10, symBinAddr: 0x2F2C4, symSize: 0xAC }
  - { offset: 0xDD517, size: 0x8, addend: 0x0, symName: __ZN5alloc5alloc6Global10alloc_impl17hbf982d4d6bc73155E, symObjAddr: 0xBC, symBinAddr: 0x2F370, symSize: 0x1FC }
  - { offset: 0xDD907, size: 0x8, addend: 0x0, symName: '__ZN4pyo35impl_4wrap30IntoPyObjectConverter$LT$T$GT$4wrap17h21b8d74d121111f5E', symObjAddr: 0x0, symBinAddr: 0x2F620, symSize: 0x24 }
  - { offset: 0xDFCED, size: 0x8, addend: 0x0, symName: '__ZN4pyo35impl_4wrap62IntoPyObjectConverter$LT$core..result..Result$LT$T$C$E$GT$$GT$12map_into_ptr28_$u7b$$u7b$closure$u7d$$u7d$17h0d708439691b7065E', symObjAddr: 0x1BC, symBinAddr: 0x2F7DC, symSize: 0x28 }
  - { offset: 0xDFD45, size: 0x8, addend: 0x0, symName: '__ZN4pyo35impl_4wrap62IntoPyObjectConverter$LT$core..result..Result$LT$T$C$E$GT$$GT$12map_into_ptr28_$u7b$$u7b$closure$u7d$$u7d$17h1e84dbada50ed752E', symObjAddr: 0x1E4, symBinAddr: 0x2F804, symSize: 0x28 }
  - { offset: 0xDFD9D, size: 0x8, addend: 0x0, symName: '__ZN4pyo35impl_4wrap62IntoPyObjectConverter$LT$core..result..Result$LT$T$C$E$GT$$GT$12map_into_ptr28_$u7b$$u7b$closure$u7d$$u7d$17ha4585e232b8a1a28E', symObjAddr: 0x20C, symBinAddr: 0x2F82C, symSize: 0x28 }
  - { offset: 0xDFDF5, size: 0x8, addend: 0x0, symName: '__ZN4pyo35impl_4wrap62IntoPyObjectConverter$LT$core..result..Result$LT$T$C$E$GT$$GT$12map_into_ptr28_$u7b$$u7b$closure$u7d$$u7d$17hd2015d7421e27eafE', symObjAddr: 0x234, symBinAddr: 0x2F854, symSize: 0x28 }
  - { offset: 0xDFE4D, size: 0x8, addend: 0x0, symName: '__ZN4pyo35impl_4wrap62IntoPyObjectConverter$LT$core..result..Result$LT$T$C$E$GT$$GT$12map_into_ptr28_$u7b$$u7b$closure$u7d$$u7d$17hdfa4dc1daa558fcdE', symObjAddr: 0x25C, symBinAddr: 0x2F87C, symSize: 0x30 }
  - { offset: 0xDFEA4, size: 0x8, addend: 0x0, symName: '__ZN4pyo35impl_4wrap62IntoPyObjectConverter$LT$core..result..Result$LT$T$C$E$GT$$GT$12map_into_ptr28_$u7b$$u7b$closure$u7d$$u7d$17hf26ee87f4d78a1c0E', symObjAddr: 0x28C, symBinAddr: 0x2F8AC, symSize: 0x34 }
  - { offset: 0xDFF6F, size: 0x8, addend: 0x0, symName: __ZN4pyo35impl_4wrap9converter17h3a65a96cbf78cd86E, symObjAddr: 0x3C4, symBinAddr: 0x2F9E4, symSize: 0x10 }
  - { offset: 0xDFF9C, size: 0x8, addend: 0x0, symName: __ZN4pyo35impl_4wrap9converter17h435c270d51b45e6cE, symObjAddr: 0x3D4, symBinAddr: 0x2F9F4, symSize: 0x10 }
  - { offset: 0xDFFC9, size: 0x8, addend: 0x0, symName: __ZN4pyo35impl_4wrap9converter17h4f12f20384c5b312E, symObjAddr: 0x3E4, symBinAddr: 0x2FA04, symSize: 0x10 }
  - { offset: 0xDFFF6, size: 0x8, addend: 0x0, symName: __ZN4pyo35impl_4wrap9converter17h5a24212edd22b5e5E, symObjAddr: 0x3F4, symBinAddr: 0x2FA14, symSize: 0x10 }
  - { offset: 0xE0023, size: 0x8, addend: 0x0, symName: __ZN4pyo35impl_4wrap9converter17h7f46ec749e68b6bbE, symObjAddr: 0x404, symBinAddr: 0x2FA24, symSize: 0x10 }
  - { offset: 0xE0050, size: 0x8, addend: 0x0, symName: __ZN4pyo35impl_4wrap9converter17h85c7724180d73e86E, symObjAddr: 0x414, symBinAddr: 0x2FA34, symSize: 0x10 }
  - { offset: 0xE007D, size: 0x8, addend: 0x0, symName: __ZN4pyo35impl_4wrap9converter17h9529282ee56e5215E, symObjAddr: 0x424, symBinAddr: 0x2FA44, symSize: 0x10 }
  - { offset: 0xE00AF, size: 0x8, addend: 0x0, symName: '__ZN81_$LT$pyo3..impl_..wrap..Converter$LT$T$GT$$u20$as$u20$core..ops..deref..Deref$GT$5deref17h0fa053353b977d5fE', symObjAddr: 0x434, symBinAddr: 0x2FA54, symSize: 0x14 }
  - { offset: 0xE00E4, size: 0x8, addend: 0x0, symName: '__ZN81_$LT$pyo3..impl_..wrap..Converter$LT$T$GT$$u20$as$u20$core..ops..deref..Deref$GT$5deref17h2903916b266e0ee3E', symObjAddr: 0x448, symBinAddr: 0x2FA68, symSize: 0x14 }
  - { offset: 0xE0119, size: 0x8, addend: 0x0, symName: '__ZN81_$LT$pyo3..impl_..wrap..Converter$LT$T$GT$$u20$as$u20$core..ops..deref..Deref$GT$5deref17h3f1ffec2ca01460eE', symObjAddr: 0x45C, symBinAddr: 0x2FA7C, symSize: 0x14 }
  - { offset: 0xE014E, size: 0x8, addend: 0x0, symName: '__ZN81_$LT$pyo3..impl_..wrap..Converter$LT$T$GT$$u20$as$u20$core..ops..deref..Deref$GT$5deref17h4121ccc616729f98E', symObjAddr: 0x470, symBinAddr: 0x2FA90, symSize: 0x14 }
  - { offset: 0xE0183, size: 0x8, addend: 0x0, symName: '__ZN81_$LT$pyo3..impl_..wrap..Converter$LT$T$GT$$u20$as$u20$core..ops..deref..Deref$GT$5deref17h596044bf218b9198E', symObjAddr: 0x484, symBinAddr: 0x2FAA4, symSize: 0x14 }
  - { offset: 0xE01B8, size: 0x8, addend: 0x0, symName: '__ZN81_$LT$pyo3..impl_..wrap..Converter$LT$T$GT$$u20$as$u20$core..ops..deref..Deref$GT$5deref17haf859b80ddb354e4E', symObjAddr: 0x498, symBinAddr: 0x2FAB8, symSize: 0x14 }
  - { offset: 0xE01ED, size: 0x8, addend: 0x0, symName: '__ZN81_$LT$pyo3..impl_..wrap..Converter$LT$T$GT$$u20$as$u20$core..ops..deref..Deref$GT$5deref17hfd7e28d7cd51bb39E', symObjAddr: 0x4AC, symBinAddr: 0x2FACC, symSize: 0x14 }
  - { offset: 0xE0228, size: 0x8, addend: 0x0, symName: '__ZN91_$LT$pyo3..impl_..wrap..EmptyTupleConverter$LT$T$GT$$u20$as$u20$core..ops..deref..Deref$GT$5deref17h436be584b465f01eE', symObjAddr: 0x4C0, symBinAddr: 0x2FAE0, symSize: 0x14 }
  - { offset: 0xE025D, size: 0x8, addend: 0x0, symName: '__ZN91_$LT$pyo3..impl_..wrap..EmptyTupleConverter$LT$T$GT$$u20$as$u20$core..ops..deref..Deref$GT$5deref17h4ce90a010a0f8c82E', symObjAddr: 0x4D4, symBinAddr: 0x2FAF4, symSize: 0x14 }
  - { offset: 0xE0292, size: 0x8, addend: 0x0, symName: '__ZN91_$LT$pyo3..impl_..wrap..EmptyTupleConverter$LT$T$GT$$u20$as$u20$core..ops..deref..Deref$GT$5deref17h6d5c9224719774c3E', symObjAddr: 0x4E8, symBinAddr: 0x2FB08, symSize: 0x14 }
  - { offset: 0xE02C7, size: 0x8, addend: 0x0, symName: '__ZN91_$LT$pyo3..impl_..wrap..EmptyTupleConverter$LT$T$GT$$u20$as$u20$core..ops..deref..Deref$GT$5deref17h7202359feaccfa77E', symObjAddr: 0x4FC, symBinAddr: 0x2FB1C, symSize: 0x14 }
  - { offset: 0xE02FC, size: 0x8, addend: 0x0, symName: '__ZN91_$LT$pyo3..impl_..wrap..EmptyTupleConverter$LT$T$GT$$u20$as$u20$core..ops..deref..Deref$GT$5deref17hcee19e12f6a51eacE', symObjAddr: 0x510, symBinAddr: 0x2FB30, symSize: 0x14 }
  - { offset: 0xE0331, size: 0x8, addend: 0x0, symName: '__ZN91_$LT$pyo3..impl_..wrap..EmptyTupleConverter$LT$T$GT$$u20$as$u20$core..ops..deref..Deref$GT$5deref17hd916b16ab23ecd38E', symObjAddr: 0x524, symBinAddr: 0x2FB44, symSize: 0x14 }
  - { offset: 0xE0366, size: 0x8, addend: 0x0, symName: '__ZN91_$LT$pyo3..impl_..wrap..EmptyTupleConverter$LT$T$GT$$u20$as$u20$core..ops..deref..Deref$GT$5deref17hed605680a3da0d9fE', symObjAddr: 0x538, symBinAddr: 0x2FB58, symSize: 0x14 }
  - { offset: 0xE0C9E, size: 0x8, addend: 0x0, symName: '__ZN4pyo35impl_4wrap30IntoPyObjectConverter$LT$T$GT$4wrap17h21b8d74d121111f5E', symObjAddr: 0x0, symBinAddr: 0x2F620, symSize: 0x24 }
  - { offset: 0xE1324, size: 0x8, addend: 0x0, symName: '__ZN4pyo35impl_4wrap62IntoPyObjectConverter$LT$core..result..Result$LT$T$C$E$GT$$GT$12map_into_ptr17h04d0c4a23547c8f0E', symObjAddr: 0x24, symBinAddr: 0x2F644, symSize: 0x44 }
  - { offset: 0xE1394, size: 0x8, addend: 0x0, symName: '__ZN4pyo35impl_4wrap62IntoPyObjectConverter$LT$core..result..Result$LT$T$C$E$GT$$GT$12map_into_ptr17h4c30ed632e8c9a63E', symObjAddr: 0x68, symBinAddr: 0x2F688, symSize: 0x44 }
  - { offset: 0xE13FD, size: 0x8, addend: 0x0, symName: '__ZN4pyo35impl_4wrap62IntoPyObjectConverter$LT$core..result..Result$LT$T$C$E$GT$$GT$12map_into_ptr17h818b65261ad1db2fE', symObjAddr: 0xAC, symBinAddr: 0x2F6CC, symSize: 0x44 }
  - { offset: 0xE14C5, size: 0x8, addend: 0x0, symName: '__ZN4pyo35impl_4wrap62IntoPyObjectConverter$LT$core..result..Result$LT$T$C$E$GT$$GT$12map_into_ptr17habf42aa547c13c4dE', symObjAddr: 0xF0, symBinAddr: 0x2F710, symSize: 0x44 }
  - { offset: 0xE152E, size: 0x8, addend: 0x0, symName: '__ZN4pyo35impl_4wrap62IntoPyObjectConverter$LT$core..result..Result$LT$T$C$E$GT$$GT$12map_into_ptr17hb1449777b5ce3402E', symObjAddr: 0x134, symBinAddr: 0x2F754, symSize: 0x44 }
  - { offset: 0xE1597, size: 0x8, addend: 0x0, symName: '__ZN4pyo35impl_4wrap62IntoPyObjectConverter$LT$core..result..Result$LT$T$C$E$GT$$GT$12map_into_ptr17hfeaf6df0ce34acd3E', symObjAddr: 0x178, symBinAddr: 0x2F798, symSize: 0x44 }
  - { offset: 0xE15F3, size: 0x8, addend: 0x0, symName: '__ZN4pyo35impl_4wrap62IntoPyObjectConverter$LT$core..result..Result$LT$T$C$E$GT$$GT$4wrap17h14e8a9425ba838b1E', symObjAddr: 0x2C0, symBinAddr: 0x2F8E0, symSize: 0x34 }
  - { offset: 0xE1636, size: 0x8, addend: 0x0, symName: '__ZN4pyo35impl_4wrap62IntoPyObjectConverter$LT$core..result..Result$LT$T$C$E$GT$$GT$4wrap17h299a7c8e33b48e74E', symObjAddr: 0x2F4, symBinAddr: 0x2F914, symSize: 0x34 }
  - { offset: 0xE1679, size: 0x8, addend: 0x0, symName: '__ZN4pyo35impl_4wrap62IntoPyObjectConverter$LT$core..result..Result$LT$T$C$E$GT$$GT$4wrap17h771cc9cfb0d9775dE', symObjAddr: 0x328, symBinAddr: 0x2F948, symSize: 0x34 }
  - { offset: 0xE16BC, size: 0x8, addend: 0x0, symName: '__ZN4pyo35impl_4wrap62IntoPyObjectConverter$LT$core..result..Result$LT$T$C$E$GT$$GT$4wrap17h857deeb08290047bE', symObjAddr: 0x35C, symBinAddr: 0x2F97C, symSize: 0x34 }
  - { offset: 0xE16FF, size: 0x8, addend: 0x0, symName: '__ZN4pyo35impl_4wrap62IntoPyObjectConverter$LT$core..result..Result$LT$T$C$E$GT$$GT$4wrap17hf7a69beb3c079b03E', symObjAddr: 0x390, symBinAddr: 0x2F9B0, symSize: 0x34 }
  - { offset: 0xE187E, size: 0x8, addend: 0x0, symName: '__ZN97_$LT$alloc..ffi..c_str..CString$u20$as$u20$core..borrow..Borrow$LT$core..ffi..c_str..CStr$GT$$GT$6borrow17hb982bae8d41683c2E', symObjAddr: 0x0, symBinAddr: 0x2FB6C, symSize: 0x20 }
  - { offset: 0xE1904, size: 0x8, addend: 0x0, symName: '__ZN97_$LT$alloc..ffi..c_str..CString$u20$as$u20$core..borrow..Borrow$LT$core..ffi..c_str..CStr$GT$$GT$6borrow17hb982bae8d41683c2E', symObjAddr: 0x0, symBinAddr: 0x2FB6C, symSize: 0x20 }
  - { offset: 0xE1A89, size: 0x8, addend: 0x0, symName: __ZN4core3fmt2rt8Argument11new_display17h04692347abf764caE, symObjAddr: 0x0, symBinAddr: 0x2FB8C, symSize: 0x2C }
  - { offset: 0xE1F73, size: 0x8, addend: 0x0, symName: __ZN4core3fmt2rt8Argument11new_display17h04692347abf764caE, symObjAddr: 0x0, symBinAddr: 0x2FB8C, symSize: 0x2C }
  - { offset: 0xE2064, size: 0x8, addend: 0x0, symName: __ZN4core3fmt2rt8Argument11new_display17h58828f755dfc0579E, symObjAddr: 0x2C, symBinAddr: 0x2FBB8, symSize: 0x2C }
  - { offset: 0xE21E6, size: 0x8, addend: 0x0, symName: __ZN4core3fmt2rt8Argument9new_debug17h27c76814d31e522aE, symObjAddr: 0x58, symBinAddr: 0x2FBE4, symSize: 0x2C }
  - { offset: 0xE25A3, size: 0x8, addend: 0x0, symName: __ZN4core3fmt2rt8Argument9new_debug17h6892abec47799218E, symObjAddr: 0x84, symBinAddr: 0x2FC10, symSize: 0x2C }
  - { offset: 0xE25EC, size: 0x8, addend: 0x0, symName: __ZN4core5slice4sort6stable14driftsort_main17h2e63f1e9f09716dcE, symObjAddr: 0x0, symBinAddr: 0x2FC3C, symSize: 0x290 }
  - { offset: 0xE275B, size: 0x8, addend: 0x0, symName: __ZN4core5slice4sort6stable14driftsort_main17h2e63f1e9f09716dcE, symObjAddr: 0x0, symBinAddr: 0x2FC3C, symSize: 0x290 }
  - { offset: 0xE2966, size: 0x8, addend: 0x0, symName: __ZN4core5slice4sort6stable14driftsort_main17he9cf17926d25a8f3E, symObjAddr: 0x290, symBinAddr: 0x2FECC, symSize: 0x290 }
  - { offset: 0xE32DB, size: 0x8, addend: 0x0, symName: '__ZN4core5slice4sort6stable27AlignedStorage$LT$T$C$_$GT$19as_uninit_slice_mut17ha2ce4f513b4646f8E', symObjAddr: 0x520, symBinAddr: 0x3015C, symSize: 0x84 }
  - { offset: 0xE33C3, size: 0x8, addend: 0x0, symName: '__ZN4core5slice4sort6stable27AlignedStorage$LT$T$C$_$GT$19as_uninit_slice_mut17hd81d40e553704f36E', symObjAddr: 0x5A4, symBinAddr: 0x301E0, symSize: 0x84 }
  - { offset: 0xE3511, size: 0x8, addend: 0x0, symName: __ZN4core4iter6traits8iterator8Iterator3zip17h7b617fd386678384E, symObjAddr: 0x0, symBinAddr: 0x30264, symSize: 0xB4 }
  - { offset: 0xE364F, size: 0x8, addend: 0x0, symName: __ZN4core4iter6traits8iterator8Iterator3zip17h7b617fd386678384E, symObjAddr: 0x0, symBinAddr: 0x30264, symSize: 0xB4 }
  - { offset: 0xE36C5, size: 0x8, addend: 0x0, symName: __ZN4core4iter6traits8iterator8Iterator4take17h107026b962eaabb2E, symObjAddr: 0xB4, symBinAddr: 0x30318, symSize: 0x24 }
  - { offset: 0xE4EDB, size: 0x8, addend: 0x0, symName: __ZN4pyo35impl_5panic9PanicTrap3new17h702f5ed96ec00ec5E, symObjAddr: 0x0, symBinAddr: 0x3033C, symSize: 0x18 }
  - { offset: 0xE4F6A, size: 0x8, addend: 0x0, symName: __ZN4pyo35impl_5panic9PanicTrap3new17h702f5ed96ec00ec5E, symObjAddr: 0x0, symBinAddr: 0x3033C, symSize: 0x18 }
  - { offset: 0xE4F8C, size: 0x8, addend: 0x0, symName: __ZN4pyo35impl_5panic9PanicTrap6disarm17h8c672eee90ca11f1E, symObjAddr: 0x18, symBinAddr: 0x30354, symSize: 0x28 }
  - { offset: 0xE4FCC, size: 0x8, addend: 0x0, symName: '__ZN12zcash_zip32110ParseError15type_object_raw28_$u7b$$u7b$closure$u7d$$u7d$17hb87005959a232ed9E', symObjAddr: 0x0, symBinAddr: 0x3037C, symSize: 0xC4 }
  - { offset: 0xE64F6, size: 0x8, addend: 0x0, symName: '__ZN4core5slice29_$LT$impl$u20$$u5b$T$u5d$$GT$22split_at_mut_unchecked17h43d63566140fefcdE', symObjAddr: 0x116C, symBinAddr: 0x314E8, symSize: 0x108 }
  - { offset: 0xE666F, size: 0x8, addend: 0x0, symName: '__ZN4core5slice29_$LT$impl$u20$$u5b$T$u5d$$GT$22split_at_mut_unchecked17ha49f4b09da01aeb7E', symObjAddr: 0x1274, symBinAddr: 0x315F0, symSize: 0x108 }
  - { offset: 0xE680F, size: 0x8, addend: 0x0, symName: '__ZN4core5slice29_$LT$impl$u20$$u5b$T$u5d$$GT$7reverse17h1ec7d5fa683cb51fE', symObjAddr: 0x137C, symBinAddr: 0x316F8, symSize: 0x118 }
  - { offset: 0xE69ED, size: 0x8, addend: 0x0, symName: '__ZN4core5slice29_$LT$impl$u20$$u5b$T$u5d$$GT$7reverse17h8b55b461ccce7717E', symObjAddr: 0x1494, symBinAddr: 0x31810, symSize: 0x118 }
  - { offset: 0xE6C58, size: 0x8, addend: 0x0, symName: '__ZN68_$LT$T$u20$as$u20$core..slice..sort..stable..quicksort..IsFreeze$GT$9is_freeze17h36a1754cac84dc6eE', symObjAddr: 0x1B04, symBinAddr: 0x31E80, symSize: 0xC }
  - { offset: 0xE6C7F, size: 0x8, addend: 0x0, symName: '__ZN68_$LT$T$u20$as$u20$core..slice..sort..stable..quicksort..IsFreeze$GT$9is_freeze17hdfe1c587f988c6e8E', symObjAddr: 0x1B10, symBinAddr: 0x31E8C, symSize: 0xC }
  - { offset: 0xE6D5D, size: 0x8, addend: 0x0, symName: '__ZN50_$LT$T$u20$as$u20$core..convert..Into$LT$U$GT$$GT$4into17h34ce360baa30141eE', symObjAddr: 0x1A04, symBinAddr: 0x31D80, symSize: 0x14 }
  - { offset: 0xE6D9E, size: 0x8, addend: 0x0, symName: '__ZN50_$LT$T$u20$as$u20$core..convert..Into$LT$U$GT$$GT$4into17h8d06e27bb6df7dc9E', symObjAddr: 0x1A18, symBinAddr: 0x31D94, symSize: 0x14 }
  - { offset: 0xE7D0D, size: 0x8, addend: 0x0, symName: '__ZN12zcash_zip32110ParseError15type_object_raw28_$u7b$$u7b$closure$u7d$$u7d$17hb87005959a232ed9E', symObjAddr: 0x0, symBinAddr: 0x3037C, symSize: 0xC4 }
  - { offset: 0xE7D98, size: 0x8, addend: 0x0, symName: '__ZN12zcash_zip32111PaymentData15to_rust_payment28_$u7b$$u7b$closure$u7d$$u7d$17h239b7a009807777eE', symObjAddr: 0xD8, symBinAddr: 0x30454, symSize: 0xB0 }
  - { offset: 0xE7E09, size: 0x8, addend: 0x0, symName: '__ZN12zcash_zip32111PaymentData15to_rust_payment28_$u7b$$u7b$closure$u7d$$u7d$17h4f8ab5ddb1918541E', symObjAddr: 0x188, symBinAddr: 0x30504, symSize: 0x6C }
  - { offset: 0xE7E7A, size: 0x8, addend: 0x0, symName: '__ZN12zcash_zip32111PaymentData15to_rust_payment28_$u7b$$u7b$closure$u7d$$u7d$17h6b6c731dff6d70d8E', symObjAddr: 0x1F4, symBinAddr: 0x30570, symSize: 0x2C }
  - { offset: 0xE7EA2, size: 0x8, addend: 0x0, symName: '__ZN12zcash_zip32111PaymentData15to_rust_payment28_$u7b$$u7b$closure$u7d$$u7d$17hd5daf2e8b6aa6f20E', symObjAddr: 0x220, symBinAddr: 0x3059C, symSize: 0xCC }
  - { offset: 0xE7F4E, size: 0x8, addend: 0x0, symName: '__ZN12zcash_zip32111PaymentData17from_rust_payment28_$u7b$$u7b$closure$u7d$$u7d$17h0b88e81e4720aef7E', symObjAddr: 0x2EC, symBinAddr: 0x30668, symSize: 0xF4 }
  - { offset: 0xE8069, size: 0x8, addend: 0x0, symName: '__ZN12zcash_zip32111PaymentData17from_rust_payment28_$u7b$$u7b$closure$u7d$$u7d$28_$u7b$$u7b$closure$u7d$$u7d$17h97eec801898edcd2E', symObjAddr: 0x3E0, symBinAddr: 0x3075C, symSize: 0x40 }
  - { offset: 0xE809F, size: 0x8, addend: 0x0, symName: '__ZN12zcash_zip32111PaymentData17from_rust_payment28_$u7b$$u7b$closure$u7d$$u7d$28_$u7b$$u7b$closure$u7d$$u7d$17hd57af2f750156a65E', symObjAddr: 0x420, symBinAddr: 0x3079C, symSize: 0x28 }
  - { offset: 0xE8110, size: 0x8, addend: 0x0, symName: '__ZN12zcash_zip32111Zip321Error15type_object_raw28_$u7b$$u7b$closure$u7d$$u7d$17hb9b5916a7bfc163dE', symObjAddr: 0x448, symBinAddr: 0x307C4, symSize: 0xC4 }
  - { offset: 0xE8163, size: 0x8, addend: 0x0, symName: '__ZN12zcash_zip32114memo_to_base6428_$u7b$$u7b$closure$u7d$$u7d$17h28b6bbab3241a609E', symObjAddr: 0x50C, symBinAddr: 0x30888, symSize: 0x6C }
  - { offset: 0xE81FA, size: 0x8, addend: 0x0, symName: '__ZN12zcash_zip321162_$LT$impl$u20$pyo3..impl_..pyclass..PyMethods$LT$zcash_zip321..Payment$GT$$u20$for$u20$pyo3..impl_..pyclass..PyClassImplCollector$LT$zcash_zip321..Payment$GT$$GT$10py_methods5ITEMS39_$LT$impl$u20$zcash_zip321..Payment$GT$24__pymethod___richcmp____28_$u7b$$u7b$closure$u7d$$u7d$17hf32b32bf30aee6acE', symObjAddr: 0x578, symBinAddr: 0x308F4, symSize: 0x144 }
  - { offset: 0xE82A0, size: 0x8, addend: 0x0, symName: '__ZN12zcash_zip32116MemoTooLongError15type_object_raw28_$u7b$$u7b$closure$u7d$$u7d$17h9c86bbd5e1fc6a31E', symObjAddr: 0x6BC, symBinAddr: 0x30A38, symSize: 0xC4 }
  - { offset: 0xE8326, size: 0x8, addend: 0x0, symName: '__ZN12zcash_zip32116memo_from_base6428_$u7b$$u7b$closure$u7d$$u7d$17h9c1c503f92961930E', symObjAddr: 0x794, symBinAddr: 0x30B10, symSize: 0x28 }
  - { offset: 0xE8379, size: 0x8, addend: 0x0, symName: '__ZN12zcash_zip32116memo_from_base6428_$u7b$$u7b$closure$u7d$$u7d$17hef56d40551916c6eE', symObjAddr: 0x7BC, symBinAddr: 0x30B38, symSize: 0x40 }
  - { offset: 0xE83CB, size: 0x8, addend: 0x0, symName: '__ZN12zcash_zip32118InvalidBase64Error15type_object_raw28_$u7b$$u7b$closure$u7d$$u7d$17he075c314edb682c8E', symObjAddr: 0x7FC, symBinAddr: 0x30B78, symSize: 0xC4 }
  - { offset: 0xE8456, size: 0x8, addend: 0x0, symName: '__ZN12zcash_zip32118TransactionRequest14total_zatoshis28_$u7b$$u7b$closure$u7d$$u7d$17hf7a1a1a5e441367eE', symObjAddr: 0x8D4, symBinAddr: 0x30C50, symSize: 0x2C }
  - { offset: 0xE848D, size: 0x8, addend: 0x0, symName: '__ZN12zcash_zip32118TransactionRequest6to_uri28_$u7b$$u7b$closure$u7d$$u7d$17h8898e9956614e08aE', symObjAddr: 0x900, symBinAddr: 0x30C7C, symSize: 0x30 }
  - { offset: 0xE84D3, size: 0x8, addend: 0x0, symName: '__ZN12zcash_zip32118TransactionRequest8from_uri28_$u7b$$u7b$closure$u7d$$u7d$17hb60ea95872ed65f6E', symObjAddr: 0x930, symBinAddr: 0x30CAC, symSize: 0x78 }
  - { offset: 0xE8543, size: 0x8, addend: 0x0, symName: '__ZN12zcash_zip32118TransactionRequest8payments28_$u7b$$u7b$closure$u7d$$u7d$17h02e58529ec1c4081E', symObjAddr: 0x9A8, symBinAddr: 0x30D24, symSize: 0x98 }
  - { offset: 0xE85B3, size: 0x8, addend: 0x0, symName: '__ZN12zcash_zip32118TransactionRequest9total_zec28_$u7b$$u7b$closure$u7d$$u7d$17he78338de4d381cf7E', symObjAddr: 0xA40, symBinAddr: 0x30DBC, symSize: 0x24 }
  - { offset: 0xE85F1, size: 0x8, addend: 0x0, symName: '__ZN12zcash_zip32118TransactionRequest9total_zec28_$u7b$$u7b$closure$u7d$$u7d$28_$u7b$$u7b$closure$u7d$$u7d$17h1a9973bcbdd52022E', symObjAddr: 0xA64, symBinAddr: 0x30DE0, symSize: 0x24 }
  - { offset: 0xE8645, size: 0x8, addend: 0x0, symName: '__ZN12zcash_zip32119InvalidAddressError15type_object_raw28_$u7b$$u7b$closure$u7d$$u7d$17hea0811575a437277E', symObjAddr: 0xA88, symBinAddr: 0x30E04, symSize: 0xC4 }
  - { offset: 0xE86D0, size: 0x8, addend: 0x0, symName: '__ZN12zcash_zip32119InvalidPaymentError15type_object_raw28_$u7b$$u7b$closure$u7d$$u7d$17hd00a975e3ebbd024E', symObjAddr: 0xB60, symBinAddr: 0x30EDC, symSize: 0xC4 }
  - { offset: 0xE8779, size: 0x8, addend: 0x0, symName: '__ZN12zcash_zip32120TooManyPaymentsError15type_object_raw28_$u7b$$u7b$closure$u7d$$u7d$17h2fb400037f7446b6E', symObjAddr: 0xC60, symBinAddr: 0x30FDC, symSize: 0xC4 }
  - { offset: 0xE8804, size: 0x8, addend: 0x0, symName: '__ZN12zcash_zip32120TransparentMemoError15type_object_raw28_$u7b$$u7b$closure$u7d$$u7d$17h30dbf95d27459438E', symObjAddr: 0xD38, symBinAddr: 0x310B4, symSize: 0xC4 }
  - { offset: 0xE88AD, size: 0x8, addend: 0x0, symName: '__ZN12zcash_zip32121RecipientMissingError15type_object_raw28_$u7b$$u7b$closure$u7d$$u7d$17ha42ada5fecbdb3a8E', symObjAddr: 0xE38, symBinAddr: 0x311B4, symSize: 0xC4 }
  - { offset: 0xE8938, size: 0x8, addend: 0x0, symName: '__ZN12zcash_zip3217Payment10amount_zec28_$u7b$$u7b$closure$u7d$$u7d$17h45ce230f8ffd4cd9E', symObjAddr: 0xF10, symBinAddr: 0x3128C, symSize: 0x24 }
  - { offset: 0xE897B, size: 0x8, addend: 0x0, symName: '__ZN12zcash_zip3217Payment3new28_$u7b$$u7b$closure$u7d$$u7d$17h7f3be2d274ddd8acE', symObjAddr: 0xFD4, symBinAddr: 0x31350, symSize: 0xA4 }
  - { offset: 0xE8A0B, size: 0x8, addend: 0x0, symName: '__ZN12zcash_zip3217Payment3new28_$u7b$$u7b$closure$u7d$$u7d$17hfda703a9cda7b0b7E', symObjAddr: 0x1078, symBinAddr: 0x313F4, symSize: 0xB0 }
  - { offset: 0xE8A89, size: 0x8, addend: 0x0, symName: '__ZN12zcash_zip3217Payment9memo_text28_$u7b$$u7b$closure$u7d$$u7d$17h3b80429b2bcbccfaE', symObjAddr: 0x1128, symBinAddr: 0x314A4, symSize: 0x44 }
  - { offset: 0xE8AD2, size: 0x8, addend: 0x0, symName: '__ZN12zcash_zip3217Payment20__pymethod___new____28_$u7b$$u7b$closure$u7d$$u7d$17h44ab453a6f3fd691E', symObjAddr: 0xF34, symBinAddr: 0x312B0, symSize: 0x2C }
  - { offset: 0xE8AFA, size: 0x8, addend: 0x0, symName: '__ZN12zcash_zip3217Payment20__pymethod___new____28_$u7b$$u7b$closure$u7d$$u7d$17h72c21c91e48aad46E', symObjAddr: 0xF60, symBinAddr: 0x312DC, symSize: 0x24 }
  - { offset: 0xE8B22, size: 0x8, addend: 0x0, symName: '__ZN12zcash_zip3217Payment20__pymethod___new____28_$u7b$$u7b$closure$u7d$$u7d$17ha053d529a0d20794E', symObjAddr: 0xF84, symBinAddr: 0x31300, symSize: 0x24 }
  - { offset: 0xE8B4A, size: 0x8, addend: 0x0, symName: '__ZN12zcash_zip3217Payment20__pymethod___new____28_$u7b$$u7b$closure$u7d$$u7d$17he7f371ba1af50810E', symObjAddr: 0xFA8, symBinAddr: 0x31324, symSize: 0x2C }
  - { offset: 0xE8BF4, size: 0x8, addend: 0x0, symName: '__ZN75_$LT$zcash_zip321..Payment$u20$as$u20$pyo3..impl_..pyclass..PyClassImpl$GT$3doc28_$u7b$$u7b$closure$u7d$$u7d$17hc8274df02ef5fc45E', symObjAddr: 0x1B1C, symBinAddr: 0x31E98, symSize: 0x54 }
  - { offset: 0xE8C4C, size: 0x8, addend: 0x0, symName: '__ZN86_$LT$zcash_zip321..TransactionRequest$u20$as$u20$pyo3..impl_..pyclass..PyClassImpl$GT$3doc28_$u7b$$u7b$closure$u7d$$u7d$17haea9ec35b0e295ceE', symObjAddr: 0x1B70, symBinAddr: 0x31EEC, symSize: 0x54 }
  - { offset: 0xE8FC9, size: 0x8, addend: 0x0, symName: __ZN4pyo310conversion15IntoPyObjectExt17into_bound_py_any17h61bfb4b9c33065c7E, symObjAddr: 0x15AC, symBinAddr: 0x31928, symSize: 0xB4 }
  - { offset: 0xE9059, size: 0x8, addend: 0x0, symName: __ZN4pyo310conversion15IntoPyObjectExt22into_pyobject_or_pyerr17h7707ef19e06e71f0E, symObjAddr: 0x1660, symBinAddr: 0x319DC, symSize: 0xAC }
  - { offset: 0xE90F5, size: 0x8, addend: 0x0, symName: __ZN4pyo311type_object10PyTypeInfo10is_type_of17ha19b4b5a8d99474cE, symObjAddr: 0x170C, symBinAddr: 0x31A88, symSize: 0x50 }
  - { offset: 0xE912A, size: 0x8, addend: 0x0, symName: __ZN4pyo311type_object10PyTypeInfo10is_type_of17hc3c5b4410082718bE, symObjAddr: 0x175C, symBinAddr: 0x31AD8, symSize: 0x50 }
  - { offset: 0xE915F, size: 0x8, addend: 0x0, symName: __ZN4pyo311type_object10PyTypeInfo11type_object17h0f646306f83fb73cE, symObjAddr: 0x17AC, symBinAddr: 0x31B28, symSize: 0x30 }
  - { offset: 0xE919F, size: 0x8, addend: 0x0, symName: __ZN4pyo311type_object10PyTypeInfo11type_object17h270488574ef4c236E, symObjAddr: 0x17DC, symBinAddr: 0x31B58, symSize: 0x30 }
  - { offset: 0xE91DF, size: 0x8, addend: 0x0, symName: __ZN4pyo311type_object10PyTypeInfo11type_object17h3c9c28e6a42a6e68E, symObjAddr: 0x180C, symBinAddr: 0x31B88, symSize: 0x30 }
  - { offset: 0xE921F, size: 0x8, addend: 0x0, symName: __ZN4pyo311type_object10PyTypeInfo11type_object17h4999648c20cb6634E, symObjAddr: 0x183C, symBinAddr: 0x31BB8, symSize: 0x30 }
  - { offset: 0xE925F, size: 0x8, addend: 0x0, symName: __ZN4pyo311type_object10PyTypeInfo11type_object17h60c5119d68eba414E, symObjAddr: 0x186C, symBinAddr: 0x31BE8, symSize: 0x30 }
  - { offset: 0xE929F, size: 0x8, addend: 0x0, symName: __ZN4pyo311type_object10PyTypeInfo11type_object17h628a3283c89209d7E, symObjAddr: 0x189C, symBinAddr: 0x31C18, symSize: 0x30 }
  - { offset: 0xE92DF, size: 0x8, addend: 0x0, symName: __ZN4pyo311type_object10PyTypeInfo11type_object17hb452da3a8531d803E, symObjAddr: 0x18CC, symBinAddr: 0x31C48, symSize: 0x30 }
  - { offset: 0xE931F, size: 0x8, addend: 0x0, symName: __ZN4pyo311type_object10PyTypeInfo11type_object17hbd4cd75a324b7abbE, symObjAddr: 0x18FC, symBinAddr: 0x31C78, symSize: 0x30 }
  - { offset: 0xE935F, size: 0x8, addend: 0x0, symName: __ZN4pyo311type_object10PyTypeInfo11type_object17hc60f08106c7f06cbE, symObjAddr: 0x192C, symBinAddr: 0x31CA8, symSize: 0x30 }
  - { offset: 0xE93A5, size: 0x8, addend: 0x0, symName: '__ZN52_$LT$T$u20$as$u20$pyo3..type_object..PyTypeCheck$GT$10type_check17h0f608ae3c632bdb4E', symObjAddr: 0x1A2C, symBinAddr: 0x31DA8, symSize: 0x24 }
  - { offset: 0xE93DA, size: 0x8, addend: 0x0, symName: '__ZN52_$LT$T$u20$as$u20$pyo3..type_object..PyTypeCheck$GT$10type_check17h51176b5fc5bdc2ffE', symObjAddr: 0x1A50, symBinAddr: 0x31DCC, symSize: 0x24 }
  - { offset: 0xE941B, size: 0x8, addend: 0x0, symName: '__ZN4pyo312pyclass_init130_$LT$impl$u20$pyo3..impl_..callback..IntoPyCallbackOutput$LT$pyo3..pyclass_init..PyClassInitializer$LT$T$GT$$GT$$u20$for$u20$U$GT$7convert17h6ec4cc3791b015c2E', symObjAddr: 0x195C, symBinAddr: 0x31CD8, symSize: 0x44 }
  - { offset: 0xE9477, size: 0x8, addend: 0x0, symName: '__ZN4pyo312pyclass_init130_$LT$impl$u20$pyo3..impl_..callback..IntoPyCallbackOutput$LT$pyo3..pyclass_init..PyClassInitializer$LT$T$GT$$GT$$u20$for$u20$U$GT$7convert17h775036a29f45d89eE', symObjAddr: 0x19A0, symBinAddr: 0x31D1C, symSize: 0x44 }
  - { offset: 0xE9613, size: 0x8, addend: 0x0, symName: __ZN4pyo35impl_7pyclass11PyClassImpl11dict_offset17h5050caafae733e1eE, symObjAddr: 0x19E4, symBinAddr: 0x31D60, symSize: 0x8 }
  - { offset: 0xE963A, size: 0x8, addend: 0x0, symName: __ZN4pyo35impl_7pyclass11PyClassImpl11dict_offset17h7568e3ff3d18f20aE, symObjAddr: 0x19EC, symBinAddr: 0x31D68, symSize: 0x8 }
  - { offset: 0xE9661, size: 0x8, addend: 0x0, symName: __ZN4pyo35impl_7pyclass11PyClassImpl15weaklist_offset17h9d43b96531f46ed6E, symObjAddr: 0x19F4, symBinAddr: 0x31D70, symSize: 0x8 }
  - { offset: 0xE9688, size: 0x8, addend: 0x0, symName: __ZN4pyo35impl_7pyclass11PyClassImpl15weaklist_offset17hc1893b1649804d90E, symObjAddr: 0x19FC, symBinAddr: 0x31D78, symSize: 0x8 }
  - { offset: 0xE9D6B, size: 0x8, addend: 0x0, symName: '__ZN5alloc5slice29_$LT$impl$u20$$u5b$T$u5d$$GT$7sort_by17h09dddeb0c7adb5d4E', symObjAddr: 0x1A74, symBinAddr: 0x31DF0, symSize: 0x48 }
  - { offset: 0xE9DB3, size: 0x8, addend: 0x0, symName: '__ZN5alloc5slice29_$LT$impl$u20$$u5b$T$u5d$$GT$7sort_by17hd82b47297726b761E', symObjAddr: 0x1ABC, symBinAddr: 0x31E38, symSize: 0x48 }
  - { offset: 0xEA224, size: 0x8, addend: 0x0, symName: __ZN12zcash_zip32110ParseError7new_err17h5a1ae6fd6711f269E, symObjAddr: 0xC4, symBinAddr: 0x30440, symSize: 0x14 }
  - { offset: 0xEA277, size: 0x8, addend: 0x0, symName: __ZN12zcash_zip32116MemoTooLongError7new_err17h63ed32b632873214E, symObjAddr: 0x780, symBinAddr: 0x30AFC, symSize: 0x14 }
  - { offset: 0xEA2A3, size: 0x8, addend: 0x0, symName: __ZN12zcash_zip32118InvalidBase64Error7new_err17hf3a526f228391977E, symObjAddr: 0x8C0, symBinAddr: 0x30C3C, symSize: 0x14 }
  - { offset: 0xEA2CF, size: 0x8, addend: 0x0, symName: __ZN12zcash_zip32119InvalidAddressError7new_err17h687cf4188ca0acb9E, symObjAddr: 0xB4C, symBinAddr: 0x30EC8, symSize: 0x14 }
  - { offset: 0xEA319, size: 0x8, addend: 0x0, symName: __ZN12zcash_zip32119InvalidPaymentError7new_err17h5778428cd74e9a41E, symObjAddr: 0xC24, symBinAddr: 0x30FA0, symSize: 0x28 }
  - { offset: 0xEA344, size: 0x8, addend: 0x0, symName: __ZN12zcash_zip32119InvalidPaymentError7new_err17haa52f44b0c9f7f4dE, symObjAddr: 0xC4C, symBinAddr: 0x30FC8, symSize: 0x14 }
  - { offset: 0xEA370, size: 0x8, addend: 0x0, symName: __ZN12zcash_zip32120TooManyPaymentsError7new_err17h30a680dc24cbe81fE, symObjAddr: 0xD24, symBinAddr: 0x310A0, symSize: 0x14 }
  - { offset: 0xEA39C, size: 0x8, addend: 0x0, symName: __ZN12zcash_zip32120TransparentMemoError7new_err17h9e16a0a8d0b5ce92E, symObjAddr: 0xDFC, symBinAddr: 0x31178, symSize: 0x14 }
  - { offset: 0xEA3C8, size: 0x8, addend: 0x0, symName: __ZN12zcash_zip32120TransparentMemoError7new_err17hce73ed457521684cE, symObjAddr: 0xE10, symBinAddr: 0x3118C, symSize: 0x28 }
  - { offset: 0xEA3F3, size: 0x8, addend: 0x0, symName: __ZN12zcash_zip32121RecipientMissingError7new_err17h96fd1e0fbbc722afE, symObjAddr: 0xEFC, symBinAddr: 0x31278, symSize: 0x14 }
  - { offset: 0xEAD01, size: 0x8, addend: 0x0, symName: '__ZN4core3mem13manually_drop21ManuallyDrop$LT$T$GT$4drop17h82d509fa3dd4cd0bE', symObjAddr: 0x0, symBinAddr: 0x31F40, symSize: 0x24 }
  - { offset: 0xEB579, size: 0x8, addend: 0x0, symName: '__ZN4core3mem13manually_drop21ManuallyDrop$LT$T$GT$4drop17h82d509fa3dd4cd0bE', symObjAddr: 0x0, symBinAddr: 0x31F40, symSize: 0x24 }
  - { offset: 0xEB5B1, size: 0x8, addend: 0x0, symName: '__ZN4core3mem13manually_drop21ManuallyDrop$LT$T$GT$4drop17habcfc8c084203841E', symObjAddr: 0x24, symBinAddr: 0x31F64, symSize: 0x24 }
  - { offset: 0xEB5FA, size: 0x8, addend: 0x0, symName: __ZN4pyo36marker6Python14NotImplemented17h8487c4547bcd352cE, symObjAddr: 0x0, symBinAddr: 0x31F88, symSize: 0x28 }
  - { offset: 0xECC02, size: 0x8, addend: 0x0, symName: __ZN4pyo36marker6Python14NotImplemented17h8487c4547bcd352cE, symObjAddr: 0x0, symBinAddr: 0x31F88, symSize: 0x28 }
  - { offset: 0xECC31, size: 0x8, addend: 0x0, symName: __ZN4pyo36marker6Python19assume_gil_acquired17h6b4a87d8ab9ab86aE, symObjAddr: 0x28, symBinAddr: 0x31FB0, symSize: 0x4 }
  - { offset: 0xECC44, size: 0x8, addend: 0x0, symName: __ZN4pyo36marker6Python4None17h664d774c9ce94a52E, symObjAddr: 0x2C, symBinAddr: 0x31FB4, symSize: 0x28 }
  - { offset: 0xECC91, size: 0x8, addend: 0x0, symName: __ZN4core4iter6traits8iterator8Iterator9enumerate17h05f5cdfb9910ff16E, symObjAddr: 0x0, symBinAddr: 0x31FDC, symSize: 0x18 }
  - { offset: 0xED48D, size: 0x8, addend: 0x0, symName: __ZN4core4iter6traits8iterator8Iterator9enumerate17h05f5cdfb9910ff16E, symObjAddr: 0x0, symBinAddr: 0x31FDC, symSize: 0x18 }
  - { offset: 0xED4BE, size: 0x8, addend: 0x0, symName: __ZN4core4iter6traits8iterator8Iterator9enumerate17h05f5cdfb9910ff16E, symObjAddr: 0x0, symBinAddr: 0x31FDC, symSize: 0x18 }
  - { offset: 0xEDF3F, size: 0x8, addend: 0x0, symName: '__ZN95_$LT$pyo3..types..list..BoundListIterator$u20$as$u20$core..iter..traits..iterator..Iterator$GT$4next28_$u7b$$u7b$closure$u7d$$u7d$17hc389d81f59c9be80E', symObjAddr: 0x110, symBinAddr: 0x320EC, symSize: 0x34 }
  - { offset: 0xEDFA2, size: 0x8, addend: 0x0, symName: '__ZN4pyo35types4list17BoundListIterator21with_critical_section28_$u7b$$u7b$closure$u7d$$u7d$17h6e740aead9a3a4adE', symObjAddr: 0xD0, symBinAddr: 0x320AC, symSize: 0x40 }
  - { offset: 0xEE5F9, size: 0x8, addend: 0x0, symName: __ZN4pyo35types4list17BoundListIterator21with_critical_section17h10812b9d69a156c2E, symObjAddr: 0x18, symBinAddr: 0x31FF4, symSize: 0xB8 }
  - { offset: 0xEE6C5, size: 0x8, addend: 0x0, symName: __ZN4core5slice3raw14from_raw_parts17h33e8eef9224d18c0E, symObjAddr: 0x0, symBinAddr: 0x32120, symSize: 0x58 }
  - { offset: 0xEE6FF, size: 0x8, addend: 0x0, symName: __ZN4core5slice3raw14from_raw_parts17h33e8eef9224d18c0E, symObjAddr: 0x0, symBinAddr: 0x32120, symSize: 0x58 }
  - { offset: 0xEE742, size: 0x8, addend: 0x0, symName: __ZN4core5slice3raw14from_raw_parts17hfc8baf90b3fd981eE, symObjAddr: 0x58, symBinAddr: 0x32178, symSize: 0x58 }
  - { offset: 0xEFE63, size: 0x8, addend: 0x0, symName: __ZN5alloc3fmt6format17h7dcc67c200552a80E, symObjAddr: 0x0, symBinAddr: 0x321D0, symSize: 0xD4 }
  - { offset: 0xF03FE, size: 0x8, addend: 0x0, symName: __ZN5alloc3fmt6format17h7dcc67c200552a80E, symObjAddr: 0x0, symBinAddr: 0x321D0, symSize: 0xD4 }
  - { offset: 0xF055B, size: 0x8, addend: 0x0, symName: __ZN4pyo35types4none6PyNone3get17hebe56c632e4ed1d7E, symObjAddr: 0x0, symBinAddr: 0x322A4, symSize: 0x2C }
  - { offset: 0xF1BB0, size: 0x8, addend: 0x0, symName: __ZN4pyo35types4none6PyNone3get17hebe56c632e4ed1d7E, symObjAddr: 0x0, symBinAddr: 0x322A4, symSize: 0x2C }
  - { offset: 0xF1BFB, size: 0x8, addend: 0x0, symName: '__ZN63_$LT$I$u20$as$u20$core..iter..traits..collect..IntoIterator$GT$9into_iter17h2e2f18b60de29b28E', symObjAddr: 0x0, symBinAddr: 0x322D0, symSize: 0x18 }
  - { offset: 0xF1C3F, size: 0x8, addend: 0x0, symName: '__ZN63_$LT$I$u20$as$u20$core..iter..traits..collect..IntoIterator$GT$9into_iter17h2e2f18b60de29b28E', symObjAddr: 0x0, symBinAddr: 0x322D0, symSize: 0x18 }
  - { offset: 0xF32DB, size: 0x8, addend: 0x0, symName: '__ZN100_$LT$pyo3..pycell..impl_..MutableClass$u20$as$u20$pyo3..pycell..impl_..GetBorrowChecker$LT$T$GT$$GT$14borrow_checker17h2f27e39defe6eafaE', symObjAddr: 0x0, symBinAddr: 0x322E8, symSize: 0x14 }
  - { offset: 0xF48F0, size: 0x8, addend: 0x0, symName: '__ZN100_$LT$pyo3..pycell..impl_..MutableClass$u20$as$u20$pyo3..pycell..impl_..GetBorrowChecker$LT$T$GT$$GT$14borrow_checker17h2f27e39defe6eafaE', symObjAddr: 0x0, symBinAddr: 0x322E8, symSize: 0x14 }
  - { offset: 0xF4925, size: 0x8, addend: 0x0, symName: '__ZN100_$LT$pyo3..pycell..impl_..MutableClass$u20$as$u20$pyo3..pycell..impl_..GetBorrowChecker$LT$T$GT$$GT$14borrow_checker17h82297fb503ad61d5E', symObjAddr: 0x14, symBinAddr: 0x322FC, symSize: 0x14 }
  - { offset: 0xF4960, size: 0x8, addend: 0x0, symName: '__ZN113_$LT$pyo3..pycell..impl_..PyClassObject$LT$T$GT$$u20$as$u20$pyo3..pycell..impl_..PyClassObjectLayout$LT$T$GT$$GT$10tp_dealloc17h79f848e8550c409aE', symObjAddr: 0x28, symBinAddr: 0x32310, symSize: 0xB4 }
  - { offset: 0xF49C4, size: 0x8, addend: 0x0, symName: '__ZN113_$LT$pyo3..pycell..impl_..PyClassObject$LT$T$GT$$u20$as$u20$pyo3..pycell..impl_..PyClassObjectLayout$LT$T$GT$$GT$10tp_dealloc17h7e44b97909db1566E', symObjAddr: 0xDC, symBinAddr: 0x323C4, symSize: 0xB4 }
  - { offset: 0xF4A28, size: 0x8, addend: 0x0, symName: '__ZN113_$LT$pyo3..pycell..impl_..PyClassObject$LT$T$GT$$u20$as$u20$pyo3..pycell..impl_..PyClassObjectLayout$LT$T$GT$$GT$17ensure_threadsafe17h2c18976276b71917E', symObjAddr: 0x190, symBinAddr: 0x32478, symSize: 0x30 }
  - { offset: 0xF4A5B, size: 0x8, addend: 0x0, symName: '__ZN113_$LT$pyo3..pycell..impl_..PyClassObject$LT$T$GT$$u20$as$u20$pyo3..pycell..impl_..PyClassObjectLayout$LT$T$GT$$GT$17ensure_threadsafe17hc42e4b5fcff38e3dE', symObjAddr: 0x1C0, symBinAddr: 0x324A8, symSize: 0x30 }
  - { offset: 0xF4A94, size: 0x8, addend: 0x0, symName: '__ZN117_$LT$pyo3..pycell..impl_..PyClassObjectBase$LT$U$GT$$u20$as$u20$pyo3..pycell..impl_..PyClassObjectLayout$LT$T$GT$$GT$10tp_dealloc17hdd30a229ba9ca24cE', symObjAddr: 0x1F0, symBinAddr: 0x324D8, symSize: 0x2CC }
  - { offset: 0xF4BDB, size: 0x8, addend: 0x0, symName: '__ZN117_$LT$pyo3..pycell..impl_..PyClassObjectBase$LT$U$GT$$u20$as$u20$pyo3..pycell..impl_..PyClassObjectLayout$LT$T$GT$$GT$17ensure_threadsafe17h541e9752e99f15b8E', symObjAddr: 0x4BC, symBinAddr: 0x327A4, symSize: 0x10 }
  - { offset: 0xF56ED, size: 0x8, addend: 0x0, symName: '__ZN4pyo36pycell5impl_22PyClassObject$LT$T$GT$14borrow_checker17h2299d2dbe669f36bE', symObjAddr: 0x4CC, symBinAddr: 0x327B4, symSize: 0x24 }
  - { offset: 0xF5726, size: 0x8, addend: 0x0, symName: '__ZN4pyo36pycell5impl_22PyClassObject$LT$T$GT$14borrow_checker17ha836baf92b2dcb1eE', symObjAddr: 0x4F0, symBinAddr: 0x327D8, symSize: 0x24 }
  - { offset: 0xF575F, size: 0x8, addend: 0x0, symName: '__ZN4pyo36pycell5impl_22PyClassObject$LT$T$GT$7get_ptr17h153b69de6d999264E', symObjAddr: 0x514, symBinAddr: 0x327FC, symSize: 0x24 }
  - { offset: 0xF5798, size: 0x8, addend: 0x0, symName: '__ZN4pyo36pycell5impl_22PyClassObject$LT$T$GT$7get_ptr17he3ec8132ad822b76E', symObjAddr: 0x538, symBinAddr: 0x32820, symSize: 0x24 }
  - { offset: 0xF584E, size: 0x8, addend: 0x0, symName: '__ZN79_$LT$pyo3..types..string..PyString$u20$as$u20$pyo3..type_object..PyTypeInfo$GT$10is_type_of17h5c931f311db5f802E', symObjAddr: 0x0, symBinAddr: 0x32844, symSize: 0x30 }
  - { offset: 0xF690E, size: 0x8, addend: 0x0, symName: '__ZN79_$LT$pyo3..types..string..PyString$u20$as$u20$pyo3..type_object..PyTypeInfo$GT$10is_type_of17h5c931f311db5f802E', symObjAddr: 0x0, symBinAddr: 0x32844, symSize: 0x30 }
  - { offset: 0xF6EDC, size: 0x8, addend: 0x0, symName: '__ZN103_$LT$pyo3..instance..Bound$LT$pyo3..types..any..PyAny$GT$$u20$as$u20$pyo3..types..any..PyAnyMethods$GT$7is_none17h8689db0579b386abE', symObjAddr: 0x0, symBinAddr: 0x32874, symSize: 0x4C }
  - { offset: 0xF8A05, size: 0x8, addend: 0x0, symName: '__ZN103_$LT$pyo3..instance..Bound$LT$pyo3..types..any..PyAny$GT$$u20$as$u20$pyo3..types..any..PyAnyMethods$GT$7is_none17h8689db0579b386abE', symObjAddr: 0x0, symBinAddr: 0x32874, symSize: 0x4C }
  - { offset: 0xF8A7A, size: 0x8, addend: 0x0, symName: '__ZN119_$LT$pyo3..instance..Bound$LT$pyo3..types..typeobject..PyType$GT$$u20$as$u20$pyo3..types..typeobject..PyTypeMethods$GT$11as_type_ptr17h481e3ff06c0d1d83E', symObjAddr: 0x4C, symBinAddr: 0x328C0, symSize: 0x24 }
  - { offset: 0xF8AC7, size: 0x8, addend: 0x0, symName: '__ZN123_$LT$pyo3..instance..Bound$LT$pyo3..types..sequence..PySequence$GT$$u20$as$u20$pyo3..types..sequence..PySequenceMethods$GT$3len17hf78f71c415c5be52E', symObjAddr: 0x70, symBinAddr: 0x328E4, symSize: 0xBC }
  - { offset: 0xF8B4F, size: 0x8, addend: 0x0, symName: '__ZN4pyo35types8iterator131_$LT$impl$u20$core..iter..traits..iterator..Iterator$u20$for$u20$pyo3..instance..Bound$LT$pyo3..types..iterator..PyIterator$GT$$GT$4next17h22ba8992420ecaadE', symObjAddr: 0x12C, symBinAddr: 0x329A0, symSize: 0x30 }
  - { offset: 0xF900F, size: 0x8, addend: 0x0, symName: '__ZN4pyo38instance36Bound$LT$pyo3..types..any..PyAny$GT$14from_owned_ptr17he7173643cb5f087cE', symObjAddr: 0x15C, symBinAddr: 0x329D0, symSize: 0x2C }
  - { offset: 0xF9057, size: 0x8, addend: 0x0, symName: '__ZN4pyo38instance39Borrowed$LT$pyo3..types..any..PyAny$GT$15from_ptr_or_opt17h080d834f8dc1ce3dE', symObjAddr: 0x188, symBinAddr: 0x329FC, symSize: 0x2C }
  - { offset: 0xF9095, size: 0x8, addend: 0x0, symName: '__ZN4pyo38instance39Borrowed$LT$pyo3..types..any..PyAny$GT$18from_ptr_unchecked17h4c4926d25c886d00E', symObjAddr: 0x1B4, symBinAddr: 0x32A28, symSize: 0x2C }
  - { offset: 0xF90D3, size: 0x8, addend: 0x0, symName: '__ZN4pyo38instance39Borrowed$LT$pyo3..types..any..PyAny$GT$8from_ptr17h00b511419502bb60E', symObjAddr: 0x1E0, symBinAddr: 0x32A54, symSize: 0x34 }
  - { offset: 0xF9358, size: 0x8, addend: 0x0, symName: '__ZN5alloc11collections5btree8navigate263_$LT$impl$u20$alloc..collections..btree..node..Handle$LT$alloc..collections..btree..node..NodeRef$LT$alloc..collections..btree..node..marker..Dying$C$K$C$V$C$alloc..collections..btree..node..marker..Leaf$GT$$C$alloc..collections..btree..node..marker..Edge$GT$$GT$27deallocating_next_unchecked28_$u7b$$u7b$closure$u7d$$u7d$17h01c25da54b791468E', symObjAddr: 0x0, symBinAddr: 0x32A88, symSize: 0x58 }
  - { offset: 0xFAECA, size: 0x8, addend: 0x0, symName: '__ZN5alloc11collections5btree8navigate263_$LT$impl$u20$alloc..collections..btree..node..Handle$LT$alloc..collections..btree..node..NodeRef$LT$alloc..collections..btree..node..marker..Dying$C$K$C$V$C$alloc..collections..btree..node..marker..Leaf$GT$$C$alloc..collections..btree..node..marker..Edge$GT$$GT$27deallocating_next_unchecked28_$u7b$$u7b$closure$u7d$$u7d$17h01c25da54b791468E', symObjAddr: 0x0, symBinAddr: 0x32A88, symSize: 0x58 }
  - { offset: 0xFAF3A, size: 0x8, addend: 0x0, symName: '__ZN5alloc11collections5btree8navigate263_$LT$impl$u20$alloc..collections..btree..node..Handle$LT$alloc..collections..btree..node..NodeRef$LT$alloc..collections..btree..node..marker..Dying$C$K$C$V$C$alloc..collections..btree..node..marker..Leaf$GT$$C$alloc..collections..btree..node..marker..Edge$GT$$GT$27deallocating_next_unchecked28_$u7b$$u7b$closure$u7d$$u7d$17h0efaa07eff058a8aE', symObjAddr: 0x58, symBinAddr: 0x32AE0, symSize: 0x58 }
  - { offset: 0xFAFB6, size: 0x8, addend: 0x0, symName: '__ZN5alloc11collections5btree8navigate263_$LT$impl$u20$alloc..collections..btree..node..Handle$LT$alloc..collections..btree..node..NodeRef$LT$alloc..collections..btree..node..marker..Immut$C$K$C$V$C$alloc..collections..btree..node..marker..Leaf$GT$$C$alloc..collections..btree..node..marker..Edge$GT$$GT$14next_unchecked28_$u7b$$u7b$closure$u7d$$u7d$17hf7a0e9534139c538E', symObjAddr: 0xB0, symBinAddr: 0x32B38, symSize: 0xE0 }
  - { offset: 0xFB9A8, size: 0x8, addend: 0x0, symName: '__ZN5alloc11collections5btree8navigate39LazyLeafRange$LT$BorrowType$C$K$C$V$GT$10init_front17h378f0e203e85683dE', symObjAddr: 0x190, symBinAddr: 0x32C18, symSize: 0x1C8 }
  - { offset: 0xFBCCE, size: 0x8, addend: 0x0, symName: '__ZN5alloc11collections5btree8navigate39LazyLeafRange$LT$BorrowType$C$K$C$V$GT$10init_front17h992be0471cc3f1f2E', symObjAddr: 0x358, symBinAddr: 0x32DE0, symSize: 0x1C8 }
  - { offset: 0xFBFD6, size: 0x8, addend: 0x0, symName: '__ZN5alloc11collections5btree8navigate39LazyLeafRange$LT$BorrowType$C$K$C$V$GT$10init_front17hdd9192efa8e90af7E', symObjAddr: 0x520, symBinAddr: 0x32FA8, symSize: 0x1C8 }
  - { offset: 0xFC2E0, size: 0x8, addend: 0x0, symName: '__ZN5alloc11collections5btree8navigate75LazyLeafRange$LT$alloc..collections..btree..node..marker..Dying$C$K$C$V$GT$10take_front17h31d7aed56d4bd4f1E', symObjAddr: 0x6E8, symBinAddr: 0x33170, symSize: 0x1C4 }
  - { offset: 0xFC65F, size: 0x8, addend: 0x0, symName: '__ZN5alloc11collections5btree8navigate75LazyLeafRange$LT$alloc..collections..btree..node..marker..Dying$C$K$C$V$GT$10take_front17he8bc9fcc368018ebE', symObjAddr: 0x8AC, symBinAddr: 0x33334, symSize: 0x1C4 }
  - { offset: 0xFC866, size: 0x8, addend: 0x0, symName: '__ZN5alloc11collections5btree8navigate75LazyLeafRange$LT$alloc..collections..btree..node..marker..Dying$C$K$C$V$GT$16deallocating_end17h6707d84aa63b2159E', symObjAddr: 0xA70, symBinAddr: 0x334F8, symSize: 0x98 }
  - { offset: 0xFC8C6, size: 0x8, addend: 0x0, symName: '__ZN5alloc11collections5btree8navigate75LazyLeafRange$LT$alloc..collections..btree..node..marker..Dying$C$K$C$V$GT$16deallocating_end17h9dac1278950cb70cE', symObjAddr: 0xB08, symBinAddr: 0x33590, symSize: 0x98 }
  - { offset: 0xFC98B, size: 0x8, addend: 0x0, symName: '__ZN5alloc11collections5btree8navigate75LazyLeafRange$LT$alloc..collections..btree..node..marker..Dying$C$K$C$V$GT$27deallocating_next_unchecked17h63cfdc64240cd027E', symObjAddr: 0xBA0, symBinAddr: 0x33628, symSize: 0xA8 }
  - { offset: 0xFCA92, size: 0x8, addend: 0x0, symName: '__ZN5alloc11collections5btree8navigate75LazyLeafRange$LT$alloc..collections..btree..node..marker..Dying$C$K$C$V$GT$27deallocating_next_unchecked17hd0d226251b0107d1E', symObjAddr: 0xC48, symBinAddr: 0x336D0, symSize: 0xA8 }
  - { offset: 0xFCBCF, size: 0x8, addend: 0x0, symName: __ZN4pyo35types14notimplemented16PyNotImplemented3get17h56905598ca13dc59E, symObjAddr: 0x0, symBinAddr: 0x33778, symSize: 0x2C }
  - { offset: 0xFE224, size: 0x8, addend: 0x0, symName: __ZN4pyo35types14notimplemented16PyNotImplemented3get17h56905598ca13dc59E, symObjAddr: 0x0, symBinAddr: 0x33778, symSize: 0x2C }
  - { offset: 0xFE26F, size: 0x8, addend: 0x0, symName: __ZN4pyo310exceptions15PyOverflowError7new_err17h664e075d1b76c0f3E, symObjAddr: 0x0, symBinAddr: 0x337A4, symSize: 0x1C }
  - { offset: 0xFF615, size: 0x8, addend: 0x0, symName: '__ZN79_$LT$pyo3..exceptions..PyException$u20$as$u20$pyo3..type_object..PyTypeInfo$GT$15type_object_raw28_$u7b$$u7b$closure$u7d$$u7d$17h995e844546def32eE', symObjAddr: 0x4C, symBinAddr: 0x337F0, symSize: 0x4C }
  - { offset: 0xFF85E, size: 0x8, addend: 0x0, symName: __ZN4pyo311type_object10PyTypeInfo11type_object17h75f0772636e85321E, symObjAddr: 0x1C, symBinAddr: 0x337C0, symSize: 0x30 }
  - { offset: 0xFFF55, size: 0x8, addend: 0x0, symName: __ZN4pyo310exceptions15PyOverflowError7new_err17h664e075d1b76c0f3E, symObjAddr: 0x0, symBinAddr: 0x337A4, symSize: 0x1C }
  - { offset: 0xFFFE3, size: 0x8, addend: 0x0, symName: __ZN4pyo35impl_16extract_argument16extract_argument17h4d74b8bbe6f8dd0cE, symObjAddr: 0x0, symBinAddr: 0x3383C, symSize: 0x144 }
  - { offset: 0x1024C7, size: 0x8, addend: 0x0, symName: __ZN4pyo35impl_16extract_argument16extract_argument17h4d74b8bbe6f8dd0cE, symObjAddr: 0x0, symBinAddr: 0x3383C, symSize: 0x144 }
  - { offset: 0x10254D, size: 0x8, addend: 0x0, symName: __ZN4pyo35impl_16extract_argument16extract_argument17h552f74d7585a78f3E, symObjAddr: 0x144, symBinAddr: 0x33980, symSize: 0x138 }
  - { offset: 0x1025D2, size: 0x8, addend: 0x0, symName: __ZN4pyo35impl_16extract_argument16extract_argument17h9d2d64333460474eE, symObjAddr: 0x27C, symBinAddr: 0x33AB8, symSize: 0x144 }
  - { offset: 0x102658, size: 0x8, addend: 0x0, symName: __ZN4pyo35impl_16extract_argument16extract_argument17hb17bb8d4d9dbeb69E, symObjAddr: 0x3C0, symBinAddr: 0x33BFC, symSize: 0x138 }
  - { offset: 0x1026DD, size: 0x8, addend: 0x0, symName: __ZN4pyo35impl_16extract_argument16extract_argument17hdaea5250de0cb2d0E, symObjAddr: 0x4F8, symBinAddr: 0x33D34, symSize: 0x138 }
  - { offset: 0x102762, size: 0x8, addend: 0x0, symName: __ZN4pyo35impl_16extract_argument16extract_argument17hf18dc3caa2e59b99E, symObjAddr: 0x630, symBinAddr: 0x33E6C, symSize: 0x138 }
  - { offset: 0x1027E7, size: 0x8, addend: 0x0, symName: __ZN4pyo35impl_16extract_argument16extract_argument17hfab56a3bfb9fdcd9E, symObjAddr: 0x768, symBinAddr: 0x33FA4, symSize: 0x150 }
  - { offset: 0x1029ED, size: 0x8, addend: 0x0, symName: '__ZN4pyo35impl_16extract_argument19FunctionDescription26extract_arguments_fastcall28_$u7b$$u7b$closure$u7d$$u7d$17h8e1700a5db5dd0b6E', symObjAddr: 0x1C84, symBinAddr: 0x354C0, symSize: 0x24 }
  - { offset: 0x102A45, size: 0x8, addend: 0x0, symName: '__ZN4pyo35impl_16extract_argument19FunctionDescription28extract_arguments_tuple_dict28_$u7b$$u7b$closure$u7d$$u7d$17hc3b0c9a3a64025e9E', symObjAddr: 0x2128, symBinAddr: 0x35964, symSize: 0x24 }
  - { offset: 0x102A9D, size: 0x8, addend: 0x0, symName: '__ZN4pyo35impl_16extract_argument19FunctionDescription36find_keyword_parameter_in_positional28_$u7b$$u7b$closure$u7d$$u7d$17h4ee5dd476d1a1cf0E', symObjAddr: 0x214C, symBinAddr: 0x35988, symSize: 0x48 }
  - { offset: 0x102AFD, size: 0x8, addend: 0x0, symName: '__ZN4pyo35impl_16extract_argument19FunctionDescription38find_keyword_parameter_in_keyword_only28_$u7b$$u7b$closure$u7d$$u7d$17h37a000cf83536208E', symObjAddr: 0x2194, symBinAddr: 0x359D0, symSize: 0x38 }
  - { offset: 0x102B3F, size: 0x8, addend: 0x0, symName: __ZN4pyo35impl_16extract_argument19extract_pyclass_ref17ha095b414c0dd79d3E, symObjAddr: 0x21CC, symBinAddr: 0x35A08, symSize: 0xB0 }
  - { offset: 0x102BA0, size: 0x8, addend: 0x0, symName: __ZN4pyo35impl_16extract_argument19extract_pyclass_ref17hfc8875ee70e7542cE, symObjAddr: 0x227C, symBinAddr: 0x35AB8, symSize: 0xB0 }
  - { offset: 0x102C01, size: 0x8, addend: 0x0, symName: __ZN4pyo35impl_16extract_argument25extract_optional_argument17h5771c2862835f494E, symObjAddr: 0x232C, symBinAddr: 0x35B68, symSize: 0xCC }
  - { offset: 0x102C76, size: 0x8, addend: 0x0, symName: __ZN4pyo35impl_16extract_argument25extract_optional_argument17haa4a380d03731f0bE, symObjAddr: 0x23F8, symBinAddr: 0x35C34, symSize: 0xE4 }
  - { offset: 0x102CEA, size: 0x8, addend: 0x0, symName: __ZN4pyo35impl_16extract_argument25extract_optional_argument17hdb5f62bb5e305a58E, symObjAddr: 0x24DC, symBinAddr: 0x35D18, symSize: 0xC0 }
  - { offset: 0x102D63, size: 0x8, addend: 0x0, symName: '__ZN80_$LT$T$u20$as$u20$pyo3..impl_..extract_argument..PyFunctionArgument$LT$_$GT$$GT$7extract17h0b7aa58df7554d22E', symObjAddr: 0x259C, symBinAddr: 0x35DD8, symSize: 0x28 }
  - { offset: 0x102DA2, size: 0x8, addend: 0x0, symName: '__ZN80_$LT$T$u20$as$u20$pyo3..impl_..extract_argument..PyFunctionArgument$LT$_$GT$$GT$7extract17h144669658ac42360E', symObjAddr: 0x25C4, symBinAddr: 0x35E00, symSize: 0x28 }
  - { offset: 0x102DE1, size: 0x8, addend: 0x0, symName: '__ZN80_$LT$T$u20$as$u20$pyo3..impl_..extract_argument..PyFunctionArgument$LT$_$GT$$GT$7extract17h35472d31bd318313E', symObjAddr: 0x25EC, symBinAddr: 0x35E28, symSize: 0x28 }
  - { offset: 0x103AE6, size: 0x8, addend: 0x0, symName: __ZN4pyo35impl_16extract_argument19FunctionDescription13handle_kwargs17h3552b60f1fd337d4E, symObjAddr: 0x8B8, symBinAddr: 0x340F4, symSize: 0x6F8 }
  - { offset: 0x103CFB, size: 0x8, addend: 0x0, symName: __ZN4pyo35impl_16extract_argument19FunctionDescription13handle_kwargs17h5cb3176eaa51057cE, symObjAddr: 0xFB0, symBinAddr: 0x347EC, symSize: 0x6FC }
  - { offset: 0x103F14, size: 0x8, addend: 0x0, symName: __ZN4pyo35impl_16extract_argument19FunctionDescription26extract_arguments_fastcall17hfe4fd45ecff08c20E, symObjAddr: 0x16AC, symBinAddr: 0x34EE8, symSize: 0x5D8 }
  - { offset: 0x104246, size: 0x8, addend: 0x0, symName: __ZN4pyo35impl_16extract_argument19FunctionDescription28extract_arguments_tuple_dict17h4b398cfb85aeb988E, symObjAddr: 0x1CA8, symBinAddr: 0x354E4, symSize: 0x480 }
  - { offset: 0x10492D, size: 0x8, addend: 0x0, symName: '__ZN73_$LT$pyo3..types..any..PyAny$u20$as$u20$pyo3..type_object..PyTypeInfo$GT$15type_object_raw17h00f8d815e6d8d4b3E', symObjAddr: 0x0, symBinAddr: 0x35E50, symSize: 0x24 }
  - { offset: 0x105963, size: 0x8, addend: 0x0, symName: '__ZN73_$LT$pyo3..types..any..PyAny$u20$as$u20$pyo3..type_object..PyTypeInfo$GT$15type_object_raw17h00f8d815e6d8d4b3E', symObjAddr: 0x0, symBinAddr: 0x35E50, symSize: 0x24 }
  - { offset: 0x105EA6, size: 0x8, addend: 0x0, symName: '__ZN4pyo311conversions3std3num63_$LT$impl$u20$pyo3..conversion..IntoPyObject$u20$for$u20$u8$GT$28owned_sequence_into_pyobject17h9ec28671c6df4be2E', symObjAddr: 0x0, symBinAddr: 0x35E74, symSize: 0x94 }
  - { offset: 0x107316, size: 0x8, addend: 0x0, symName: '__ZN4pyo311conversions3std3num63_$LT$impl$u20$pyo3..conversion..IntoPyObject$u20$for$u20$u8$GT$28owned_sequence_into_pyobject17h9ec28671c6df4be2E', symObjAddr: 0x0, symBinAddr: 0x35E74, symSize: 0x94 }
  - { offset: 0x107D80, size: 0x8, addend: 0x0, symName: __ZN3std9panicking12catch_unwind7do_call17h2fafa4b7e5c8ee6fE, symObjAddr: 0x0, symBinAddr: 0x35F08, symSize: 0x80 }
  - { offset: 0x10A0E6, size: 0x8, addend: 0x0, symName: __ZN3std9panicking12catch_unwind7do_call17h2fafa4b7e5c8ee6fE, symObjAddr: 0x0, symBinAddr: 0x35F08, symSize: 0x80 }
  - { offset: 0x10A1CD, size: 0x8, addend: 0x0, symName: __ZN3std9panicking12catch_unwind7do_call17h6af8a4e73406a79eE, symObjAddr: 0x80, symBinAddr: 0x35F88, symSize: 0x80 }
  - { offset: 0x10A2B4, size: 0x8, addend: 0x0, symName: __ZN3std9panicking12catch_unwind7do_call17h79a6bc4318938efcE, symObjAddr: 0x100, symBinAddr: 0x36008, symSize: 0x8C }
  - { offset: 0x10A39B, size: 0x8, addend: 0x0, symName: __ZN3std9panicking12catch_unwind7do_call17hb2d3295f5ad72b03E, symObjAddr: 0x18C, symBinAddr: 0x36094, symSize: 0x8C }
  - { offset: 0x10A482, size: 0x8, addend: 0x0, symName: __ZN3std9panicking12catch_unwind7do_call17hc4de4b88bacf058eE, symObjAddr: 0x218, symBinAddr: 0x36120, symSize: 0x90 }
  - { offset: 0x10A569, size: 0x8, addend: 0x0, symName: __ZN3std9panicking12catch_unwind7do_call17hc927f831ff814f34E, symObjAddr: 0x2A8, symBinAddr: 0x361B0, symSize: 0x74 }
  - { offset: 0x10A650, size: 0x8, addend: 0x0, symName: __ZN3std9panicking12catch_unwind7do_call17hd7554e46fd5bfd85E, symObjAddr: 0x31C, symBinAddr: 0x36224, symSize: 0x80 }
  - { offset: 0x10A737, size: 0x8, addend: 0x0, symName: __ZN3std9panicking12catch_unwind7do_call17hf88e6921430579d6E, symObjAddr: 0x39C, symBinAddr: 0x362A4, symSize: 0x80 }
  - { offset: 0x10A81E, size: 0x8, addend: 0x0, symName: __ZN3std9panicking12catch_unwind8do_catch17h1841cbc8601494ffE, symObjAddr: 0x41C, symBinAddr: 0x36324, symSize: 0x70 }
  - { offset: 0x10A8B3, size: 0x8, addend: 0x0, symName: __ZN3std9panicking12catch_unwind8do_catch17h3621872a162e36b0E, symObjAddr: 0x48C, symBinAddr: 0x36394, symSize: 0x70 }
  - { offset: 0x10A948, size: 0x8, addend: 0x0, symName: __ZN3std9panicking12catch_unwind8do_catch17h7163ab5b0cdbb86dE, symObjAddr: 0x4FC, symBinAddr: 0x36404, symSize: 0x70 }
  - { offset: 0x10A9DD, size: 0x8, addend: 0x0, symName: __ZN3std9panicking12catch_unwind8do_catch17h935fb26d60f5c742E, symObjAddr: 0x56C, symBinAddr: 0x36474, symSize: 0x70 }
  - { offset: 0x10AA72, size: 0x8, addend: 0x0, symName: __ZN3std9panicking12catch_unwind8do_catch17hc9cf6899016bb573E, symObjAddr: 0x5DC, symBinAddr: 0x364E4, symSize: 0x70 }
  - { offset: 0x10AB07, size: 0x8, addend: 0x0, symName: __ZN3std9panicking12catch_unwind8do_catch17hd87811c3a3da81fbE, symObjAddr: 0x64C, symBinAddr: 0x36554, symSize: 0x70 }
  - { offset: 0x10AB9C, size: 0x8, addend: 0x0, symName: __ZN3std9panicking12catch_unwind8do_catch17he7fa68eb759302feE, symObjAddr: 0x6BC, symBinAddr: 0x365C4, symSize: 0x70 }
  - { offset: 0x10AC31, size: 0x8, addend: 0x0, symName: __ZN3std9panicking12catch_unwind8do_catch17hea581636a260ff31E, symObjAddr: 0x72C, symBinAddr: 0x36634, symSize: 0x70 }
  - { offset: 0x10B3D3, size: 0x8, addend: 0x0, symName: __ZN4pyo33gil8GILGuard6python17h61f5fcccdc7cc77fE, symObjAddr: 0x0, symBinAddr: 0x366A4, symSize: 0x20 }
  - { offset: 0x10B483, size: 0x8, addend: 0x0, symName: __ZN4pyo33gil8GILGuard6python17h61f5fcccdc7cc77fE, symObjAddr: 0x0, symBinAddr: 0x366A4, symSize: 0x20 }
  - { offset: 0x10B4C3, size: 0x8, addend: 0x0, symName: '__ZN280_$LT$alloc..collections..btree..node..Handle$LT$alloc..collections..btree..node..NodeRef$LT$alloc..collections..btree..node..marker..Dying$C$K$C$V$C$NodeType$GT$$C$alloc..collections..btree..node..marker..KV$GT$..drop_key_val..Dropper$LT$T$GT$$u20$as$u20$core..ops..drop..Drop$GT$4drop17h0f8fe467717a4c06E', symObjAddr: 0x0, symBinAddr: 0x366E4, symSize: 0x2C }
  - { offset: 0x111520, size: 0x8, addend: 0x0, symName: '__ZN280_$LT$alloc..collections..btree..node..Handle$LT$alloc..collections..btree..node..NodeRef$LT$alloc..collections..btree..node..marker..Dying$C$K$C$V$C$NodeType$GT$$C$alloc..collections..btree..node..marker..KV$GT$..drop_key_val..Dropper$LT$T$GT$$u20$as$u20$core..ops..drop..Drop$GT$4drop17h0f8fe467717a4c06E', symObjAddr: 0x0, symBinAddr: 0x366E4, symSize: 0x2C }
  - { offset: 0x111571, size: 0x8, addend: 0x0, symName: '__ZN280_$LT$alloc..collections..btree..node..Handle$LT$alloc..collections..btree..node..NodeRef$LT$alloc..collections..btree..node..marker..Dying$C$K$C$V$C$NodeType$GT$$C$alloc..collections..btree..node..marker..KV$GT$..drop_key_val..Dropper$LT$T$GT$$u20$as$u20$core..ops..drop..Drop$GT$4drop17h86e90e47ff1a31fcE', symObjAddr: 0x2C, symBinAddr: 0x36710, symSize: 0x2C }
  - { offset: 0x113CD3, size: 0x8, addend: 0x0, symName: '__ZN5alloc11collections5btree4node127NodeRef$LT$alloc..collections..btree..node..marker..Owned$C$K$C$V$C$alloc..collections..btree..node..marker..LeafOrInternal$GT$19push_internal_level28_$u7b$$u7b$closure$u7d$$u7d$17h19650598e462dea8E', symObjAddr: 0x1480, symBinAddr: 0x37B64, symSize: 0x34 }
  - { offset: 0x113D2C, size: 0x8, addend: 0x0, symName: '__ZN5alloc11collections5btree4node127NodeRef$LT$alloc..collections..btree..node..marker..Owned$C$K$C$V$C$alloc..collections..btree..node..marker..LeafOrInternal$GT$19push_internal_level28_$u7b$$u7b$closure$u7d$$u7d$17ha37efd7c4f1502cdE', symObjAddr: 0x14B4, symBinAddr: 0x37B98, symSize: 0x34 }
  - { offset: 0x113D9A, size: 0x8, addend: 0x0, symName: __ZN5alloc11collections5btree4node12slice_insert17h52f33b3ee211c7caE, symObjAddr: 0x14E8, symBinAddr: 0x37BCC, symSize: 0x158 }
  - { offset: 0x113F21, size: 0x8, addend: 0x0, symName: __ZN5alloc11collections5btree4node12slice_insert17h73728a6e07344ed7E, symObjAddr: 0x1640, symBinAddr: 0x37D24, symSize: 0x114 }
  - { offset: 0x114087, size: 0x8, addend: 0x0, symName: __ZN5alloc11collections5btree4node12slice_insert17h8d1eb8720b526561E, symObjAddr: 0x1754, symBinAddr: 0x37E38, symSize: 0x114 }
  - { offset: 0x1141ED, size: 0x8, addend: 0x0, symName: __ZN5alloc11collections5btree4node13move_to_slice17h10e3aa02806a3c83E, symObjAddr: 0x1868, symBinAddr: 0x37F4C, symSize: 0xB0 }
  - { offset: 0x114299, size: 0x8, addend: 0x0, symName: __ZN5alloc11collections5btree4node13move_to_slice17h43102b17f4b91cb4E, symObjAddr: 0x1918, symBinAddr: 0x37FFC, symSize: 0xB8 }
  - { offset: 0x114345, size: 0x8, addend: 0x0, symName: __ZN5alloc11collections5btree4node13move_to_slice17h895d25a88be7b8e8E, symObjAddr: 0x19D0, symBinAddr: 0x380B4, symSize: 0xB0 }
  - { offset: 0x1143F1, size: 0x8, addend: 0x0, symName: __ZN5alloc11collections5btree4node13move_to_slice17hce4d882ed53a6b1bE, symObjAddr: 0x1A80, symBinAddr: 0x38164, symSize: 0xB0 }
  - { offset: 0x11449D, size: 0x8, addend: 0x0, symName: __ZN5alloc11collections5btree4node13move_to_slice17hd58ec9cf22129076E, symObjAddr: 0x1B30, symBinAddr: 0x38214, symSize: 0xB8 }
  - { offset: 0x115830, size: 0x8, addend: 0x0, symName: __ZN5alloc11collections5btree4node9slice_shr17h7ab728c736cd791aE, symObjAddr: 0x5C28, symBinAddr: 0x3C30C, symSize: 0xB4 }
  - { offset: 0x1158F2, size: 0x8, addend: 0x0, symName: __ZN5alloc11collections5btree4node9slice_shr17h7e53717e5d55da1bE, symObjAddr: 0x5CDC, symBinAddr: 0x3C3C0, symSize: 0xB8 }
  - { offset: 0x1159B4, size: 0x8, addend: 0x0, symName: __ZN5alloc11collections5btree4node9slice_shr17hf5949ddb130a97f3E, symObjAddr: 0x5D94, symBinAddr: 0x3C478, symSize: 0xB4 }
  - { offset: 0x11747E, size: 0x8, addend: 0x0, symName: '__ZN5alloc11collections5btree3fix178_$LT$impl$u20$alloc..collections..btree..node..NodeRef$LT$alloc..collections..btree..node..marker..Owned$C$K$C$V$C$alloc..collections..btree..node..marker..LeafOrInternal$GT$$GT$29fix_right_border_of_plentiful17h3d784632f2947ea8E', symObjAddr: 0x58, symBinAddr: 0x3673C, symSize: 0x188 }
  - { offset: 0x117986, size: 0x8, addend: 0x0, symName: '__ZN5alloc11collections5btree4node115NodeRef$LT$alloc..collections..btree..node..marker..Mut$C$K$C$V$C$alloc..collections..btree..node..marker..Leaf$GT$16push_with_handle17h3ed311d5affb7ab6E', symObjAddr: 0x1E0, symBinAddr: 0x368C4, symSize: 0x210 }
  - { offset: 0x117F42, size: 0x8, addend: 0x0, symName: '__ZN5alloc11collections5btree4node115NodeRef$LT$alloc..collections..btree..node..marker..Mut$C$K$C$V$C$alloc..collections..btree..node..marker..Leaf$GT$16push_with_handle17h9262a9c11b189dd0E', symObjAddr: 0x3F0, symBinAddr: 0x36AD4, symSize: 0x21C }
  - { offset: 0x118306, size: 0x8, addend: 0x0, symName: '__ZN5alloc11collections5btree4node119NodeRef$LT$alloc..collections..btree..node..marker..Mut$C$K$C$V$C$alloc..collections..btree..node..marker..Internal$GT$30correct_childrens_parent_links17h87d122a933f9e12eE', symObjAddr: 0x60C, symBinAddr: 0x36CF0, symSize: 0xB4 }
  - { offset: 0x11843D, size: 0x8, addend: 0x0, symName: '__ZN5alloc11collections5btree4node119NodeRef$LT$alloc..collections..btree..node..marker..Mut$C$K$C$V$C$alloc..collections..btree..node..marker..Internal$GT$30correct_childrens_parent_links17h8dfd63c93d73d6ddE', symObjAddr: 0x6C0, symBinAddr: 0x36DA4, symSize: 0xB4 }
  - { offset: 0x118580, size: 0x8, addend: 0x0, symName: '__ZN5alloc11collections5btree4node119NodeRef$LT$alloc..collections..btree..node..marker..Mut$C$K$C$V$C$alloc..collections..btree..node..marker..Internal$GT$30correct_childrens_parent_links17hd688db3a694b476eE', symObjAddr: 0x774, symBinAddr: 0x36E58, symSize: 0xB4 }
  - { offset: 0x1186B7, size: 0x8, addend: 0x0, symName: '__ZN5alloc11collections5btree4node119NodeRef$LT$alloc..collections..btree..node..marker..Mut$C$K$C$V$C$alloc..collections..btree..node..marker..Internal$GT$30correct_childrens_parent_links17he1c2f4a04531674aE', symObjAddr: 0x828, symBinAddr: 0x36F0C, symSize: 0xB4 }
  - { offset: 0x118AF2, size: 0x8, addend: 0x0, symName: '__ZN5alloc11collections5btree4node119NodeRef$LT$alloc..collections..btree..node..marker..Mut$C$K$C$V$C$alloc..collections..btree..node..marker..Internal$GT$4push17h4b17ba769867c9f9E', symObjAddr: 0x8DC, symBinAddr: 0x36FC0, symSize: 0x308 }
  - { offset: 0x1192DF, size: 0x8, addend: 0x0, symName: '__ZN5alloc11collections5btree4node119NodeRef$LT$alloc..collections..btree..node..marker..Mut$C$K$C$V$C$alloc..collections..btree..node..marker..Internal$GT$4push17hf6d3889dc38195ebE', symObjAddr: 0xBE4, symBinAddr: 0x372C8, symSize: 0x314 }
  - { offset: 0x1197A9, size: 0x8, addend: 0x0, symName: '__ZN5alloc11collections5btree4node121NodeRef$LT$alloc..collections..btree..node..marker..Owned$C$K$C$V$C$alloc..collections..btree..node..marker..Internal$GT$12new_internal17hc78b70e46b3a10a6E', symObjAddr: 0xEF8, symBinAddr: 0x375DC, symSize: 0x90 }
  - { offset: 0x11985E, size: 0x8, addend: 0x0, symName: '__ZN5alloc11collections5btree4node121NodeRef$LT$alloc..collections..btree..node..marker..Owned$C$K$C$V$C$alloc..collections..btree..node..marker..Internal$GT$12new_internal17he25a1b68bf39c1c3E', symObjAddr: 0xF88, symBinAddr: 0x3766C, symSize: 0x90 }
  - { offset: 0x119A5D, size: 0x8, addend: 0x0, symName: '__ZN5alloc11collections5btree4node121NodeRef$LT$alloc..collections..btree..node..marker..Owned$C$K$C$V$C$alloc..collections..btree..node..marker..Internal$GT$17from_new_internal17h7e23c7bd3a624db4E', symObjAddr: 0x1018, symBinAddr: 0x376FC, symSize: 0xAC }
  - { offset: 0x119D84, size: 0x8, addend: 0x0, symName: '__ZN5alloc11collections5btree4node121NodeRef$LT$alloc..collections..btree..node..marker..Owned$C$K$C$V$C$alloc..collections..btree..node..marker..Internal$GT$17from_new_internal17hf099c14557ff57f7E', symObjAddr: 0x10C4, symBinAddr: 0x377A8, symSize: 0xAC }
  - { offset: 0x11A08A, size: 0x8, addend: 0x0, symName: '__ZN5alloc11collections5btree4node127NodeRef$LT$alloc..collections..btree..node..marker..Dying$C$K$C$V$C$alloc..collections..btree..node..marker..LeafOrInternal$GT$21deallocate_and_ascend17hd723219609ced8abE', symObjAddr: 0x1170, symBinAddr: 0x37854, symSize: 0x188 }
  - { offset: 0x11A309, size: 0x8, addend: 0x0, symName: '__ZN5alloc11collections5btree4node127NodeRef$LT$alloc..collections..btree..node..marker..Dying$C$K$C$V$C$alloc..collections..btree..node..marker..LeafOrInternal$GT$21deallocate_and_ascend17he2e9254ad8d7379fE', symObjAddr: 0x12F8, symBinAddr: 0x379DC, symSize: 0x188 }
  - { offset: 0x11A5F3, size: 0x8, addend: 0x0, symName: '__ZN5alloc11collections5btree4node171Handle$LT$alloc..collections..btree..node..NodeRef$LT$alloc..collections..btree..node..marker..Mut$C$K$C$V$C$NodeType$GT$$C$alloc..collections..btree..node..marker..KV$GT$10replace_kv17hcfd6c5aff3f5db23E', symObjAddr: 0x1BE8, symBinAddr: 0x382CC, symSize: 0xF4 }
  - { offset: 0x11A742, size: 0x8, addend: 0x0, symName: '__ZN5alloc11collections5btree4node171Handle$LT$alloc..collections..btree..node..NodeRef$LT$alloc..collections..btree..node..marker..Mut$C$K$C$V$C$NodeType$GT$$C$alloc..collections..btree..node..marker..KV$GT$12into_val_mut17hec34a61f1ab3eb66E', symObjAddr: 0x1CDC, symBinAddr: 0x383C0, symSize: 0x94 }
  - { offset: 0x11A8AE, size: 0x8, addend: 0x0, symName: '__ZN5alloc11collections5btree4node171Handle$LT$alloc..collections..btree..node..NodeRef$LT$alloc..collections..btree..node..marker..Mut$C$K$C$V$C$NodeType$GT$$C$alloc..collections..btree..node..marker..KV$GT$12into_val_mut17hfd1ea54985ef22e6E', symObjAddr: 0x1D70, symBinAddr: 0x38454, symSize: 0x94 }
  - { offset: 0x11AC62, size: 0x8, addend: 0x0, symName: '__ZN5alloc11collections5btree4node171Handle$LT$alloc..collections..btree..node..NodeRef$LT$alloc..collections..btree..node..marker..Mut$C$K$C$V$C$NodeType$GT$$C$alloc..collections..btree..node..marker..KV$GT$15split_leaf_data17h8cda19dd6787b425E', symObjAddr: 0x1E04, symBinAddr: 0x384E8, symSize: 0x44C }
  - { offset: 0x11B704, size: 0x8, addend: 0x0, symName: '__ZN5alloc11collections5btree4node171Handle$LT$alloc..collections..btree..node..NodeRef$LT$alloc..collections..btree..node..marker..Mut$C$K$C$V$C$NodeType$GT$$C$alloc..collections..btree..node..marker..KV$GT$15split_leaf_data17hbef43eb4d880b253E', symObjAddr: 0x2250, symBinAddr: 0x38934, symSize: 0x44C }
  - { offset: 0x11BFF8, size: 0x8, addend: 0x0, symName: '__ZN5alloc11collections5btree4node171Handle$LT$alloc..collections..btree..node..NodeRef$LT$alloc..collections..btree..node..marker..Mut$C$K$C$V$C$NodeType$GT$$C$alloc..collections..btree..node..marker..KV$GT$6kv_mut17h5cb7a43b6e08be3eE', symObjAddr: 0x269C, symBinAddr: 0x38D80, symSize: 0x104 }
  - { offset: 0x11C291, size: 0x8, addend: 0x0, symName: '__ZN5alloc11collections5btree4node171Handle$LT$alloc..collections..btree..node..NodeRef$LT$alloc..collections..btree..node..marker..Mut$C$K$C$V$C$NodeType$GT$$C$alloc..collections..btree..node..marker..KV$GT$6kv_mut17hbfbbb457fba25e4eE', symObjAddr: 0x27A0, symBinAddr: 0x38E84, symSize: 0x104 }
  - { offset: 0x11C4F0, size: 0x8, addend: 0x0, symName: '__ZN5alloc11collections5btree4node173Handle$LT$alloc..collections..btree..node..NodeRef$LT$alloc..collections..btree..node..marker..Dying$C$K$C$V$C$NodeType$GT$$C$alloc..collections..btree..node..marker..KV$GT$12drop_key_val17h0813fb5e0dbb679fE', symObjAddr: 0x28A4, symBinAddr: 0x38F88, symSize: 0x100 }
  - { offset: 0x11C750, size: 0x8, addend: 0x0, symName: '__ZN5alloc11collections5btree4node173Handle$LT$alloc..collections..btree..node..NodeRef$LT$alloc..collections..btree..node..marker..Dying$C$K$C$V$C$NodeType$GT$$C$alloc..collections..btree..node..marker..KV$GT$12drop_key_val17h6d120d6d393a7f1bE', symObjAddr: 0x29A4, symBinAddr: 0x39088, symSize: 0x100 }
  - { offset: 0x11C9EA, size: 0x8, addend: 0x0, symName: '__ZN5alloc11collections5btree4node173Handle$LT$alloc..collections..btree..node..NodeRef$LT$alloc..collections..btree..node..marker..Dying$C$K$C$V$C$NodeType$GT$$C$alloc..collections..btree..node..marker..KV$GT$12into_key_val17h35c2df3f68c4eff6E', symObjAddr: 0x2AA4, symBinAddr: 0x39188, symSize: 0x13C }
  - { offset: 0x11CE13, size: 0x8, addend: 0x0, symName: '__ZN5alloc11collections5btree4node173Handle$LT$alloc..collections..btree..node..NodeRef$LT$alloc..collections..btree..node..marker..Immut$C$K$C$V$C$NodeType$GT$$C$alloc..collections..btree..node..marker..KV$GT$7into_kv17hd499d8526bc20defE', symObjAddr: 0x2BE0, symBinAddr: 0x392C4, symSize: 0xEC }
  - { offset: 0x11D0AB, size: 0x8, addend: 0x0, symName: '__ZN5alloc11collections5btree4node180Handle$LT$alloc..collections..btree..node..NodeRef$LT$BorrowType$C$K$C$V$C$alloc..collections..btree..node..marker..Internal$GT$$C$alloc..collections..btree..node..marker..Edge$GT$7descend17h4a67afde30bb03bfE', symObjAddr: 0x2CCC, symBinAddr: 0x393B0, symSize: 0x9C }
  - { offset: 0x11D25E, size: 0x8, addend: 0x0, symName: '__ZN5alloc11collections5btree4node180Handle$LT$alloc..collections..btree..node..NodeRef$LT$BorrowType$C$K$C$V$C$alloc..collections..btree..node..marker..Internal$GT$$C$alloc..collections..btree..node..marker..Edge$GT$7descend17h6de44b7a0ae06e30E', symObjAddr: 0x2D68, symBinAddr: 0x3944C, symSize: 0x9C }
  - { offset: 0x11D456, size: 0x8, addend: 0x0, symName: '__ZN5alloc11collections5btree4node180Handle$LT$alloc..collections..btree..node..NodeRef$LT$BorrowType$C$K$C$V$C$alloc..collections..btree..node..marker..Internal$GT$$C$alloc..collections..btree..node..marker..Edge$GT$7descend17h6f09d0115139221fE', symObjAddr: 0x2E04, symBinAddr: 0x394E8, symSize: 0x9C }
  - { offset: 0x11D634, size: 0x8, addend: 0x0, symName: '__ZN5alloc11collections5btree4node180Handle$LT$alloc..collections..btree..node..NodeRef$LT$BorrowType$C$K$C$V$C$alloc..collections..btree..node..marker..Internal$GT$$C$alloc..collections..btree..node..marker..Edge$GT$7descend17ha358bb2a14663571E', symObjAddr: 0x2EA0, symBinAddr: 0x39584, symSize: 0x9C }
  - { offset: 0x11D7E7, size: 0x8, addend: 0x0, symName: '__ZN5alloc11collections5btree4node180Handle$LT$alloc..collections..btree..node..NodeRef$LT$BorrowType$C$K$C$V$C$alloc..collections..btree..node..marker..Internal$GT$$C$alloc..collections..btree..node..marker..Edge$GT$7descend17hc8e31883a05e8fbbE', symObjAddr: 0x2F3C, symBinAddr: 0x39620, symSize: 0x9C }
  - { offset: 0x11D98D, size: 0x8, addend: 0x0, symName: '__ZN5alloc11collections5btree4node208Handle$LT$alloc..collections..btree..node..NodeRef$LT$alloc..collections..btree..node..marker..Mut$C$K$C$V$C$alloc..collections..btree..node..marker..Leaf$GT$$C$alloc..collections..btree..node..marker..KV$GT$5split17hfb7ed139b9324facE', symObjAddr: 0x2FD8, symBinAddr: 0x396BC, symSize: 0xA8 }
  - { offset: 0x11DBF2, size: 0x8, addend: 0x0, symName: '__ZN5alloc11collections5btree4node210Handle$LT$alloc..collections..btree..node..NodeRef$LT$alloc..collections..btree..node..marker..Mut$C$K$C$V$C$alloc..collections..btree..node..marker..Leaf$GT$$C$alloc..collections..btree..node..marker..Edge$GT$10insert_fit17h9e0b2e29164397cbE', symObjAddr: 0x3080, symBinAddr: 0x39764, symSize: 0x200 }
  - { offset: 0x11E055, size: 0x8, addend: 0x0, symName: '__ZN5alloc11collections5btree4node210Handle$LT$alloc..collections..btree..node..NodeRef$LT$alloc..collections..btree..node..marker..Mut$C$K$C$V$C$alloc..collections..btree..node..marker..Leaf$GT$$C$alloc..collections..btree..node..marker..Edge$GT$16insert_recursing17h1e4d96905f67ff93E', symObjAddr: 0x3280, symBinAddr: 0x39964, symSize: 0x4A4 }
  - { offset: 0x11E4D2, size: 0x8, addend: 0x0, symName: '__ZN5alloc11collections5btree4node210Handle$LT$alloc..collections..btree..node..NodeRef$LT$alloc..collections..btree..node..marker..Mut$C$K$C$V$C$alloc..collections..btree..node..marker..Leaf$GT$$C$alloc..collections..btree..node..marker..Edge$GT$6insert17h2213900993900045E', symObjAddr: 0x3724, symBinAddr: 0x39E08, symSize: 0x4EC }
  - { offset: 0x11E83C, size: 0x8, addend: 0x0, symName: '__ZN5alloc11collections5btree4node212Handle$LT$alloc..collections..btree..node..NodeRef$LT$alloc..collections..btree..node..marker..Mut$C$K$C$V$C$alloc..collections..btree..node..marker..Internal$GT$$C$alloc..collections..btree..node..marker..KV$GT$22consider_for_balancing17hd5906a8e6c1ae061E', symObjAddr: 0x3C10, symBinAddr: 0x3A2F4, symSize: 0xE4 }
  - { offset: 0x11EA6D, size: 0x8, addend: 0x0, symName: '__ZN5alloc11collections5btree4node212Handle$LT$alloc..collections..btree..node..NodeRef$LT$alloc..collections..btree..node..marker..Mut$C$K$C$V$C$alloc..collections..btree..node..marker..Internal$GT$$C$alloc..collections..btree..node..marker..KV$GT$5split17h6a60b81ab7408eb6E', symObjAddr: 0x3CF4, symBinAddr: 0x3A3D8, symSize: 0x28C }
  - { offset: 0x11EFE3, size: 0x8, addend: 0x0, symName: '__ZN5alloc11collections5btree4node214Handle$LT$alloc..collections..btree..node..NodeRef$LT$alloc..collections..btree..node..marker..Mut$C$K$C$V$C$alloc..collections..btree..node..marker..Internal$GT$$C$alloc..collections..btree..node..marker..Edge$GT$10insert_fit17h7231035b62b45d32E', symObjAddr: 0x3F80, symBinAddr: 0x3A664, symSize: 0x2A0 }
  - { offset: 0x11F546, size: 0x8, addend: 0x0, symName: '__ZN5alloc11collections5btree4node214Handle$LT$alloc..collections..btree..node..NodeRef$LT$alloc..collections..btree..node..marker..Mut$C$K$C$V$C$alloc..collections..btree..node..marker..Internal$GT$$C$alloc..collections..btree..node..marker..Edge$GT$19correct_parent_link17hb2be6fee1ad807a2E', symObjAddr: 0x4220, symBinAddr: 0x3A904, symSize: 0x9C }
  - { offset: 0x11F74D, size: 0x8, addend: 0x0, symName: '__ZN5alloc11collections5btree4node214Handle$LT$alloc..collections..btree..node..NodeRef$LT$alloc..collections..btree..node..marker..Mut$C$K$C$V$C$alloc..collections..btree..node..marker..Internal$GT$$C$alloc..collections..btree..node..marker..Edge$GT$19correct_parent_link17hc505113e2ae51d06E', symObjAddr: 0x42BC, symBinAddr: 0x3A9A0, symSize: 0x9C }
  - { offset: 0x11F9CA, size: 0x8, addend: 0x0, symName: '__ZN5alloc11collections5btree4node214Handle$LT$alloc..collections..btree..node..NodeRef$LT$alloc..collections..btree..node..marker..Mut$C$K$C$V$C$alloc..collections..btree..node..marker..Internal$GT$$C$alloc..collections..btree..node..marker..Edge$GT$6insert17hf962c372b7bcf6e2E', symObjAddr: 0x4358, symBinAddr: 0x3AA3C, symSize: 0x4EC }
  - { offset: 0x11FCBA, size: 0x8, addend: 0x0, symName: '__ZN5alloc11collections5btree4node21LeafNode$LT$K$C$V$GT$3new17h2cdbf89479e204b7E', symObjAddr: 0x4844, symBinAddr: 0x3AF28, symSize: 0x70 }
  - { offset: 0x11FF36, size: 0x8, addend: 0x0, symName: '__ZN5alloc11collections5btree4node21LeafNode$LT$K$C$V$GT$3new17h3840f068a72e0fd7E', symObjAddr: 0x48B4, symBinAddr: 0x3AF98, symSize: 0x70 }
  - { offset: 0x12016F, size: 0x8, addend: 0x0, symName: '__ZN5alloc11collections5btree4node25InternalNode$LT$K$C$V$GT$3new17h2c3e34178b71d46fE', symObjAddr: 0x4924, symBinAddr: 0x3B008, symSize: 0x70 }
  - { offset: 0x12038B, size: 0x8, addend: 0x0, symName: '__ZN5alloc11collections5btree4node25InternalNode$LT$K$C$V$GT$3new17h5d4009b7a3dfc7f9E', symObjAddr: 0x4994, symBinAddr: 0x3B078, symSize: 0x70 }
  - { offset: 0x120A08, size: 0x8, addend: 0x0, symName: '__ZN5alloc11collections5btree4node29BalancingContext$LT$K$C$V$GT$15bulk_steal_left17h22f5d295b1247c94E', symObjAddr: 0x4A04, symBinAddr: 0x3B0E8, symSize: 0xA10 }
  - { offset: 0x121E34, size: 0x8, addend: 0x0, symName: '__ZN5alloc11collections5btree4node40NodeRef$LT$BorrowType$C$K$C$V$C$Type$GT$6ascend17h3d2445a671622d3bE', symObjAddr: 0x5414, symBinAddr: 0x3BAF8, symSize: 0x17C }
  - { offset: 0x1220FD, size: 0x8, addend: 0x0, symName: '__ZN5alloc11collections5btree4node40NodeRef$LT$BorrowType$C$K$C$V$C$Type$GT$6ascend17h47449bbf6ded2bc6E', symObjAddr: 0x5590, symBinAddr: 0x3BC74, symSize: 0x17C }
  - { offset: 0x12239F, size: 0x8, addend: 0x0, symName: '__ZN5alloc11collections5btree4node40NodeRef$LT$BorrowType$C$K$C$V$C$Type$GT$6ascend17h93919168e16157c2E', symObjAddr: 0x570C, symBinAddr: 0x3BDF0, symSize: 0x17C }
  - { offset: 0x122641, size: 0x8, addend: 0x0, symName: '__ZN5alloc11collections5btree4node40NodeRef$LT$BorrowType$C$K$C$V$C$Type$GT$6ascend17hed5c45a10a833beeE', symObjAddr: 0x5888, symBinAddr: 0x3BF6C, symSize: 0x17C }
  - { offset: 0x1228E3, size: 0x8, addend: 0x0, symName: '__ZN5alloc11collections5btree4node40NodeRef$LT$BorrowType$C$K$C$V$C$Type$GT$6ascend17hfbe96e40bc0e6710E', symObjAddr: 0x5A04, symBinAddr: 0x3C0E8, symSize: 0x17C }
  - { offset: 0x122B52, size: 0x8, addend: 0x0, symName: '__ZN5alloc11collections5btree4node76NodeRef$LT$alloc..collections..btree..node..marker..Immut$C$K$C$V$C$Type$GT$4keys17h31b7cabb5f925229E', symObjAddr: 0x5B80, symBinAddr: 0x3C264, symSize: 0xA8 }
  - { offset: 0x122FCB, size: 0x8, addend: 0x0, symName: '__ZN5alloc11collections5btree6append178_$LT$impl$u20$alloc..collections..btree..node..NodeRef$LT$alloc..collections..btree..node..marker..Owned$C$K$C$V$C$alloc..collections..btree..node..marker..LeafOrInternal$GT$$GT$9bulk_push17hb858fb28736eea69E', symObjAddr: 0x5E48, symBinAddr: 0x3C52C, symSize: 0x53C }
  - { offset: 0x1235E3, size: 0x8, addend: 0x0, symName: '__ZN5alloc11collections5btree6search142_$LT$impl$u20$alloc..collections..btree..node..NodeRef$LT$BorrowType$C$K$C$V$C$alloc..collections..btree..node..marker..LeafOrInternal$GT$$GT$11search_tree17hdfd27fa0ff415554E', symObjAddr: 0x6384, symBinAddr: 0x3CA68, symSize: 0x240 }
  - { offset: 0x1238C0, size: 0x8, addend: 0x0, symName: '__ZN5alloc11collections5btree6search91_$LT$impl$u20$alloc..collections..btree..node..NodeRef$LT$BorrowType$C$K$C$V$C$Type$GT$$GT$14find_key_index17h9e1b710dd40f796dE', symObjAddr: 0x65C4, symBinAddr: 0x3CCA8, symSize: 0x1D4 }
  - { offset: 0x123D23, size: 0x8, addend: 0x0, symName: '__ZN5alloc11collections5btree8navigate142_$LT$impl$u20$alloc..collections..btree..node..NodeRef$LT$BorrowType$C$K$C$V$C$alloc..collections..btree..node..marker..LeafOrInternal$GT$$GT$14last_leaf_edge17h38c492c405aab8feE', symObjAddr: 0x6798, symBinAddr: 0x3CE7C, symSize: 0xEC }
  - { offset: 0x123FF8, size: 0x8, addend: 0x0, symName: '__ZN5alloc11collections5btree8navigate227_$LT$impl$u20$alloc..collections..btree..node..Handle$LT$alloc..collections..btree..node..NodeRef$LT$BorrowType$C$K$C$V$C$alloc..collections..btree..node..marker..Leaf$GT$$C$alloc..collections..btree..node..marker..Edge$GT$$GT$7next_kv17h51e4a0433d67aa54E', symObjAddr: 0x6884, symBinAddr: 0x3CF68, symSize: 0x194 }
  - { offset: 0x124406, size: 0x8, addend: 0x0, symName: '__ZN5alloc11collections5btree8navigate235_$LT$impl$u20$alloc..collections..btree..node..Handle$LT$alloc..collections..btree..node..NodeRef$LT$BorrowType$C$K$C$V$C$alloc..collections..btree..node..marker..LeafOrInternal$GT$$C$alloc..collections..btree..node..marker..KV$GT$$GT$14next_leaf_edge17h3acdbee595e63160E', symObjAddr: 0x6A18, symBinAddr: 0x3D0FC, symSize: 0x210 }
  - { offset: 0x12488A, size: 0x8, addend: 0x0, symName: '__ZN5alloc11collections5btree8navigate235_$LT$impl$u20$alloc..collections..btree..node..Handle$LT$alloc..collections..btree..node..NodeRef$LT$BorrowType$C$K$C$V$C$alloc..collections..btree..node..marker..LeafOrInternal$GT$$C$alloc..collections..btree..node..marker..KV$GT$$GT$14next_leaf_edge17h6a27db662f91ccf5E', symObjAddr: 0x6C28, symBinAddr: 0x3D30C, symSize: 0x210 }
  - { offset: 0x124D0E, size: 0x8, addend: 0x0, symName: '__ZN5alloc11collections5btree8navigate235_$LT$impl$u20$alloc..collections..btree..node..Handle$LT$alloc..collections..btree..node..NodeRef$LT$BorrowType$C$K$C$V$C$alloc..collections..btree..node..marker..LeafOrInternal$GT$$C$alloc..collections..btree..node..marker..KV$GT$$GT$14next_leaf_edge17h6f2ec393ad7e3234E', symObjAddr: 0x6E38, symBinAddr: 0x3D51C, symSize: 0x210 }
  - { offset: 0x124FD8, size: 0x8, addend: 0x0, symName: '__ZN5alloc11collections5btree8navigate263_$LT$impl$u20$alloc..collections..btree..node..Handle$LT$alloc..collections..btree..node..NodeRef$LT$alloc..collections..btree..node..marker..Dying$C$K$C$V$C$alloc..collections..btree..node..marker..Leaf$GT$$C$alloc..collections..btree..node..marker..Edge$GT$$GT$16deallocating_end17h911e369edc031d7aE', symObjAddr: 0x7048, symBinAddr: 0x3D72C, symSize: 0xD4 }
  - { offset: 0x1250FD, size: 0x8, addend: 0x0, symName: '__ZN5alloc11collections5btree8navigate263_$LT$impl$u20$alloc..collections..btree..node..Handle$LT$alloc..collections..btree..node..NodeRef$LT$alloc..collections..btree..node..marker..Dying$C$K$C$V$C$alloc..collections..btree..node..marker..Leaf$GT$$C$alloc..collections..btree..node..marker..Edge$GT$$GT$16deallocating_end17h9a285640979fb2daE', symObjAddr: 0x711C, symBinAddr: 0x3D800, symSize: 0xD4 }
  - { offset: 0x125364, size: 0x8, addend: 0x0, symName: '__ZN5alloc11collections5btree8navigate263_$LT$impl$u20$alloc..collections..btree..node..Handle$LT$alloc..collections..btree..node..NodeRef$LT$alloc..collections..btree..node..marker..Dying$C$K$C$V$C$alloc..collections..btree..node..marker..Leaf$GT$$C$alloc..collections..btree..node..marker..Edge$GT$$GT$17deallocating_next17h7aec0512ff4e8a33E', symObjAddr: 0x71F0, symBinAddr: 0x3D8D4, symSize: 0x254 }
  - { offset: 0x1256DA, size: 0x8, addend: 0x0, symName: '__ZN5alloc11collections5btree8navigate263_$LT$impl$u20$alloc..collections..btree..node..Handle$LT$alloc..collections..btree..node..NodeRef$LT$alloc..collections..btree..node..marker..Dying$C$K$C$V$C$alloc..collections..btree..node..marker..Leaf$GT$$C$alloc..collections..btree..node..marker..Edge$GT$$GT$17deallocating_next17hb82f0d54161487c9E', symObjAddr: 0x7444, symBinAddr: 0x3DB28, symSize: 0x254 }
  - { offset: 0x1258EC, size: 0x8, addend: 0x0, symName: __ZN4core5slice4sort6shared9smallsort11insert_tail17h04e8df82177cc5cdE, symObjAddr: 0x0, symBinAddr: 0x3DD7C, symSize: 0x1DC }
  - { offset: 0x126855, size: 0x8, addend: 0x0, symName: __ZN4core5slice4sort6shared9smallsort11insert_tail17h04e8df82177cc5cdE, symObjAddr: 0x0, symBinAddr: 0x3DD7C, symSize: 0x1DC }
  - { offset: 0x1269B0, size: 0x8, addend: 0x0, symName: __ZN4core5slice4sort6shared9smallsort11insert_tail17h4ecc8dcb5081f4a4E, symObjAddr: 0x1DC, symBinAddr: 0x3DF58, symSize: 0x1DC }
  - { offset: 0x126B0B, size: 0x8, addend: 0x0, symName: __ZN4core5slice4sort6shared9smallsort12sort4_stable17h47b82d6e7457d4fbE, symObjAddr: 0x3B8, symBinAddr: 0x3E134, symSize: 0x7DC }
  - { offset: 0x127DF0, size: 0x8, addend: 0x0, symName: __ZN4core5slice4sort6shared9smallsort12sort4_stable17he5c72ff073b25761E, symObjAddr: 0xB94, symBinAddr: 0x3E910, symSize: 0x7DC }
  - { offset: 0x1291B9, size: 0x8, addend: 0x0, symName: __ZN4core5slice4sort6shared9smallsort19bidirectional_merge17h6054242d6270fbc6E, symObjAddr: 0x1370, symBinAddr: 0x3F0EC, symSize: 0x59C }
  - { offset: 0x129965, size: 0x8, addend: 0x0, symName: __ZN4core5slice4sort6shared9smallsort19bidirectional_merge17hbfe2569091901173E, symObjAddr: 0x190C, symBinAddr: 0x3F688, symSize: 0x59C }
  - { offset: 0x12A02D, size: 0x8, addend: 0x0, symName: __ZN4core5slice4sort6shared9smallsort25insertion_sort_shift_left17h36a4278ddf1c2507E, symObjAddr: 0x1EA8, symBinAddr: 0x3FC24, symSize: 0xD0 }
  - { offset: 0x12A167, size: 0x8, addend: 0x0, symName: __ZN4core5slice4sort6shared9smallsort25insertion_sort_shift_left17hf5312dc76f2090b1E, symObjAddr: 0x1F78, symBinAddr: 0x3FCF4, symSize: 0xD0 }
  - { offset: 0x12A2A1, size: 0x8, addend: 0x0, symName: __ZN4core5slice4sort6shared9smallsort31small_sort_general_with_scratch17h4c46fe785a18b919E, symObjAddr: 0x2048, symBinAddr: 0x3FDC4, symSize: 0x500 }
  - { offset: 0x12A6E1, size: 0x8, addend: 0x0, symName: __ZN4core5slice4sort6shared9smallsort31small_sort_general_with_scratch17hbfb26ee0697fe3b5E, symObjAddr: 0x2548, symBinAddr: 0x402C4, symSize: 0x500 }
  - { offset: 0x12AB26, size: 0x8, addend: 0x0, symName: '__ZN99_$LT$core..slice..sort..shared..smallsort..CopyOnDrop$LT$T$GT$$u20$as$u20$core..ops..drop..Drop$GT$4drop17h4c0d7376df93eeddE', symObjAddr: 0x2A48, symBinAddr: 0x407C4, symSize: 0x8C }
  - { offset: 0x12B9D0, size: 0x8, addend: 0x0, symName: __ZN3nom5error10ParseError9from_char17h531f9cc0cef58a6bE, symObjAddr: 0x0, symBinAddr: 0x40850, symSize: 0x30 }
  - { offset: 0x12BB8C, size: 0x8, addend: 0x0, symName: __ZN3nom5error10ParseError9from_char17h531f9cc0cef58a6bE, symObjAddr: 0x0, symBinAddr: 0x40850, symSize: 0x30 }
  - { offset: 0x12BBDA, size: 0x8, addend: 0x0, symName: '__ZN58_$LT$nom..error..ErrorKind$u20$as$u20$core..fmt..Debug$GT$3fmt17ha8dd4d4a2039c306E', symObjAddr: 0x1D0C, symBinAddr: 0x4255C, symSize: 0x558 }
  - { offset: 0x12BC1D, size: 0x8, addend: 0x0, symName: '__ZN63_$LT$nom..error..Error$LT$I$GT$$u20$as$u20$core..fmt..Debug$GT$3fmt17he199346892b31b06E', symObjAddr: 0x2264, symBinAddr: 0x42AB4, symSize: 0x88 }
  - { offset: 0x12BC66, size: 0x8, addend: 0x0, symName: '__ZN78_$LT$nom..error..Error$LT$I$GT$$u20$as$u20$nom..error..ParseError$LT$I$GT$$GT$15from_error_kind17he68e2a0771b7f96dE', symObjAddr: 0x2A20, symBinAddr: 0x43270, symSize: 0x28 }
  - { offset: 0x12BCAF, size: 0x8, addend: 0x0, symName: '__ZN89_$LT$nom..error..Error$LT$I$GT$$u20$as$u20$nom..error..FromExternalError$LT$I$C$E$GT$$GT$19from_external_error17h4a25c67a88a89ea7E', symObjAddr: 0x2A48, symBinAddr: 0x43298, symSize: 0x40 }
  - { offset: 0x12BF8A, size: 0x8, addend: 0x0, symName: '__ZN63_$LT$zcash_address..AddressKind$u20$as$u20$core..fmt..Debug$GT$3fmt17h783e5df66e86ca82E', symObjAddr: 0x22EC, symBinAddr: 0x42B3C, symSize: 0x1D8 }
  - { offset: 0x12C078, size: 0x8, addend: 0x0, symName: '__ZN64_$LT$zcash_address..ZcashAddress$u20$as$u20$core..fmt..Debug$GT$3fmt17h23b1b7b5e4b11a38E', symObjAddr: 0x24C4, symBinAddr: 0x42D14, symSize: 0x88 }
  - { offset: 0x12C0B8, size: 0x8, addend: 0x0, symName: '__ZN65_$LT$zcash_address..AddressKind$u20$as$u20$core..clone..Clone$GT$5clone17h059b48b85f2884a4E', symObjAddr: 0x254C, symBinAddr: 0x42D9C, symSize: 0x224 }
  - { offset: 0x12C199, size: 0x8, addend: 0x0, symName: '__ZN66_$LT$zcash_address..ZcashAddress$u20$as$u20$core..clone..Clone$GT$5clone17hb78bcb92478557f4E', symObjAddr: 0x2770, symBinAddr: 0x42FC0, symSize: 0x60 }
  - { offset: 0x12CA1B, size: 0x8, addend: 0x0, symName: '__ZN42_$LT$$RF$T$u20$as$u20$core..fmt..Debug$GT$3fmt17hae2a878a1dc39bd6E', symObjAddr: 0x30, symBinAddr: 0x40880, symSize: 0x30 }
  - { offset: 0x12CA61, size: 0x8, addend: 0x0, symName: '__ZN42_$LT$$RF$T$u20$as$u20$core..fmt..Debug$GT$3fmt17hf9ea94a636e9e04dE', symObjAddr: 0x60, symBinAddr: 0x408B0, symSize: 0x30 }
  - { offset: 0x12CAA7, size: 0x8, addend: 0x0, symName: '__ZN42_$LT$$RF$T$u20$as$u20$core..fmt..Debug$GT$3fmt17hfe0e4a144ee7d453E', symObjAddr: 0x90, symBinAddr: 0x408E0, symSize: 0x30 }
  - { offset: 0x12CE20, size: 0x8, addend: 0x0, symName: '__ZN4core5array69_$LT$impl$u20$core..fmt..Debug$u20$for$u20$$u5b$T$u3b$$u20$N$u5d$$GT$3fmt17h7c08eaaffe1f4b41E', symObjAddr: 0xC0, symBinAddr: 0x40910, symSize: 0x58 }
  - { offset: 0x12CEB2, size: 0x8, addend: 0x0, symName: '__ZN4core5array69_$LT$impl$u20$core..fmt..Debug$u20$for$u20$$u5b$T$u3b$$u20$N$u5d$$GT$3fmt17hc6bd6b78ab2a9b53E', symObjAddr: 0x118, symBinAddr: 0x40968, symSize: 0x58 }
  - { offset: 0x12CF44, size: 0x8, addend: 0x0, symName: '__ZN4core5array69_$LT$impl$u20$core..fmt..Debug$u20$for$u20$$u5b$T$u3b$$u20$N$u5d$$GT$3fmt17hca84fef4c84ef630E', symObjAddr: 0x170, symBinAddr: 0x409C0, symSize: 0x58 }
  - { offset: 0x12D303, size: 0x8, addend: 0x0, symName: __ZN4core5slice4sort6stable14driftsort_main17h2fcd31a63e112012E, symObjAddr: 0x1C8, symBinAddr: 0x40A18, symSize: 0x28C }
  - { offset: 0x12D4AC, size: 0x8, addend: 0x0, symName: __ZN4core5slice4sort6stable14driftsort_main17h344f38df7d48dd30E, symObjAddr: 0x454, symBinAddr: 0x40CA4, symSize: 0x28C }
  - { offset: 0x12D6C7, size: 0x8, addend: 0x0, symName: __ZN4core5slice4sort6stable5drift10create_run17h2e1cc2e3520e7986E, symObjAddr: 0x764, symBinAddr: 0x40FB4, symSize: 0x438 }
  - { offset: 0x12DBD8, size: 0x8, addend: 0x0, symName: __ZN4core5slice4sort6stable5drift10create_run17h553005afb84d7af4E, symObjAddr: 0xB9C, symBinAddr: 0x413EC, symSize: 0x438 }
  - { offset: 0x12E0E9, size: 0x8, addend: 0x0, symName: __ZN4core5slice4sort6stable5drift16stable_quicksort17h67dadb010672bbe7E, symObjAddr: 0xFD4, symBinAddr: 0x41824, symSize: 0xB4 }
  - { offset: 0x12E223, size: 0x8, addend: 0x0, symName: __ZN4core5slice4sort6stable5drift16stable_quicksort17h7c4f82d5ce2e9ef8E, symObjAddr: 0x1088, symBinAddr: 0x418D8, symSize: 0xB4 }
  - { offset: 0x12E448, size: 0x8, addend: 0x0, symName: __ZN4core5slice4sort6stable5drift4sort17h5bbd57c1b3de19dbE, symObjAddr: 0x113C, symBinAddr: 0x4198C, symSize: 0x5C4 }
  - { offset: 0x12ECBD, size: 0x8, addend: 0x0, symName: __ZN4core5slice4sort6stable5drift4sort17hcb319224e727f8f7E, symObjAddr: 0x1700, symBinAddr: 0x41F50, symSize: 0x5C4 }
  - { offset: 0x1300D1, size: 0x8, addend: 0x0, symName: '__ZN51_$LT$T$u20$as$u20$core..clone..uninit..CopySpec$GT$9clone_one17h1b57aa5adeb08044E', symObjAddr: 0x1CC4, symBinAddr: 0x42514, symSize: 0x48 }
  - { offset: 0x130180, size: 0x8, addend: 0x0, symName: '__ZN75_$LT$zcash_protocol..consensus..NetworkType$u20$as$u20$core..fmt..Debug$GT$3fmt17h551aa84fcfcd00f9E', symObjAddr: 0x2964, symBinAddr: 0x431B4, symSize: 0xA4 }
  - { offset: 0x1301C0, size: 0x8, addend: 0x0, symName: '__ZN77_$LT$zcash_protocol..consensus..NetworkType$u20$as$u20$core..clone..Clone$GT$5clone17hcfb339322dc8c1c0E', symObjAddr: 0x2A08, symBinAddr: 0x43258, symSize: 0x18 }
  - { offset: 0x1302C1, size: 0x8, addend: 0x0, symName: __ZN6base646encode19encode_with_padding17h1c4ce69de48587a8E, symObjAddr: 0x27D0, symBinAddr: 0x43020, symSize: 0x194 }
  - { offset: 0x130621, size: 0x8, addend: 0x0, symName: '__ZN4core5slice4sort6stable27AlignedStorage$LT$T$C$_$GT$19as_uninit_slice_mut17h7772c66d472a74d3E', symObjAddr: 0x6E0, symBinAddr: 0x40F30, symSize: 0x84 }
  - { offset: 0x130BFF, size: 0x8, addend: 0x0, symName: '__ZN42_$LT$$RF$T$u20$as$u20$core..fmt..Debug$GT$3fmt17h43dfcb6bc391d101E', symObjAddr: 0x0, symBinAddr: 0x432D8, symSize: 0x30 }
  - { offset: 0x130C83, size: 0x8, addend: 0x0, symName: '__ZN68_$LT$zcash_protocol..value..Zatoshis$u20$as$u20$core..fmt..Debug$GT$3fmt17hd6c096a73a3f101aE', symObjAddr: 0x1F3C, symBinAddr: 0x45214, symSize: 0x54 }
  - { offset: 0x130CF4, size: 0x8, addend: 0x0, symName: '__ZN42_$LT$$RF$T$u20$as$u20$core..fmt..Debug$GT$3fmt17h43dfcb6bc391d101E', symObjAddr: 0x0, symBinAddr: 0x432D8, symSize: 0x30 }
  - { offset: 0x130D3A, size: 0x8, addend: 0x0, symName: '__ZN42_$LT$$RF$T$u20$as$u20$core..fmt..Debug$GT$3fmt17h7cda78cb68cae78aE', symObjAddr: 0x30, symBinAddr: 0x43308, symSize: 0x30 }
  - { offset: 0x130D80, size: 0x8, addend: 0x0, symName: '__ZN42_$LT$$RF$T$u20$as$u20$core..fmt..Debug$GT$3fmt17h9f7b3f8078cb0bbaE', symObjAddr: 0x60, symBinAddr: 0x43338, symSize: 0x30 }
  - { offset: 0x130DC6, size: 0x8, addend: 0x0, symName: '__ZN42_$LT$$RF$T$u20$as$u20$core..fmt..Debug$GT$3fmt17haf1b8ab4da9bf58fE', symObjAddr: 0x90, symBinAddr: 0x43368, symSize: 0x30 }
  - { offset: 0x130E0C, size: 0x8, addend: 0x0, symName: '__ZN42_$LT$$RF$T$u20$as$u20$core..fmt..Debug$GT$3fmt17hf768d541110c862aE', symObjAddr: 0xC0, symBinAddr: 0x43398, symSize: 0x30 }
  - { offset: 0x130E58, size: 0x8, addend: 0x0, symName: '__ZN44_$LT$$RF$T$u20$as$u20$core..fmt..Display$GT$3fmt17h0b40deabdef3efddE', symObjAddr: 0xF0, symBinAddr: 0x433C8, symSize: 0x30 }
  - { offset: 0x131BA5, size: 0x8, addend: 0x0, symName: '__ZN75_$LT$core..num..nonzero..NonZero$LT$T$GT$$u20$as$u20$core..fmt..Display$GT$3fmt17hdc654e0f96fa62dcE', symObjAddr: 0x1F90, symBinAddr: 0x45268, symSize: 0x3C }
  - { offset: 0x1321EF, size: 0x8, addend: 0x0, symName: __ZN4core5slice4sort6stable9quicksort16stable_partition17h05fff5dec9ae2e45E, symObjAddr: 0x2E4, symBinAddr: 0x435BC, symSize: 0x4BC }
  - { offset: 0x132633, size: 0x8, addend: 0x0, symName: __ZN4core5slice4sort6stable9quicksort16stable_partition17h20ce01c6c0871087E, symObjAddr: 0x7A0, symBinAddr: 0x43A78, symSize: 0x4BC }
  - { offset: 0x132A77, size: 0x8, addend: 0x0, symName: __ZN4core5slice4sort6stable9quicksort16stable_partition17h62adec0a8e73dcddE, symObjAddr: 0xC5C, symBinAddr: 0x43F34, symSize: 0x4BC }
  - { offset: 0x132EBB, size: 0x8, addend: 0x0, symName: __ZN4core5slice4sort6stable9quicksort16stable_partition17hee0eafb55e58e833E, symObjAddr: 0x1118, symBinAddr: 0x443F0, symSize: 0x4BC }
  - { offset: 0x1332FF, size: 0x8, addend: 0x0, symName: __ZN4core5slice4sort6stable9quicksort9quicksort17h2d7a94304ad06494E, symObjAddr: 0x1714, symBinAddr: 0x449EC, symSize: 0x3CC }
  - { offset: 0x1335AC, size: 0x8, addend: 0x0, symName: __ZN4core5slice4sort6stable9quicksort9quicksort17h4cd57d8e01e5c914E, symObjAddr: 0x1AE0, symBinAddr: 0x44DB8, symSize: 0x3CC }
  - { offset: 0x133844, size: 0x8, addend: 0x0, symName: '__ZN4core5slice4sort6stable9quicksort9quicksort28_$u7b$$u7b$closure$u7d$$u7d$17h9079dced40828202E', symObjAddr: 0x1EAC, symBinAddr: 0x45184, symSize: 0x48 }
  - { offset: 0x1338A1, size: 0x8, addend: 0x0, symName: '__ZN4core5slice4sort6stable9quicksort9quicksort28_$u7b$$u7b$closure$u7d$$u7d$17ha853e4d7831df140E', symObjAddr: 0x1EF4, symBinAddr: 0x451CC, symSize: 0x48 }
  - { offset: 0x133D78, size: 0x8, addend: 0x0, symName: '__ZN4core3fmt2rt38_$LT$impl$u20$core..fmt..Arguments$GT$16new_v1_formatted17hb626e88590e4ea09E', symObjAddr: 0x120, symBinAddr: 0x433F8, symSize: 0x48 }
  - { offset: 0x133E14, size: 0x8, addend: 0x0, symName: __ZN4core3fmt9Formatter9write_fmt17he4343f2c25c93f88E, symObjAddr: 0x168, symBinAddr: 0x43440, symSize: 0x17C }
  - { offset: 0x134574, size: 0x8, addend: 0x0, symName: '__ZN4core5slice4sort6stable9quicksort23PartitionState$LT$T$GT$13partition_one17hb6036faec1e79f9fE', symObjAddr: 0x15D4, symBinAddr: 0x448AC, symSize: 0x140 }
  - { offset: 0x134822, size: 0x8, addend: 0x0, symName: '__ZN111_$LT$alloc..vec..Vec$LT$T$GT$$u20$as$u20$alloc..vec..spec_from_iter_nested..SpecFromIterNested$LT$T$C$I$GT$$GT$9from_iter17h29708f1c49203d49E', symObjAddr: 0x0, symBinAddr: 0x452A4, symSize: 0x294 }
  - { offset: 0x13677F, size: 0x8, addend: 0x0, symName: '__ZN42_$LT$$RF$T$u20$as$u20$core..fmt..Debug$GT$3fmt17h2f69261eb63a63b5E', symObjAddr: 0x81C, symBinAddr: 0x45AC0, symSize: 0x30 }
  - { offset: 0x1367C5, size: 0x8, addend: 0x0, symName: '__ZN42_$LT$$RF$T$u20$as$u20$core..fmt..Debug$GT$3fmt17h549838602eb867a2E', symObjAddr: 0x84C, symBinAddr: 0x45AF0, symSize: 0x30 }
  - { offset: 0x136915, size: 0x8, addend: 0x0, symName: '__ZN49_$LT$usize$u20$as$u20$core..iter..range..Step$GT$17forward_unchecked17h8e39fcfc5b6e6f13E', symObjAddr: 0x87C, symBinAddr: 0x45B20, symSize: 0x50 }
  - { offset: 0x136C90, size: 0x8, addend: 0x0, symName: __ZN4core5alloc6layout6Layout25from_size_align_unchecked18precondition_check17h7f89600d6446168bE, symObjAddr: 0x8CC, symBinAddr: 0x45B70, symSize: 0xBC }
  - { offset: 0x1373FE, size: 0x8, addend: 0x0, symName: '__ZN111_$LT$alloc..vec..Vec$LT$T$GT$$u20$as$u20$alloc..vec..spec_from_iter_nested..SpecFromIterNested$LT$T$C$I$GT$$GT$9from_iter17h29708f1c49203d49E', symObjAddr: 0x0, symBinAddr: 0x452A4, symSize: 0x294 }
  - { offset: 0x1376B8, size: 0x8, addend: 0x0, symName: '__ZN111_$LT$alloc..vec..Vec$LT$T$GT$$u20$as$u20$alloc..vec..spec_from_iter_nested..SpecFromIterNested$LT$T$C$I$GT$$GT$9from_iter17hb31d1c8432f17672E', symObjAddr: 0x418, symBinAddr: 0x456BC, symSize: 0x280 }
  - { offset: 0x137978, size: 0x8, addend: 0x0, symName: '__ZN111_$LT$alloc..vec..Vec$LT$T$GT$$u20$as$u20$alloc..vec..spec_from_iter_nested..SpecFromIterNested$LT$T$C$I$GT$$GT$9from_iter17h9454b4a462a526b4E', symObjAddr: 0x294, symBinAddr: 0x45538, symSize: 0x184 }
  - { offset: 0x137A4F, size: 0x8, addend: 0x0, symName: '__ZN111_$LT$alloc..vec..Vec$LT$T$GT$$u20$as$u20$alloc..vec..spec_from_iter_nested..SpecFromIterNested$LT$T$C$I$GT$$GT$9from_iter17hcf3cd25947ac5590E', symObjAddr: 0x698, symBinAddr: 0x4593C, symSize: 0x184 }
  - { offset: 0x138080, size: 0x8, addend: 0x0, symName: '__ZN5alloc3vec16Vec$LT$T$C$A$GT$14extend_trusted28_$u7b$$u7b$closure$u7d$$u7d$17h4a70503f7c5e3a79E', symObjAddr: 0xCE8, symBinAddr: 0x45F8C, symSize: 0x44 }
  - { offset: 0x13812D, size: 0x8, addend: 0x0, symName: '__ZN5alloc3vec16Vec$LT$T$C$A$GT$14extend_trusted28_$u7b$$u7b$closure$u7d$$u7d$17hc526b335d4c8566eE', symObjAddr: 0xD2C, symBinAddr: 0x45FD0, symSize: 0x54 }
  - { offset: 0x138361, size: 0x8, addend: 0x0, symName: '__ZN5alloc3vec16Vec$LT$T$C$A$GT$17from_raw_parts_in18precondition_check17h00990cba6e22f81cE', symObjAddr: 0x1238, symBinAddr: 0x464DC, symSize: 0xAC }
  - { offset: 0x1383CF, size: 0x8, addend: 0x0, symName: '__ZN5alloc3vec16Vec$LT$T$C$A$GT$7set_len18precondition_check17h0a7f5e4053295099E', symObjAddr: 0x1578, symBinAddr: 0x4681C, symSize: 0xAC }
  - { offset: 0x1384C6, size: 0x8, addend: 0x0, symName: '__ZN5alloc3vec16in_place_collect108_$LT$impl$u20$alloc..vec..spec_from_iter..SpecFromIter$LT$T$C$I$GT$$u20$for$u20$alloc..vec..Vec$LT$T$GT$$GT$9from_iter17h3b8787c2e9bddcb5E', symObjAddr: 0x1ADC, symBinAddr: 0x46D80, symSize: 0x28 }
  - { offset: 0x138524, size: 0x8, addend: 0x0, symName: __ZN5alloc3vec9from_elem17he93a25ef7fbebba0E, symObjAddr: 0x1B04, symBinAddr: 0x46DA8, symSize: 0x24 }
  - { offset: 0x1385FF, size: 0x8, addend: 0x0, symName: '__ZN72_$LT$alloc..vec..Vec$LT$T$C$A$GT$$u20$as$u20$core..ops..deref..Deref$GT$5deref17h63a282c7fb0c8071E', symObjAddr: 0x1F30, symBinAddr: 0x471D4, symSize: 0x24 }
  - { offset: 0x13863F, size: 0x8, addend: 0x0, symName: '__ZN72_$LT$alloc..vec..Vec$LT$T$C$A$GT$$u20$as$u20$core..ops..deref..Deref$GT$5deref17hb090f06fe915c381E', symObjAddr: 0x1F54, symBinAddr: 0x471F8, symSize: 0x24 }
  - { offset: 0x13867F, size: 0x8, addend: 0x0, symName: '__ZN72_$LT$alloc..vec..Vec$LT$T$C$A$GT$$u20$as$u20$core..ops..deref..Deref$GT$5deref17hd5c7ea12e54c02c5E', symObjAddr: 0x1F78, symBinAddr: 0x4721C, symSize: 0x24 }
  - { offset: 0x1386C5, size: 0x8, addend: 0x0, symName: '__ZN65_$LT$alloc..vec..Vec$LT$T$C$A$GT$$u20$as$u20$core..fmt..Debug$GT$3fmt17h22883186af5817dcE', symObjAddr: 0x1C48, symBinAddr: 0x46EEC, symSize: 0x7C }
  - { offset: 0x1387DB, size: 0x8, addend: 0x0, symName: '__ZN67_$LT$alloc..vec..Vec$LT$T$C$A$GT$$u20$as$u20$core..clone..Clone$GT$5clone17h49aa67007c48dbfdE', symObjAddr: 0x1CC4, symBinAddr: 0x46F68, symSize: 0x90 }
  - { offset: 0x1389AC, size: 0x8, addend: 0x0, symName: '__ZN67_$LT$alloc..vec..Vec$LT$T$C$A$GT$$u20$as$u20$core..clone..Clone$GT$5clone17hdfb05ac899b6925fE', symObjAddr: 0x1D54, symBinAddr: 0x46FF8, symSize: 0x8C }
  - { offset: 0x138B83, size: 0x8, addend: 0x0, symName: '__ZN70_$LT$alloc..vec..Vec$LT$T$C$A$GT$$u20$as$u20$core..ops..drop..Drop$GT$4drop17h48ef2631fac1debeE', symObjAddr: 0x1DE0, symBinAddr: 0x47084, symSize: 0x38 }
  - { offset: 0x138C33, size: 0x8, addend: 0x0, symName: '__ZN70_$LT$alloc..vec..Vec$LT$T$C$A$GT$$u20$as$u20$core..ops..drop..Drop$GT$4drop17h707db7de3d057c61E', symObjAddr: 0x1E18, symBinAddr: 0x470BC, symSize: 0x38 }
  - { offset: 0x138CE3, size: 0x8, addend: 0x0, symName: '__ZN70_$LT$alloc..vec..Vec$LT$T$C$A$GT$$u20$as$u20$core..ops..drop..Drop$GT$4drop17hd43066804bcc9eb3E', symObjAddr: 0x1E50, symBinAddr: 0x470F4, symSize: 0x38 }
  - { offset: 0x138D93, size: 0x8, addend: 0x0, symName: '__ZN70_$LT$alloc..vec..Vec$LT$T$C$A$GT$$u20$as$u20$core..ops..drop..Drop$GT$4drop17hd95c3f3362db717dE', symObjAddr: 0x1E88, symBinAddr: 0x4712C, symSize: 0x38 }
  - { offset: 0x138E43, size: 0x8, addend: 0x0, symName: '__ZN70_$LT$alloc..vec..Vec$LT$T$C$A$GT$$u20$as$u20$core..ops..drop..Drop$GT$4drop17he85ee831f02a182bE', symObjAddr: 0x1EC0, symBinAddr: 0x47164, symSize: 0x38 }
  - { offset: 0x138EF3, size: 0x8, addend: 0x0, symName: '__ZN70_$LT$alloc..vec..Vec$LT$T$C$A$GT$$u20$as$u20$core..ops..drop..Drop$GT$4drop17hea33aeec8877c032E', symObjAddr: 0x1EF8, symBinAddr: 0x4719C, symSize: 0x38 }
  - { offset: 0x138FA9, size: 0x8, addend: 0x0, symName: '__ZN90_$LT$alloc..vec..Vec$LT$T$C$A$GT$$u20$as$u20$core..iter..traits..collect..IntoIterator$GT$9into_iter17h254dae6dca556403E', symObjAddr: 0x2008, symBinAddr: 0x47240, symSize: 0xE4 }
  - { offset: 0x13923B, size: 0x8, addend: 0x0, symName: '__ZN90_$LT$alloc..vec..Vec$LT$T$C$A$GT$$u20$as$u20$core..iter..traits..collect..IntoIterator$GT$9into_iter17hbc54215442e6a349E', symObjAddr: 0x20EC, symBinAddr: 0x47324, symSize: 0xE4 }
  - { offset: 0x1394CD, size: 0x8, addend: 0x0, symName: '__ZN90_$LT$alloc..vec..Vec$LT$T$C$A$GT$$u20$as$u20$core..iter..traits..collect..IntoIterator$GT$9into_iter17hc5da06e11beb47ecE', symObjAddr: 0x21D0, symBinAddr: 0x47408, symSize: 0xE4 }
  - { offset: 0x13975F, size: 0x8, addend: 0x0, symName: '__ZN90_$LT$alloc..vec..Vec$LT$T$C$A$GT$$u20$as$u20$core..iter..traits..collect..IntoIterator$GT$9into_iter17hcaef50eb8cbf2700E', symObjAddr: 0x22B4, symBinAddr: 0x474EC, symSize: 0xE4 }
  - { offset: 0x1399F7, size: 0x8, addend: 0x0, symName: '__ZN95_$LT$alloc..vec..Vec$LT$T$GT$$u20$as$u20$core..iter..traits..collect..FromIterator$LT$T$GT$$GT$9from_iter17h38f80b29a95cf17cE', symObjAddr: 0x2398, symBinAddr: 0x475D0, symSize: 0x3C }
  - { offset: 0x139A38, size: 0x8, addend: 0x0, symName: '__ZN95_$LT$alloc..vec..Vec$LT$T$GT$$u20$as$u20$core..iter..traits..collect..FromIterator$LT$T$GT$$GT$9from_iter17h4e86c97112a2bb1eE', symObjAddr: 0x23D4, symBinAddr: 0x4760C, symSize: 0x44 }
  - { offset: 0x139A79, size: 0x8, addend: 0x0, symName: '__ZN95_$LT$alloc..vec..Vec$LT$T$GT$$u20$as$u20$core..iter..traits..collect..FromIterator$LT$T$GT$$GT$9from_iter17h784ed128a02e87a1E', symObjAddr: 0x2418, symBinAddr: 0x47650, symSize: 0x3C }
  - { offset: 0x139ABA, size: 0x8, addend: 0x0, symName: '__ZN95_$LT$alloc..vec..Vec$LT$T$GT$$u20$as$u20$core..iter..traits..collect..FromIterator$LT$T$GT$$GT$9from_iter17hec594ec42b874c09E', symObjAddr: 0x2454, symBinAddr: 0x4768C, symSize: 0x3C }
  - { offset: 0x139B06, size: 0x8, addend: 0x0, symName: '__ZN97_$LT$alloc..vec..Vec$LT$T$C$A$GT$$u20$as$u20$alloc..vec..spec_extend..SpecExtend$LT$T$C$I$GT$$GT$11spec_extend17h47cf03525c6f2a48E', symObjAddr: 0x2490, symBinAddr: 0x476C8, symSize: 0x24 }
  - { offset: 0x139B58, size: 0x8, addend: 0x0, symName: '__ZN97_$LT$alloc..vec..Vec$LT$T$C$A$GT$$u20$as$u20$alloc..vec..spec_extend..SpecExtend$LT$T$C$I$GT$$GT$11spec_extend17hc2124b80bc25b16bE', symObjAddr: 0x24D8, symBinAddr: 0x47710, symSize: 0x24 }
  - { offset: 0x139BB0, size: 0x8, addend: 0x0, symName: '__ZN97_$LT$alloc..vec..Vec$LT$T$C$A$GT$$u20$as$u20$alloc..vec..spec_extend..SpecExtend$LT$T$C$I$GT$$GT$11spec_extend17h4d3d0782722d9880E', symObjAddr: 0x24B4, symBinAddr: 0x476EC, symSize: 0x24 }
  - { offset: 0x139C02, size: 0x8, addend: 0x0, symName: '__ZN97_$LT$alloc..vec..Vec$LT$T$C$A$GT$$u20$as$u20$alloc..vec..spec_extend..SpecExtend$LT$T$C$I$GT$$GT$11spec_extend17hfcfb7884cf7686d7E', symObjAddr: 0x24FC, symBinAddr: 0x47734, symSize: 0x24 }
  - { offset: 0x139C60, size: 0x8, addend: 0x0, symName: '__ZN98_$LT$alloc..vec..Vec$LT$T$GT$$u20$as$u20$alloc..vec..spec_from_iter..SpecFromIter$LT$T$C$I$GT$$GT$9from_iter17h2d647152c3f3a2f2E', symObjAddr: 0x2520, symBinAddr: 0x47758, symSize: 0x14 }
  - { offset: 0x139C9F, size: 0x8, addend: 0x0, symName: '__ZN98_$LT$alloc..vec..Vec$LT$T$GT$$u20$as$u20$alloc..vec..spec_from_iter..SpecFromIter$LT$T$C$I$GT$$GT$9from_iter17h94590b5703d0a75aE', symObjAddr: 0x2534, symBinAddr: 0x4776C, symSize: 0x14 }
  - { offset: 0x139CDE, size: 0x8, addend: 0x0, symName: '__ZN98_$LT$alloc..vec..Vec$LT$T$GT$$u20$as$u20$alloc..vec..spec_from_iter..SpecFromIter$LT$T$C$I$GT$$GT$9from_iter17hf0bd683b3404435bE', symObjAddr: 0x2548, symBinAddr: 0x47780, symSize: 0x14 }
  - { offset: 0x13AC2C, size: 0x8, addend: 0x0, symName: '__ZN5alloc5slice99_$LT$impl$u20$core..slice..sort..stable..BufGuard$LT$T$GT$$u20$for$u20$alloc..vec..Vec$LT$T$GT$$GT$13with_capacity17h2c920944de2b07f0E', symObjAddr: 0x1B28, symBinAddr: 0x46DCC, symSize: 0x4C }
  - { offset: 0x13ACCD, size: 0x8, addend: 0x0, symName: '__ZN5alloc5slice99_$LT$impl$u20$core..slice..sort..stable..BufGuard$LT$T$GT$$u20$for$u20$alloc..vec..Vec$LT$T$GT$$GT$19as_uninit_slice_mut17ha23e382e3c355c18E', symObjAddr: 0x1B74, symBinAddr: 0x46E18, symSize: 0xD4 }
  - { offset: 0x13BB3D, size: 0x8, addend: 0x0, symName: '__ZN5alloc3vec12Vec$LT$T$GT$3new17h242378b1b7273359E', symObjAddr: 0x988, symBinAddr: 0x45C2C, symSize: 0x14 }
  - { offset: 0x13BB74, size: 0x8, addend: 0x0, symName: '__ZN5alloc3vec12Vec$LT$T$GT$3new17h722b86e5f007f91bE', symObjAddr: 0x99C, symBinAddr: 0x45C40, symSize: 0x14 }
  - { offset: 0x13BCA7, size: 0x8, addend: 0x0, symName: '__ZN5alloc3vec16Vec$LT$T$C$A$GT$14extend_trusted17h19ddf2b604f4422aE', symObjAddr: 0x9B0, symBinAddr: 0x45C54, symSize: 0x19C }
  - { offset: 0x13BF6B, size: 0x8, addend: 0x0, symName: '__ZN5alloc3vec16Vec$LT$T$C$A$GT$14extend_trusted17h9f471abf49e571a5E', symObjAddr: 0xB4C, symBinAddr: 0x45DF0, symSize: 0x19C }
  - { offset: 0x13C368, size: 0x8, addend: 0x0, symName: '__ZN5alloc3vec16Vec$LT$T$C$A$GT$16extend_desugared17h1578c2ff4d364d2bE', symObjAddr: 0xD80, symBinAddr: 0x46024, symSize: 0x1FC }
  - { offset: 0x13C8B4, size: 0x8, addend: 0x0, symName: '__ZN5alloc3vec16Vec$LT$T$C$A$GT$16extend_desugared17h988209de9367b573E', symObjAddr: 0xF7C, symBinAddr: 0x46220, symSize: 0x214 }
  - { offset: 0x13CC5E, size: 0x8, addend: 0x0, symName: '__ZN5alloc3vec16Vec$LT$T$C$A$GT$17from_raw_parts_in17h0baf05240a77a633E', symObjAddr: 0x1190, symBinAddr: 0x46434, symSize: 0xA8 }
  - { offset: 0x13CE03, size: 0x8, addend: 0x0, symName: '__ZN5alloc3vec16Vec$LT$T$C$A$GT$3len17hf3df2b084717b201E', symObjAddr: 0x12E4, symBinAddr: 0x46588, symSize: 0x18 }
  - { offset: 0x13CE45, size: 0x8, addend: 0x0, symName: '__ZN5alloc3vec16Vec$LT$T$C$A$GT$4push17haa748a4c3009752dE', symObjAddr: 0x12FC, symBinAddr: 0x465A0, symSize: 0x24 }
  - { offset: 0x13CE97, size: 0x8, addend: 0x0, symName: '__ZN5alloc3vec16Vec$LT$T$C$A$GT$4push17hb0231418f78d4f76E', symObjAddr: 0x1320, symBinAddr: 0x465C4, symSize: 0x24 }
  - { offset: 0x13CEE9, size: 0x8, addend: 0x0, symName: '__ZN5alloc3vec16Vec$LT$T$C$A$GT$4push17hdb3597eea78d67a3E', symObjAddr: 0x1344, symBinAddr: 0x465E8, symSize: 0x24 }
  - { offset: 0x13D065, size: 0x8, addend: 0x0, symName: '__ZN5alloc3vec16Vec$LT$T$C$A$GT$7reserve17h007e3aeb0df63f2eE', symObjAddr: 0x1368, symBinAddr: 0x4660C, symSize: 0xC8 }
  - { offset: 0x13D2E2, size: 0x8, addend: 0x0, symName: '__ZN5alloc3vec16Vec$LT$T$C$A$GT$7reserve17h6cb9c52d5ac7c07bE', symObjAddr: 0x1430, symBinAddr: 0x466D4, symSize: 0xC8 }
  - { offset: 0x13D4F4, size: 0x8, addend: 0x0, symName: '__ZN5alloc3vec16Vec$LT$T$C$A$GT$7set_len17hf2f6725995e2bba2E', symObjAddr: 0x14F8, symBinAddr: 0x4679C, symSize: 0x80 }
  - { offset: 0x13D69D, size: 0x8, addend: 0x0, symName: '__ZN5alloc3vec16Vec$LT$T$C$A$GT$8as_slice17h14798e3fde996ee4E', symObjAddr: 0x1624, symBinAddr: 0x468C8, symSize: 0x6C }
  - { offset: 0x13D7EE, size: 0x8, addend: 0x0, symName: '__ZN5alloc3vec16Vec$LT$T$C$A$GT$8as_slice17hd21557eaa39a222eE', symObjAddr: 0x1690, symBinAddr: 0x46934, symSize: 0x6C }
  - { offset: 0x13D966, size: 0x8, addend: 0x0, symName: '__ZN5alloc3vec16Vec$LT$T$C$A$GT$8as_slice17he25a626c6f8b5102E', symObjAddr: 0x16FC, symBinAddr: 0x469A0, symSize: 0x6C }
  - { offset: 0x13DA45, size: 0x8, addend: 0x0, symName: '__ZN5alloc3vec16Vec$LT$T$C$A$GT$8is_empty17he6ac2c3032fb2a4fE', symObjAddr: 0x1768, symBinAddr: 0x46A0C, symSize: 0x20 }
  - { offset: 0x13DB84, size: 0x8, addend: 0x0, symName: '__ZN5alloc3vec16Vec$LT$T$C$A$GT$8push_mut17h48f7fddc7a33af02E', symObjAddr: 0x1788, symBinAddr: 0x46A2C, symSize: 0x11C }
  - { offset: 0x13DE25, size: 0x8, addend: 0x0, symName: '__ZN5alloc3vec16Vec$LT$T$C$A$GT$8push_mut17haca7c5fe677463d9E', symObjAddr: 0x18A4, symBinAddr: 0x46B48, symSize: 0x11C }
  - { offset: 0x13E0ED, size: 0x8, addend: 0x0, symName: '__ZN5alloc3vec16Vec$LT$T$C$A$GT$8push_mut17hdc9c888c3b905619E', symObjAddr: 0x19C0, symBinAddr: 0x46C64, symSize: 0x11C }
  - { offset: 0x13EFE6, size: 0x8, addend: 0x0, symName: '__ZN185_$LT$core..ops..control_flow..ControlFlow$LT$B$C$C$GT$$u20$as$u20$core..ops..try_trait..FromResidual$LT$core..ops..control_flow..ControlFlow$LT$B$C$core..convert..Infallible$GT$$GT$$GT$13from_residual17h25c0d3fc6e734cefE', symObjAddr: 0x0, symBinAddr: 0x47794, symSize: 0x48 }
  - { offset: 0x13F3CB, size: 0x8, addend: 0x0, symName: '__ZN4core3num21_$LT$impl$u20$u64$GT$11checked_add17h172f36ba752cfb3eE', symObjAddr: 0x280, symBinAddr: 0x479A8, symSize: 0x7C }
  - { offset: 0x13F450, size: 0x8, addend: 0x0, symName: '__ZN4core3num21_$LT$impl$u20$u64$GT$11checked_mul17h9cb9ec08fe75dad7E', symObjAddr: 0x2FC, symBinAddr: 0x47A24, symSize: 0x74 }
  - { offset: 0x13F5FB, size: 0x8, addend: 0x0, symName: '__ZN4core3num21_$LT$impl$u20$u64$GT$16from_ascii_radix17h1233fa3a9c5a48afE', symObjAddr: 0x370, symBinAddr: 0x47A98, symSize: 0x57C }
  - { offset: 0x13F874, size: 0x8, addend: 0x0, symName: '__ZN4core3num23_$LT$impl$u20$usize$GT$11checked_add17h4963bb07cdf5369eE', symObjAddr: 0x8EC, symBinAddr: 0x48014, symSize: 0x7C }
  - { offset: 0x13F8FE, size: 0x8, addend: 0x0, symName: '__ZN4core3num23_$LT$impl$u20$usize$GT$13unchecked_add18precondition_check17ha457dd784aa75f17E', symObjAddr: 0x968, symBinAddr: 0x48090, symSize: 0xB0 }
  - { offset: 0x13FA89, size: 0x8, addend: 0x0, symName: '__ZN4core3num23_$LT$impl$u20$usize$GT$16from_ascii_radix17hbe50d17392a9b7bdE', symObjAddr: 0xA18, symBinAddr: 0x48140, symSize: 0x57C }
  - { offset: 0x13FD02, size: 0x8, addend: 0x0, symName: '__ZN4core3num60_$LT$impl$u20$core..str..traits..FromStr$u20$for$u20$u64$GT$8from_str17h89bfef58f7d3d1f4E', symObjAddr: 0xF94, symBinAddr: 0x486BC, symSize: 0x30 }
  - { offset: 0x13FD5C, size: 0x8, addend: 0x0, symName: '__ZN4core3num62_$LT$impl$u20$core..str..traits..FromStr$u20$for$u20$usize$GT$8from_str17h929b8149172d166eE', symObjAddr: 0xFC4, symBinAddr: 0x486EC, symSize: 0x30 }
  - { offset: 0x1400AE, size: 0x8, addend: 0x0, symName: '__ZN4core3ptr8non_null16NonNull$LT$T$GT$13new_unchecked18precondition_check17h32af53538734aee4E', symObjAddr: 0x1024, symBinAddr: 0x4874C, symSize: 0xA4 }
  - { offset: 0x140E24, size: 0x8, addend: 0x0, symName: '__ZN4core3ptr9const_ptr33_$LT$impl$u20$$BP$const$u20$T$GT$20offset_from_unsigned18precondition_check17hf94e17e4b153fa4fE', symObjAddr: 0x13B0, symBinAddr: 0x48AD8, symSize: 0xAC }
  - { offset: 0x140E9F, size: 0x8, addend: 0x0, symName: '__ZN185_$LT$core..ops..control_flow..ControlFlow$LT$B$C$C$GT$$u20$as$u20$core..ops..try_trait..FromResidual$LT$core..ops..control_flow..ControlFlow$LT$B$C$core..convert..Infallible$GT$$GT$$GT$13from_residual17h25c0d3fc6e734cefE', symObjAddr: 0x0, symBinAddr: 0x47794, symSize: 0x48 }
  - { offset: 0x140EDE, size: 0x8, addend: 0x0, symName: '__ZN185_$LT$core..ops..control_flow..ControlFlow$LT$B$C$C$GT$$u20$as$u20$core..ops..try_trait..FromResidual$LT$core..ops..control_flow..ControlFlow$LT$B$C$core..convert..Infallible$GT$$GT$$GT$13from_residual17h43fb8385f29dc943E', symObjAddr: 0x48, symBinAddr: 0x477DC, symSize: 0x48 }
  - { offset: 0x140F1D, size: 0x8, addend: 0x0, symName: '__ZN185_$LT$core..ops..control_flow..ControlFlow$LT$B$C$C$GT$$u20$as$u20$core..ops..try_trait..FromResidual$LT$core..ops..control_flow..ControlFlow$LT$B$C$core..convert..Infallible$GT$$GT$$GT$13from_residual17hee6c356d2fb56541E', symObjAddr: 0xA4, symBinAddr: 0x47824, symSize: 0x1C }
  - { offset: 0x140F66, size: 0x8, addend: 0x0, symName: __ZN4core3ops12control_flow11ControlFlow5Break17ha9026ecd2c84826dE, symObjAddr: 0xFF4, symBinAddr: 0x4871C, symSize: 0x30 }
  - { offset: 0x141027, size: 0x8, addend: 0x0, symName: '__ZN95_$LT$core..ops..control_flow..ControlFlow$LT$B$C$C$GT$$u20$as$u20$core..ops..try_trait..Try$GT$11from_output17h14aa70bf40abaf00E', symObjAddr: 0x23D8, symBinAddr: 0x49A38, symSize: 0x18 }
  - { offset: 0x141065, size: 0x8, addend: 0x0, symName: '__ZN95_$LT$core..ops..control_flow..ControlFlow$LT$B$C$C$GT$$u20$as$u20$core..ops..try_trait..Try$GT$11from_output17h23da74b1a3069c5cE', symObjAddr: 0x23F0, symBinAddr: 0x49A50, symSize: 0x10 }
  - { offset: 0x1410A3, size: 0x8, addend: 0x0, symName: '__ZN95_$LT$core..ops..control_flow..ControlFlow$LT$B$C$C$GT$$u20$as$u20$core..ops..try_trait..Try$GT$11from_output17hab12f7693ee4dba5E', symObjAddr: 0x2400, symBinAddr: 0x49A60, symSize: 0x18 }
  - { offset: 0x1410E1, size: 0x8, addend: 0x0, symName: '__ZN95_$LT$core..ops..control_flow..ControlFlow$LT$B$C$C$GT$$u20$as$u20$core..ops..try_trait..Try$GT$6branch17h390c50cb6a6a53b6E', symObjAddr: 0x2418, symBinAddr: 0x49A78, symSize: 0x48 }
  - { offset: 0x141159, size: 0x8, addend: 0x0, symName: '__ZN95_$LT$core..ops..control_flow..ControlFlow$LT$B$C$C$GT$$u20$as$u20$core..ops..try_trait..Try$GT$6branch17h8cfdb568c1e58d8aE', symObjAddr: 0x24A0, symBinAddr: 0x49AC0, symSize: 0x94 }
  - { offset: 0x1411D2, size: 0x8, addend: 0x0, symName: '__ZN95_$LT$core..ops..control_flow..ControlFlow$LT$B$C$C$GT$$u20$as$u20$core..ops..try_trait..Try$GT$6branch17hb19b22b067ec47a3E', symObjAddr: 0x2534, symBinAddr: 0x49B54, symSize: 0x94 }
  - { offset: 0x1416C9, size: 0x8, addend: 0x0, symName: '__ZN42_$LT$$RF$T$u20$as$u20$core..fmt..Debug$GT$3fmt17h31e5fcaa37be92d3E', symObjAddr: 0xC0, symBinAddr: 0x47840, symSize: 0x30 }
  - { offset: 0x14170F, size: 0x8, addend: 0x0, symName: '__ZN42_$LT$$RF$T$u20$as$u20$core..fmt..Debug$GT$3fmt17h99f2e09bb008895fE', symObjAddr: 0xF0, symBinAddr: 0x47870, symSize: 0x30 }
  - { offset: 0x143247, size: 0x8, addend: 0x0, symName: __ZN6base646engine6Engine6decode17hb0b4d38d08c9621dE, symObjAddr: 0x1E94, symBinAddr: 0x495BC, symSize: 0x74 }
  - { offset: 0x143293, size: 0x8, addend: 0x0, symName: __ZN6base646engine6Engine6encode17ha3ae025caf626934E, symObjAddr: 0x1F08, symBinAddr: 0x49630, symSize: 0x74 }
  - { offset: 0x143BE3, size: 0x8, addend: 0x0, symName: '__ZN5alloc5boxed16Box$LT$T$C$A$GT$13new_uninit_in17h343398048fe870a6E', symObjAddr: 0x145C, symBinAddr: 0x48B84, symSize: 0x98 }
  - { offset: 0x143CDB, size: 0x8, addend: 0x0, symName: '__ZN5alloc5boxed16Box$LT$T$C$A$GT$13new_uninit_in17h47315a2345dbf9efE', symObjAddr: 0x14F4, symBinAddr: 0x48C1C, symSize: 0x98 }
  - { offset: 0x143DD3, size: 0x8, addend: 0x0, symName: '__ZN5alloc5boxed16Box$LT$T$C$A$GT$13new_uninit_in17h5654c5f4d135d962E', symObjAddr: 0x158C, symBinAddr: 0x48CB4, symSize: 0x98 }
  - { offset: 0x143ECB, size: 0x8, addend: 0x0, symName: '__ZN5alloc5boxed16Box$LT$T$C$A$GT$13new_uninit_in17h8c7af25bd314054bE', symObjAddr: 0x1624, symBinAddr: 0x48D4C, symSize: 0x98 }
  - { offset: 0x143FC3, size: 0x8, addend: 0x0, symName: '__ZN5alloc5boxed16Box$LT$T$C$A$GT$13new_uninit_in17hcf9edf9a81edbaefE', symObjAddr: 0x16BC, symBinAddr: 0x48DE4, symSize: 0x98 }
  - { offset: 0x1440BB, size: 0x8, addend: 0x0, symName: '__ZN5alloc5boxed16Box$LT$T$C$A$GT$17try_new_uninit_in17h19107f50819b6308E', symObjAddr: 0x1754, symBinAddr: 0x48E7C, symSize: 0x13C }
  - { offset: 0x1442F7, size: 0x8, addend: 0x0, symName: '__ZN5alloc5boxed16Box$LT$T$C$A$GT$17try_new_uninit_in17h1f8574d5e9461d3fE', symObjAddr: 0x1890, symBinAddr: 0x48FB8, symSize: 0x13C }
  - { offset: 0x144533, size: 0x8, addend: 0x0, symName: '__ZN5alloc5boxed16Box$LT$T$C$A$GT$17try_new_uninit_in17h5022f472bbea0cb2E', symObjAddr: 0x19CC, symBinAddr: 0x490F4, symSize: 0x13C }
  - { offset: 0x14476F, size: 0x8, addend: 0x0, symName: '__ZN5alloc5boxed16Box$LT$T$C$A$GT$17try_new_uninit_in17h5d3956a1eac9c6a5E', symObjAddr: 0x1B08, symBinAddr: 0x49230, symSize: 0x13C }
  - { offset: 0x1449AB, size: 0x8, addend: 0x0, symName: '__ZN5alloc5boxed16Box$LT$T$C$A$GT$17try_new_uninit_in17hdd7349af68635f6cE', symObjAddr: 0x1C44, symBinAddr: 0x4936C, symSize: 0x13C }
  - { offset: 0x144D8C, size: 0x8, addend: 0x0, symName: '__ZN67_$LT$alloc..boxed..Box$LT$T$C$A$GT$$u20$as$u20$core..fmt..Debug$GT$3fmt17h1043111f3aaf69e6E', symObjAddr: 0x1D80, symBinAddr: 0x494A8, symSize: 0x30 }
  - { offset: 0x144DDB, size: 0x8, addend: 0x0, symName: '__ZN67_$LT$alloc..boxed..Box$LT$T$C$A$GT$$u20$as$u20$core..fmt..Debug$GT$3fmt17h33094bf2d461b101E', symObjAddr: 0x1DB0, symBinAddr: 0x494D8, symSize: 0x30 }
  - { offset: 0x144E83, size: 0x8, addend: 0x0, symName: '__ZN69_$LT$alloc..boxed..Box$LT$T$C$A$GT$$u20$as$u20$core..clone..Clone$GT$5clone17h27a12b4a09321755E', symObjAddr: 0x1DE0, symBinAddr: 0x49508, symSize: 0xB4 }
  - { offset: 0x145000, size: 0x8, addend: 0x0, symName: '__ZN72_$LT$alloc..boxed..Box$LT$T$C$A$GT$$u20$as$u20$core..ops..drop..Drop$GT$4drop17h412a2fcf746779f6E', symObjAddr: 0x1F7C, symBinAddr: 0x496A4, symSize: 0xB4 }
  - { offset: 0x14513B, size: 0x8, addend: 0x0, symName: '__ZN72_$LT$alloc..boxed..Box$LT$T$C$A$GT$$u20$as$u20$core..ops..drop..Drop$GT$4drop17h45ed7cc43900a21aE', symObjAddr: 0x2030, symBinAddr: 0x49758, symSize: 0xB8 }
  - { offset: 0x145276, size: 0x8, addend: 0x0, symName: '__ZN72_$LT$alloc..boxed..Box$LT$T$C$A$GT$$u20$as$u20$core..ops..drop..Drop$GT$4drop17hafd71fb85ae2f82fE', symObjAddr: 0x20E8, symBinAddr: 0x49810, symSize: 0xB8 }
  - { offset: 0x1453B1, size: 0x8, addend: 0x0, symName: '__ZN72_$LT$alloc..boxed..Box$LT$T$C$A$GT$$u20$as$u20$core..ops..drop..Drop$GT$4drop17hbcd248fc4323fc39E', symObjAddr: 0x2258, symBinAddr: 0x498C8, symSize: 0xB8 }
  - { offset: 0x1454EC, size: 0x8, addend: 0x0, symName: '__ZN72_$LT$alloc..boxed..Box$LT$T$C$A$GT$$u20$as$u20$core..ops..drop..Drop$GT$4drop17heb0cd4dd9186b00eE', symObjAddr: 0x2310, symBinAddr: 0x49980, symSize: 0xB8 }
  - { offset: 0x145644, size: 0x8, addend: 0x0, symName: __ZN4core3fmt2rt8Argument11new_display17h0d8b9ed7bc498f27E, symObjAddr: 0x120, symBinAddr: 0x478A0, symSize: 0x2C }
  - { offset: 0x1456FF, size: 0x8, addend: 0x0, symName: __ZN4core3fmt2rt8Argument11new_display17h468a0e9ba9a4cf22E, symObjAddr: 0x14C, symBinAddr: 0x478CC, symSize: 0x2C }
  - { offset: 0x145744, size: 0x8, addend: 0x0, symName: __ZN4core3fmt2rt8Argument11new_display17ha6941f32cd09ecb0E, symObjAddr: 0x178, symBinAddr: 0x478F8, symSize: 0x2C }
  - { offset: 0x14579A, size: 0x8, addend: 0x0, symName: __ZN4core3fmt2rt8Argument11new_display17hf53afb0b38ee699aE, symObjAddr: 0x1A4, symBinAddr: 0x47924, symSize: 0x2C }
  - { offset: 0x1457F9, size: 0x8, addend: 0x0, symName: __ZN4core3fmt2rt8Argument9new_debug17h5ca9a4ddbc295e25E, symObjAddr: 0x1FC, symBinAddr: 0x47950, symSize: 0x2C }
  - { offset: 0x145B61, size: 0x8, addend: 0x0, symName: __ZN4core3fmt2rt8Argument9new_debug17habe2958646b70fefE, symObjAddr: 0x228, symBinAddr: 0x4797C, symSize: 0x2C }
  - { offset: 0x145D0E, size: 0x8, addend: 0x0, symName: '__ZN4core3ptr8non_null16NonNull$LT$T$GT$20offset_from_unsigned17h14bf2ce34e9457e5E', symObjAddr: 0x10C8, symBinAddr: 0x487F0, symSize: 0x7C }
  - { offset: 0x145E18, size: 0x8, addend: 0x0, symName: '__ZN4core3ptr8non_null16NonNull$LT$T$GT$20offset_from_unsigned17h193394788e037279E', symObjAddr: 0x1144, symBinAddr: 0x4886C, symSize: 0x7C }
  - { offset: 0x145F22, size: 0x8, addend: 0x0, symName: '__ZN4core3ptr8non_null16NonNull$LT$T$GT$20offset_from_unsigned17h1be1581d6877e199E', symObjAddr: 0x11C0, symBinAddr: 0x488E8, symSize: 0x7C }
  - { offset: 0x14602C, size: 0x8, addend: 0x0, symName: '__ZN4core3ptr8non_null16NonNull$LT$T$GT$20offset_from_unsigned17h54e743c5691d7d21E', symObjAddr: 0x123C, symBinAddr: 0x48964, symSize: 0x7C }
  - { offset: 0x146136, size: 0x8, addend: 0x0, symName: '__ZN4core3ptr8non_null16NonNull$LT$T$GT$20offset_from_unsigned17ha135bbf167534096E', symObjAddr: 0x12B8, symBinAddr: 0x489E0, symSize: 0x7C }
  - { offset: 0x146240, size: 0x8, addend: 0x0, symName: '__ZN4core3ptr8non_null16NonNull$LT$T$GT$20offset_from_unsigned17he61233196ca817cdE', symObjAddr: 0x1334, symBinAddr: 0x48A5C, symSize: 0x7C }
  - { offset: 0x146E41, size: 0x8, addend: 0x0, symName: '__ZN106_$LT$core..iter..adapters..GenericShunt$LT$I$C$R$GT$$u20$as$u20$core..iter..traits..iterator..Iterator$GT$4next17h233503dc3a0625aeE', symObjAddr: 0x0, symBinAddr: 0x49BE8, symSize: 0xB0 }
  - { offset: 0x146E9D, size: 0x8, addend: 0x0, symName: '__ZN45_$LT$T$u20$as$u20$alloc..string..ToString$GT$9to_string17h70788dfb33880cedE', symObjAddr: 0xD74, symBinAddr: 0x4A95C, symSize: 0x24 }
  - { offset: 0x146EDA, size: 0x8, addend: 0x0, symName: '__ZN49_$LT$T$u20$as$u20$alloc..string..SpecToString$GT$14spec_to_string17hb68b190acbf8bd52E', symObjAddr: 0xD98, symBinAddr: 0x4A980, symSize: 0xF4 }
  - { offset: 0x147A8B, size: 0x8, addend: 0x0, symName: '__ZN160_$LT$$LT$T$u20$as$u20$alloc..slice..$LT$impl$u20$$u5b$T$u5d$$GT$..to_vec_in..ConvertVec$GT$..to_vec..DropGuard$LT$T$C$A$GT$$u20$as$u20$core..ops..drop..Drop$GT$4drop17h6c716414f0675555E', symObjAddr: 0xD44, symBinAddr: 0x4A92C, symSize: 0x30 }
  - { offset: 0x147B29, size: 0x8, addend: 0x0, symName: '__ZN5alloc5slice29_$LT$impl$u20$$u5b$T$u5d$$GT$7sort_by28_$u7b$$u7b$closure$u7d$$u7d$17h38dc42e8bf63441fE', symObjAddr: 0x1E88, symBinAddr: 0x4B610, symSize: 0x5C }
  - { offset: 0x147BA3, size: 0x8, addend: 0x0, symName: '__ZN5alloc5slice29_$LT$impl$u20$$u5b$T$u5d$$GT$7sort_by28_$u7b$$u7b$closure$u7d$$u7d$17h97171ec42cc4c50dE', symObjAddr: 0x1EE4, symBinAddr: 0x4B66C, symSize: 0x5C }
  - { offset: 0x147C1E, size: 0x8, addend: 0x0, symName: '__ZN5alloc5slice29_$LT$impl$u20$$u5b$T$u5d$$GT$7sort_by17h348dbf42e4d89fe6E', symObjAddr: 0x1DF8, symBinAddr: 0x4B580, symSize: 0x48 }
  - { offset: 0x147C66, size: 0x8, addend: 0x0, symName: '__ZN5alloc5slice29_$LT$impl$u20$$u5b$T$u5d$$GT$7sort_by17h4f0e68e3286db225E', symObjAddr: 0x1E40, symBinAddr: 0x4B5C8, symSize: 0x48 }
  - { offset: 0x147CAF, size: 0x8, addend: 0x0, symName: __ZN5alloc5slice11stable_sort17h9291cfc112456c37E, symObjAddr: 0x1C68, symBinAddr: 0x4B3F0, symSize: 0xC8 }
  - { offset: 0x147D64, size: 0x8, addend: 0x0, symName: __ZN5alloc5slice11stable_sort17hc6bc4fe507654c11E, symObjAddr: 0x1D30, symBinAddr: 0x4B4B8, symSize: 0xC8 }
  - { offset: 0x147E1F, size: 0x8, addend: 0x0, symName: __ZN5alloc3fmt6format17h0a0fd964ccbf74f2E, symObjAddr: 0x1B94, symBinAddr: 0x4B31C, symSize: 0xD4 }
  - { offset: 0x1482BC, size: 0x8, addend: 0x0, symName: '__ZN70_$LT$core..num..error..TryFromIntError$u20$as$u20$core..fmt..Debug$GT$3fmt17h2b8b81185b0d4a5dE', symObjAddr: 0x4564, symBinAddr: 0x4D994, symSize: 0x54 }
  - { offset: 0x149254, size: 0x8, addend: 0x0, symName: __ZN4core4iter6traits8iterator8Iterator7collect17h1fc26dac4b0c9e83E, symObjAddr: 0xE8C, symBinAddr: 0x4AA74, symSize: 0x6C }
  - { offset: 0x1492EA, size: 0x8, addend: 0x0, symName: __ZN4core4iter6traits8iterator8Iterator7collect17h44a3f6a3dc00a841E, symObjAddr: 0xEF8, symBinAddr: 0x4AAE0, symSize: 0x74 }
  - { offset: 0x149380, size: 0x8, addend: 0x0, symName: __ZN4core4iter6traits8iterator8Iterator7collect17h78f638621147c5efE, symObjAddr: 0xF6C, symBinAddr: 0x4AB54, symSize: 0x7C }
  - { offset: 0x149441, size: 0x8, addend: 0x0, symName: '__ZN63_$LT$I$u20$as$u20$core..iter..traits..collect..IntoIterator$GT$9into_iter17h081bee994a261841E', symObjAddr: 0x1F40, symBinAddr: 0x4B6C8, symSize: 0x30 }
  - { offset: 0x149479, size: 0x8, addend: 0x0, symName: '__ZN63_$LT$I$u20$as$u20$core..iter..traits..collect..IntoIterator$GT$9into_iter17hd42fc4dde16b4094E', symObjAddr: 0x1F70, symBinAddr: 0x4B6F8, symSize: 0x30 }
  - { offset: 0x14955D, size: 0x8, addend: 0x0, symName: '__ZN106_$LT$core..iter..adapters..GenericShunt$LT$I$C$R$GT$$u20$as$u20$core..iter..traits..iterator..Iterator$GT$4next17h233503dc3a0625aeE', symObjAddr: 0x0, symBinAddr: 0x49BE8, symSize: 0xB0 }
  - { offset: 0x1495F0, size: 0x8, addend: 0x0, symName: '__ZN106_$LT$core..iter..adapters..GenericShunt$LT$I$C$R$GT$$u20$as$u20$core..iter..traits..iterator..Iterator$GT$8try_fold17h27734758724dbe56E', symObjAddr: 0xB0, symBinAddr: 0x49C98, symSize: 0xC0 }
  - { offset: 0x1496BC, size: 0x8, addend: 0x0, symName: '__ZN106_$LT$core..iter..adapters..GenericShunt$LT$I$C$R$GT$$u20$as$u20$core..iter..traits..iterator..Iterator$GT$8try_fold28_$u7b$$u7b$closure$u7d$$u7d$17h05fe5a45ba5893c1E', symObjAddr: 0x170, symBinAddr: 0x49D58, symSize: 0x20C }
  - { offset: 0x1497B8, size: 0x8, addend: 0x0, symName: '__ZN106_$LT$core..iter..adapters..GenericShunt$LT$I$C$R$GT$$u20$as$u20$core..iter..traits..iterator..Iterator$GT$9size_hint17h54ce4fefc92e8602E', symObjAddr: 0x37C, symBinAddr: 0x49F64, symSize: 0xAC }
  - { offset: 0x14983B, size: 0x8, addend: 0x0, symName: '__ZN114_$LT$core..iter..adapters..flatten..FlatMap$LT$I$C$U$C$F$GT$$u20$as$u20$core..iter..traits..iterator..Iterator$GT$4next17h39bdb31ab7a41780E', symObjAddr: 0x428, symBinAddr: 0x4A010, symSize: 0x24 }
  - { offset: 0x149882, size: 0x8, addend: 0x0, symName: '__ZN114_$LT$core..iter..adapters..flatten..FlatMap$LT$I$C$U$C$F$GT$$u20$as$u20$core..iter..traits..iterator..Iterator$GT$9size_hint17h1ae10c3bdc94678fE', symObjAddr: 0x44C, symBinAddr: 0x4A034, symSize: 0x24 }
  - { offset: 0x1498CF, size: 0x8, addend: 0x0, symName: '__ZN116_$LT$core..iter..adapters..flatten..FlattenCompat$LT$I$C$U$GT$$u20$as$u20$core..iter..traits..iterator..Iterator$GT$4next17h522a7ebf8c30245cE', symObjAddr: 0x470, symBinAddr: 0x4A058, symSize: 0x158 }
  - { offset: 0x149963, size: 0x8, addend: 0x0, symName: '__ZN116_$LT$core..iter..adapters..flatten..FlattenCompat$LT$I$C$U$GT$$u20$as$u20$core..iter..traits..iterator..Iterator$GT$9size_hint17h926b2a8be0f6740fE', symObjAddr: 0x5C8, symBinAddr: 0x4A1B0, symSize: 0x77C }
  - { offset: 0x14A0BF, size: 0x8, addend: 0x0, symName: __ZN4core4iter8adapters7flatten17and_then_or_clear17h39f5958cf27d4503E, symObjAddr: 0x1194, symBinAddr: 0x4AD7C, symSize: 0x130 }
  - { offset: 0x14A380, size: 0x8, addend: 0x0, symName: __ZN4core4iter8adapters11try_process17h794fa50869bba62cE, symObjAddr: 0xFE8, symBinAddr: 0x4ABD0, symSize: 0x1AC }
  - { offset: 0x14AFC4, size: 0x8, addend: 0x0, symName: '__ZN4core5slice29_$LT$impl$u20$$u5b$T$u5d$$GT$22split_at_mut_unchecked17ha041bce317a2986eE', symObjAddr: 0x12C4, symBinAddr: 0x4AEAC, symSize: 0x108 }
  - { offset: 0x14B164, size: 0x8, addend: 0x0, symName: '__ZN4core5slice29_$LT$impl$u20$$u5b$T$u5d$$GT$7reverse17h7be0b9a49964342bE', symObjAddr: 0x13CC, symBinAddr: 0x4AFB4, symSize: 0x118 }
  - { offset: 0x14B407, size: 0x8, addend: 0x0, symName: '__ZN68_$LT$T$u20$as$u20$core..slice..sort..stable..quicksort..IsFreeze$GT$9is_freeze17h2cd60caeb1ee37daE', symObjAddr: 0x1FA0, symBinAddr: 0x4B728, symSize: 0xC }
  - { offset: 0x14B7B9, size: 0x8, addend: 0x0, symName: '__ZN6zip32118TransactionRequest8from_uri28_$u7b$$u7b$closure$u7d$$u7d$17h0344e6874d655a1bE', symObjAddr: 0x3794, symBinAddr: 0x4CCEC, symSize: 0x6C }
  - { offset: 0x14B81D, size: 0x8, addend: 0x0, symName: '__ZN6zip32118TransactionRequest8from_uri28_$u7b$$u7b$closure$u7d$$u7d$17h8a2af3a83b8225c6E', symObjAddr: 0x3800, symBinAddr: 0x4CD58, symSize: 0x80 }
  - { offset: 0x14B893, size: 0x8, addend: 0x0, symName: '__ZN6zip32118TransactionRequest8from_uri28_$u7b$$u7b$closure$u7d$$u7d$17had75dab657f38bd2E', symObjAddr: 0x3880, symBinAddr: 0x4CDD8, symSize: 0x80 }
  - { offset: 0x14B909, size: 0x8, addend: 0x0, symName: '__ZN6zip32118TransactionRequest8from_uri28_$u7b$$u7b$closure$u7d$$u7d$17hccd50980c2577bceE', symObjAddr: 0x3900, symBinAddr: 0x4CE58, symSize: 0x20 }
  - { offset: 0x14B947, size: 0x8, addend: 0x0, symName: '__ZN6zip32118TransactionRequest8from_uri28_$u7b$$u7b$closure$u7d$$u7d$28_$u7b$$u7b$closure$u7d$$u7d$17hdb309065f3c9b6d5E', symObjAddr: 0x3920, symBinAddr: 0x4CE78, symSize: 0x38 }
  - { offset: 0x14B9AA, size: 0x8, addend: 0x0, symName: __ZN6zip32118TransactionRequest6to_uri14payment_params17hda91c103e7414ef6E, symObjAddr: 0x25F4, symBinAddr: 0x4BB4C, symSize: 0x278 }
  - { offset: 0x14B9ED, size: 0x8, addend: 0x0, symName: '__ZN6zip32118TransactionRequest6to_uri14payment_params28_$u7b$$u7b$closure$u7d$$u7d$17h20db48ca0b5106c1E', symObjAddr: 0x286C, symBinAddr: 0x4BDC4, symSize: 0x80 }
  - { offset: 0x14BA56, size: 0x8, addend: 0x0, symName: '__ZN6zip32118TransactionRequest6to_uri14payment_params28_$u7b$$u7b$closure$u7d$$u7d$17h398b88a9c91a8854E', symObjAddr: 0x28EC, symBinAddr: 0x4BE44, symSize: 0x64 }
  - { offset: 0x14BA95, size: 0x8, addend: 0x0, symName: '__ZN6zip32118TransactionRequest6to_uri14payment_params28_$u7b$$u7b$closure$u7d$$u7d$17ha9fe660444cf019aE', symObjAddr: 0x2950, symBinAddr: 0x4BEA8, symSize: 0x3C }
  - { offset: 0x14BAD4, size: 0x8, addend: 0x0, symName: '__ZN6zip32118TransactionRequest6to_uri14payment_params28_$u7b$$u7b$closure$u7d$$u7d$17hfda1809bf4e1a96bE', symObjAddr: 0x298C, symBinAddr: 0x4BEE4, symSize: 0x64 }
  - { offset: 0x14BB14, size: 0x8, addend: 0x0, symName: '__ZN6zip32118TransactionRequest6to_uri28_$u7b$$u7b$closure$u7d$$u7d$17h26bf3d7938b6edbfE', symObjAddr: 0x2E20, symBinAddr: 0x4C378, symSize: 0x15C }
  - { offset: 0x14BDFA, size: 0x8, addend: 0x0, symName: '__ZN56_$LT$zip321..Zip321Error$u20$as$u20$core..fmt..Debug$GT$3fmt17h2c8067ddfef770d2E', symObjAddr: 0x14E4, symBinAddr: 0x4B0CC, symSize: 0x250 }
  - { offset: 0x14BF19, size: 0x8, addend: 0x0, symName: __ZN6zip32111Zip321Error13InvalidBase6417h8f48751b3b2faf78E, symObjAddr: 0x1FAC, symBinAddr: 0x4B734, symSize: 0x1C }
  - { offset: 0x14BF47, size: 0x8, addend: 0x0, symName: __ZN6zip32111Zip321Error14MemoBytesError17hf556f79f2b87a803E, symObjAddr: 0x1FC8, symBinAddr: 0x4B750, symSize: 0x1C }
  - { offset: 0x14BF71, size: 0x8, addend: 0x0, symName: __ZN6zip32114memo_to_base6417h18abcf913e12bec8E, symObjAddr: 0x1FE4, symBinAddr: 0x4B76C, symSize: 0x44 }
  - { offset: 0x14BF9D, size: 0x8, addend: 0x0, symName: __ZN6zip32116memo_from_base6417h8281b5d0e7cf5e18E, symObjAddr: 0x2028, symBinAddr: 0x4B7B0, symSize: 0x64 }
  - { offset: 0x14BFCE, size: 0x8, addend: 0x0, symName: '__ZN6zip32116memo_from_base6428_$u7b$$u7b$closure$u7d$$u7d$17hf497ae5d7f9efd99E', symObjAddr: 0x208C, symBinAddr: 0x4B814, symSize: 0x84 }
  - { offset: 0x14C0B9, size: 0x8, addend: 0x0, symName: __ZN6zip3216render10addr_param17h195db6a3e36b6dd9E, symObjAddr: 0x396C, symBinAddr: 0x4CEC4, symSize: 0x12C }
  - { offset: 0x14C14A, size: 0x8, addend: 0x0, symName: __ZN6zip3216render10amount_str17h11c3843b8d1191b1E, symObjAddr: 0x3A98, symBinAddr: 0x4CFF0, symSize: 0x1CC }
  - { offset: 0x14C240, size: 0x8, addend: 0x0, symName: __ZN6zip3216render10memo_param17h46007062a7a81c42E, symObjAddr: 0x3C64, symBinAddr: 0x4D1BC, symSize: 0x12C }
  - { offset: 0x14C2D1, size: 0x8, addend: 0x0, symName: __ZN6zip3216render11param_index17hafaf070871b38c38E, symObjAddr: 0x3D90, symBinAddr: 0x4D2E8, symSize: 0xBC }
  - { offset: 0x14C387, size: 0x8, addend: 0x0, symName: __ZN6zip3216render12amount_param17hb00b48a006dd0a49E, symObjAddr: 0x3E4C, symBinAddr: 0x4D3A4, symSize: 0x12C }
  - { offset: 0x14C418, size: 0x8, addend: 0x0, symName: __ZN6zip3216render9str_param17h475c6420adbd0d35E, symObjAddr: 0x3F78, symBinAddr: 0x4D4D0, symSize: 0x144 }
  - { offset: 0x14D025, size: 0x8, addend: 0x0, symName: __ZN6zip32118TransactionRequest3new17h7f62ce8b8f2b8a4aE, symObjAddr: 0x2254, symBinAddr: 0x4B898, symSize: 0x2B4 }
  - { offset: 0x14D128, size: 0x8, addend: 0x0, symName: __ZN6zip32118TransactionRequest6to_uri17hbc9c3469ac516257E, symObjAddr: 0x29F0, symBinAddr: 0x4BF48, symSize: 0x430 }
  - { offset: 0x14D269, size: 0x8, addend: 0x0, symName: __ZN6zip32118TransactionRequest8from_uri17h4ad1d5376cb9079dE, symObjAddr: 0x2F7C, symBinAddr: 0x4C4D4, symSize: 0x818 }
  - { offset: 0x14D39F, size: 0x8, addend: 0x0, symName: __ZN6zip32118TransactionRequest8payments17hdf5ebb0dc034c667E, symObjAddr: 0x3958, symBinAddr: 0x4CEB0, symSize: 0x14 }
  - { offset: 0x14D3F6, size: 0x8, addend: 0x0, symName: __ZN6zip3217Payment17recipient_address17hf68e73480fb97cd8E, symObjAddr: 0x41E4, symBinAddr: 0x4D614, symSize: 0x14 }
  - { offset: 0x14D418, size: 0x8, addend: 0x0, symName: __ZN6zip3217Payment3new17h5cc72474c4ec1187E, symObjAddr: 0x41F8, symBinAddr: 0x4D628, symSize: 0x2E8 }
  - { offset: 0x14D492, size: 0x8, addend: 0x0, symName: __ZN6zip3217Payment4memo17hc3c389ea9410362bE, symObjAddr: 0x44E0, symBinAddr: 0x4D910, symSize: 0x24 }
  - { offset: 0x14D4B4, size: 0x8, addend: 0x0, symName: __ZN6zip3217Payment5label17h1e57384d69266633E, symObjAddr: 0x4504, symBinAddr: 0x4D934, symSize: 0x24 }
  - { offset: 0x14D4D6, size: 0x8, addend: 0x0, symName: __ZN6zip3217Payment6amount17h23ac36d3457a5dbfE, symObjAddr: 0x4528, symBinAddr: 0x4D958, symSize: 0x18 }
  - { offset: 0x14D4F8, size: 0x8, addend: 0x0, symName: __ZN6zip3217Payment7message17h7d6f0f9cbdb2a701E, symObjAddr: 0x4540, symBinAddr: 0x4D970, symSize: 0x24 }
  - { offset: 0x14D7D0, size: 0x8, addend: 0x0, symName: '__ZN107_$LT$core..iter..adapters..fuse..Fuse$LT$I$GT$$u20$as$u20$core..iter..adapters..fuse..FuseImpl$LT$I$GT$$GT$4next17h961b6737c4f134cfE', symObjAddr: 0x0, symBinAddr: 0x4D9E8, symSize: 0x88 }
  - { offset: 0x14DDB6, size: 0x8, addend: 0x0, symName: '__ZN111_$LT$alloc..vec..Vec$LT$T$GT$$u20$as$u20$alloc..vec..spec_from_iter_nested..SpecFromIterNested$LT$T$C$I$GT$$GT$39from_iter$u7b$$u7b$reify.shim$u7d$$u7d$17h03e8a83fd712f948E', symObjAddr: 0x88, symBinAddr: 0x4DA70, symSize: 0x1C }
  - { offset: 0x14EFE2, size: 0x8, addend: 0x0, symName: __ZN5alloc11collections5btree3mem7replace17h0b5832b95654dae7E, symObjAddr: 0x313C, symBinAddr: 0x50AD4, symSize: 0x90 }
  - { offset: 0x14F0CB, size: 0x8, addend: 0x0, symName: __ZN5alloc11collections5btree3mem7replace17h5da991a8f2475e4fE, symObjAddr: 0x31CC, symBinAddr: 0x50B64, symSize: 0xCC }
  - { offset: 0x14F1BB, size: 0x8, addend: 0x0, symName: __ZN5alloc11collections5btree3mem7replace17h75bab5e00b8b7b06E, symObjAddr: 0x3298, symBinAddr: 0x50C30, symSize: 0xC4 }
  - { offset: 0x14F2AA, size: 0x8, addend: 0x0, symName: __ZN5alloc11collections5btree3mem7replace17h76708372385400a7E, symObjAddr: 0x335C, symBinAddr: 0x50CF4, symSize: 0xCC }
  - { offset: 0x14F39A, size: 0x8, addend: 0x0, symName: __ZN5alloc11collections5btree3mem7replace17h8827f7f7ffd15910E, symObjAddr: 0x3428, symBinAddr: 0x50DC0, symSize: 0x90 }
  - { offset: 0x14F488, size: 0x8, addend: 0x0, symName: '__ZN5alloc11collections5btree3mem8take_mut28_$u7b$$u7b$closure$u7d$$u7d$17h1a8aa031fd3627bdE', symObjAddr: 0x34B8, symBinAddr: 0x50E50, symSize: 0x28 }
  - { offset: 0x14F4D5, size: 0x8, addend: 0x0, symName: '__ZN5alloc11collections5btree3mem8take_mut28_$u7b$$u7b$closure$u7d$$u7d$17h266d9f1c100a6794E', symObjAddr: 0x34E0, symBinAddr: 0x50E78, symSize: 0x28 }
  - { offset: 0x14F553, size: 0x8, addend: 0x0, symName: '__ZN93_$LT$alloc..collections..btree..mem..replace..PanicGuard$u20$as$u20$core..ops..drop..Drop$GT$4drop17h8b68e966f03bc33cE', symObjAddr: 0x5678, symBinAddr: 0x52ED0, symSize: 0xC }
  - { offset: 0x14F659, size: 0x8, addend: 0x0, symName: '__ZN5alloc5slice29_$LT$impl$u20$$u5b$T$u5d$$GT$8into_vec17ha92fed242a042a05E', symObjAddr: 0x3508, symBinAddr: 0x50EA0, symSize: 0x4C }
  - { offset: 0x14F9C9, size: 0x8, addend: 0x0, symName: '__ZN4core3ptr100drop_in_place$LT$core..option..Option$LT$core..option..IntoIter$LT$alloc..string..String$GT$$GT$$GT$17h35d80bf5034f1601E', symObjAddr: 0x9A4, symBinAddr: 0x4E38C, symSize: 0x48 }
  - { offset: 0x14F9F8, size: 0x8, addend: 0x0, symName: '__ZN4core3ptr104drop_in_place$LT$alloc..raw_vec..RawVec$LT$$LP$alloc..string..String$C$alloc..string..String$RP$$GT$$GT$17h5753556b4e60f421E', symObjAddr: 0x9EC, symBinAddr: 0x4E3D4, symSize: 0x24 }
  - { offset: 0x14FA27, size: 0x8, addend: 0x0, symName: '__ZN4core3ptr104drop_in_place$LT$core..slice..sort..stable..merge..MergeState$LT$$LP$usize$C$zip321..Payment$RP$$GT$$GT$17h9c5d200d55fe1a3fE', symObjAddr: 0xA10, symBinAddr: 0x4E3F8, symSize: 0x24 }
  - { offset: 0x14FA56, size: 0x8, addend: 0x0, symName: '__ZN4core3ptr108drop_in_place$LT$core..option..Option$LT$core..option..Option$LT$$LP$usize$C$zip321..Payment$RP$$GT$$GT$$GT$17h6c38df44112d8e1eE', symObjAddr: 0xA34, symBinAddr: 0x4E41C, symSize: 0x48 }
  - { offset: 0x14FA85, size: 0x8, addend: 0x0, symName: '__ZN4core3ptr108drop_in_place$LT$core..slice..sort..shared..smallsort..CopyOnDrop$LT$$LP$usize$C$zip321..Payment$RP$$GT$$GT$17hbf9dd2405d719d6cE', symObjAddr: 0xA7C, symBinAddr: 0x4E464, symSize: 0x24 }
  - { offset: 0x14FAB4, size: 0x8, addend: 0x0, symName: '__ZN4core3ptr1101drop_in_place$LT$core..iter..adapters..flatten..FlatMap$LT$alloc..collections..btree..map..Iter$LT$usize$C$zip321..Payment$GT$$C$core..iter..adapters..chain..Chain$LT$core..iter..adapters..chain..Chain$LT$core..iter..sources..empty..Empty$LT$alloc..string..String$GT$$C$core..option..IntoIter$LT$alloc..string..String$GT$$GT$$C$core..iter..adapters..chain..Chain$LT$core..iter..adapters..chain..Chain$LT$core..iter..adapters..chain..Chain$LT$core..iter..adapters..chain..Chain$LT$core..iter..adapters..chain..Chain$LT$core..iter..sources..empty..Empty$LT$alloc..string..String$GT$$C$core..option..IntoIter$LT$alloc..string..String$GT$$GT$$C$core..option..IntoIter$LT$alloc..string..String$GT$$GT$$C$core..option..IntoIter$LT$alloc..string..String$GT$$GT$$C$core..option..IntoIter$LT$alloc..string..String$GT$$GT$$C$core..iter..adapters..map..Map$LT$core..slice..iter..Iter$LT$$LP$alloc..string..String$C$alloc..string..String$RP$$GT$$C$zip321..TransactionRequest..to_uri..payment_params..$u7b$$u7b$closure$u7d$$u7d$$GT$$GT$$GT$$C$zip321..TransactionRequest..to_uri..$u7b$$u7b$closure$u7d$$u7d$$GT$$GT$17h662799a623af29ffE', symObjAddr: 0xAA0, symBinAddr: 0x4E488, symSize: 0x24 }
  - { offset: 0x14FAE3, size: 0x8, addend: 0x0, symName: '__ZN4core3ptr1145drop_in_place$LT$core..iter..adapters..flatten..FlattenCompat$LT$core..iter..adapters..map..Map$LT$alloc..collections..btree..map..Iter$LT$usize$C$zip321..Payment$GT$$C$zip321..TransactionRequest..to_uri..$u7b$$u7b$closure$u7d$$u7d$$GT$$C$core..iter..adapters..chain..Chain$LT$core..iter..adapters..chain..Chain$LT$core..iter..sources..empty..Empty$LT$alloc..string..String$GT$$C$core..option..IntoIter$LT$alloc..string..String$GT$$GT$$C$core..iter..adapters..chain..Chain$LT$core..iter..adapters..chain..Chain$LT$core..iter..adapters..chain..Chain$LT$core..iter..adapters..chain..Chain$LT$core..iter..adapters..chain..Chain$LT$core..iter..sources..empty..Empty$LT$alloc..string..String$GT$$C$core..option..IntoIter$LT$alloc..string..String$GT$$GT$$C$core..option..IntoIter$LT$alloc..string..String$GT$$GT$$C$core..option..IntoIter$LT$alloc..string..String$GT$$GT$$C$core..option..IntoIter$LT$alloc..string..String$GT$$GT$$C$core..iter..adapters..map..Map$LT$core..slice..iter..Iter$LT$$LP$alloc..string..String$C$alloc..string..String$RP$$GT$$C$zip321..TransactionRequest..to_uri..payment_params..$u7b$$u7b$closure$u7d$$u7d$$GT$$GT$$GT$$GT$$GT$17h300687ab89536a3bE', symObjAddr: 0xAC4, symBinAddr: 0x4E4AC, symSize: 0x64 }
  - { offset: 0x14FB12, size: 0x8, addend: 0x0, symName: '__ZN4core3ptr1177drop_in_place$LT$core..iter..adapters..map..map_fold$LT$$RF$$LP$alloc..string..String$C$alloc..string..String$RP$$C$alloc..string..String$C$$LP$$RP$$C$zip321..TransactionRequest..to_uri..payment_params..$u7b$$u7b$closure$u7d$$u7d$$C$core..iter..traits..iterator..Iterator..for_each..call$LT$alloc..string..String$C$alloc..vec..Vec$LT$alloc..string..String$GT$..extend_trusted$LT$core..iter..adapters..chain..Chain$LT$core..iter..adapters..chain..Chain$LT$core..iter..adapters..chain..Chain$LT$core..iter..adapters..chain..Chain$LT$core..iter..adapters..chain..Chain$LT$core..iter..sources..empty..Empty$LT$alloc..string..String$GT$$C$core..option..IntoIter$LT$alloc..string..String$GT$$GT$$C$core..option..IntoIter$LT$alloc..string..String$GT$$GT$$C$core..option..IntoIter$LT$alloc..string..String$GT$$GT$$C$core..option..IntoIter$LT$alloc..string..String$GT$$GT$$C$core..iter..adapters..map..Map$LT$core..slice..iter..Iter$LT$$LP$alloc..string..String$C$alloc..string..String$RP$$GT$$C$zip321..TransactionRequest..to_uri..payment_params..$u7b$$u7b$closure$u7d$$u7d$$GT$$GT$$GT$..$u7b$$u7b$closure$u7d$$u7d$$GT$..$u7b$$u7b$closure$u7d$$u7d$$GT$..$u7b$$u7b$closure$u7d$$u7d$$GT$17h738b40cc17500472E', symObjAddr: 0xB28, symBinAddr: 0x4E510, symSize: 0x24 }
  - { offset: 0x14FB41, size: 0x8, addend: 0x0, symName: '__ZN4core3ptr117drop_in_place$LT$alloc..boxed..Box$LT$core..mem..maybe_uninit..MaybeUninit$LT$zcash_address..ZcashAddress$GT$$GT$$GT$17ha5e4aeb6254f982dE', symObjAddr: 0xB4C, symBinAddr: 0x4E534, symSize: 0x2C }
  - { offset: 0x14FB70, size: 0x8, addend: 0x0, symName: '__ZN4core3ptr120drop_in_place$LT$alloc..collections..btree..map..BTreeMap$LT$usize$C$alloc..vec..Vec$LT$zip321..parse..Param$GT$$GT$$GT$17h1629d801a8264c76E', symObjAddr: 0xB9C, symBinAddr: 0x4E560, symSize: 0x24 }
  - { offset: 0x14FB9F, size: 0x8, addend: 0x0, symName: '__ZN4core3ptr120drop_in_place$LT$alloc..collections..btree..map..IntoIter$LT$usize$C$alloc..vec..Vec$LT$zip321..parse..Param$GT$$GT$$GT$17h32df80a8e1512634E', symObjAddr: 0xBC0, symBinAddr: 0x4E584, symSize: 0x24 }
  - { offset: 0x14FBCE, size: 0x8, addend: 0x0, symName: '__ZN4core3ptr124drop_in_place$LT$core..option..Option$LT$core..result..Result$LT$core..convert..Infallible$C$zip321..Zip321Error$GT$$GT$$GT$17h7727102e1f587fccE', symObjAddr: 0xC10, symBinAddr: 0x4E5A8, symSize: 0x4C }
  - { offset: 0x14FBFD, size: 0x8, addend: 0x0, symName: '__ZN4core3ptr125drop_in_place$LT$core..iter..adapters..enumerate..Enumerate$LT$alloc..vec..into_iter..IntoIter$LT$zip321..Payment$GT$$GT$$GT$17h4f6a8f57d406b616E', symObjAddr: 0xC5C, symBinAddr: 0x4E5F4, symSize: 0x24 }
  - { offset: 0x14FC2C, size: 0x8, addend: 0x0, symName: '__ZN4core3ptr139drop_in_place$LT$core..iter..adapters..peekable..Peekable$LT$alloc..vec..into_iter..IntoIter$LT$$LP$usize$C$zip321..Payment$RP$$GT$$GT$$GT$17hfb645d2ba02970a0E', symObjAddr: 0xC80, symBinAddr: 0x4E618, symSize: 0x5C }
  - { offset: 0x14FC5B, size: 0x8, addend: 0x0, symName: '__ZN4core3ptr142drop_in_place$LT$core..result..Result$LT$core..option..Option$LT$zip321..parse..IndexedParam$GT$$C$zcash_address..encoding..ParseError$GT$$GT$17h89903fbd1a697fbbE', symObjAddr: 0xCDC, symBinAddr: 0x4E674, symSize: 0x60 }
  - { offset: 0x14FC8A, size: 0x8, addend: 0x0, symName: '__ZN4core3ptr145drop_in_place$LT$core..array..iter..iter_inner..PolymorphicIter$LT$$u5b$core..mem..maybe_uninit..MaybeUninit$LT$usize$GT$$u3b$$u20$2$u5d$$GT$$GT$17h46f7f33a6cddc973E', symObjAddr: 0xD3C, symBinAddr: 0x4E6D4, symSize: 0x24 }
  - { offset: 0x14FCB9, size: 0x8, addend: 0x0, symName: '__ZN4core3ptr146drop_in_place$LT$alloc..boxed..Box$LT$alloc..collections..btree..node..LeafNode$LT$usize$C$alloc..vec..Vec$LT$zip321..parse..Param$GT$$GT$$GT$$GT$17hc772c7377476fad3E', symObjAddr: 0xD60, symBinAddr: 0x4E6F8, symSize: 0x2C }
  - { offset: 0x14FCE8, size: 0x8, addend: 0x0, symName: '__ZN4core3ptr150drop_in_place$LT$alloc..boxed..Box$LT$alloc..collections..btree..node..InternalNode$LT$usize$C$alloc..vec..Vec$LT$zip321..parse..Param$GT$$GT$$GT$$GT$17h68c50f029a471f57E', symObjAddr: 0xD8C, symBinAddr: 0x4E724, symSize: 0x2C }
  - { offset: 0x14FD17, size: 0x8, addend: 0x0, symName: '__ZN4core3ptr169drop_in_place$LT$$LT$alloc..vec..into_iter..IntoIter$LT$T$C$A$GT$$u20$as$u20$core..ops..drop..Drop$GT$..drop..DropGuard$LT$zip321..Payment$C$alloc..alloc..Global$GT$$GT$17hf8183b0116eb698dE', symObjAddr: 0xDB8, symBinAddr: 0x4E750, symSize: 0x24 }
  - { offset: 0x14FD46, size: 0x8, addend: 0x0, symName: '__ZN4core3ptr172drop_in_place$LT$alloc..collections..btree..node..SplitResult$LT$usize$C$alloc..vec..Vec$LT$zip321..parse..Param$GT$$C$alloc..collections..btree..node..marker..Leaf$GT$$GT$17h40f89c2e57f1b29cE', symObjAddr: 0xDDC, symBinAddr: 0x4E774, symSize: 0x24 }
  - { offset: 0x14FD75, size: 0x8, addend: 0x0, symName: '__ZN4core3ptr174drop_in_place$LT$$LT$alloc..vec..into_iter..IntoIter$LT$T$C$A$GT$$u20$as$u20$core..ops..drop..Drop$GT$..drop..DropGuard$LT$zip321..parse..Param$C$alloc..alloc..Global$GT$$GT$17hc3b223bd85f81253E', symObjAddr: 0xE00, symBinAddr: 0x4E798, symSize: 0x24 }
  - { offset: 0x14FDA4, size: 0x8, addend: 0x0, symName: '__ZN4core3ptr176drop_in_place$LT$alloc..collections..btree..node..SplitResult$LT$usize$C$alloc..vec..Vec$LT$zip321..parse..Param$GT$$C$alloc..collections..btree..node..marker..Internal$GT$$GT$17h26cc8f36178a0891E', symObjAddr: 0xE24, symBinAddr: 0x4E7BC, symSize: 0x24 }
  - { offset: 0x14FDD3, size: 0x8, addend: 0x0, symName: '__ZN4core3ptr179drop_in_place$LT$core..iter..adapters..chain..Chain$LT$core..iter..sources..empty..Empty$LT$alloc..string..String$GT$$C$core..option..IntoIter$LT$alloc..string..String$GT$$GT$$GT$17h0a4c2963ef99f621E', symObjAddr: 0xE48, symBinAddr: 0x4E7E0, symSize: 0x24 }
  - { offset: 0x14FE02, size: 0x8, addend: 0x0, symName: '__ZN4core3ptr181drop_in_place$LT$$LT$alloc..vec..into_iter..IntoIter$LT$T$C$A$GT$$u20$as$u20$core..ops..drop..Drop$GT$..drop..DropGuard$LT$zip321..parse..IndexedParam$C$alloc..alloc..Global$GT$$GT$17hbc4f3d90d4f63014E', symObjAddr: 0xE6C, symBinAddr: 0x4E804, symSize: 0x24 }
  - { offset: 0x14FE31, size: 0x8, addend: 0x0, symName: '__ZN4core3ptr185drop_in_place$LT$$LT$alloc..vec..into_iter..IntoIter$LT$T$C$A$GT$$u20$as$u20$core..ops..drop..Drop$GT$..drop..DropGuard$LT$$LP$usize$C$zip321..Payment$RP$$C$alloc..alloc..Global$GT$$GT$17h6426e6c50634d9a4E', symObjAddr: 0xE90, symBinAddr: 0x4E828, symSize: 0x24 }
  - { offset: 0x14FE60, size: 0x8, addend: 0x0, symName: '__ZN4core3ptr186drop_in_place$LT$alloc..collections..btree..dedup_sorted_iter..DedupSortedIter$LT$usize$C$zip321..Payment$C$alloc..vec..into_iter..IntoIter$LT$$LP$usize$C$zip321..Payment$RP$$GT$$GT$$GT$17h619bf318a13c9230E', symObjAddr: 0xEB4, symBinAddr: 0x4E84C, symSize: 0x24 }
  - { offset: 0x14FE8F, size: 0x8, addend: 0x0, symName: '__ZN4core3ptr190drop_in_place$LT$$LT$alloc..collections..btree..map..IntoIter$LT$K$C$V$C$A$GT$$u20$as$u20$core..ops..drop..Drop$GT$..drop..DropGuard$LT$usize$C$zip321..Payment$C$alloc..alloc..Global$GT$$GT$17hfc1fb5f30267d012E', symObjAddr: 0xED8, symBinAddr: 0x4E870, symSize: 0x24 }
  - { offset: 0x14FEBE, size: 0x8, addend: 0x0, symName: '__ZN4core3ptr204drop_in_place$LT$$LT$T$u20$as$u20$alloc..slice..$LT$impl$u20$$u5b$T$u5d$$GT$..to_vec_in..ConvertVec$GT$..to_vec..DropGuard$LT$zcash_address..kind..unified..address..Receiver$C$alloc..alloc..Global$GT$$GT$17he915120047f81789E', symObjAddr: 0xEFC, symBinAddr: 0x4E894, symSize: 0x24 }
  - { offset: 0x14FEED, size: 0x8, addend: 0x0, symName: '__ZN4core3ptr207drop_in_place$LT$core..option..Option$LT$core..iter..adapters..chain..Chain$LT$core..iter..sources..empty..Empty$LT$alloc..string..String$GT$$C$core..option..IntoIter$LT$alloc..string..String$GT$$GT$$GT$$GT$17h8785e4820a72011eE', symObjAddr: 0xF20, symBinAddr: 0x4E8B8, symSize: 0x4C }
  - { offset: 0x14FF1C, size: 0x8, addend: 0x0, symName: '__ZN4core3ptr218drop_in_place$LT$$LT$alloc..collections..btree..map..IntoIter$LT$K$C$V$C$A$GT$$u20$as$u20$core..ops..drop..Drop$GT$..drop..DropGuard$LT$usize$C$alloc..vec..Vec$LT$zip321..parse..Param$GT$$C$alloc..alloc..Global$GT$$GT$17hbab92166587af165E', symObjAddr: 0xF6C, symBinAddr: 0x4E904, symSize: 0x24 }
  - { offset: 0x14FF4B, size: 0x8, addend: 0x0, symName: '__ZN4core3ptr226drop_in_place$LT$core..iter..adapters..map..Map$LT$alloc..collections..btree..map..IntoIter$LT$usize$C$alloc..vec..Vec$LT$zip321..parse..Param$GT$$GT$$C$zip321..TransactionRequest..from_uri..$u7b$$u7b$closure$u7d$$u7d$$GT$$GT$17h89a304c51d08774cE', symObjAddr: 0xF90, symBinAddr: 0x4E928, symSize: 0x24 }
  - { offset: 0x14FF7A, size: 0x8, addend: 0x0, symName: '__ZN4core3ptr232drop_in_place$LT$alloc..vec..Vec$LT$$LP$usize$C$zip321..Payment$RP$$GT$..extend_trusted$LT$core..iter..adapters..enumerate..Enumerate$LT$alloc..vec..into_iter..IntoIter$LT$zip321..Payment$GT$$GT$$GT$..$u7b$$u7b$closure$u7d$$u7d$$GT$17hb25f183432b3f23cE', symObjAddr: 0xFB4, symBinAddr: 0x4E94C, symSize: 0x24 }
  - { offset: 0x14FFA9, size: 0x8, addend: 0x0, symName: '__ZN4core3ptr273drop_in_place$LT$alloc..collections..btree..node..Handle$LT$alloc..collections..btree..node..NodeRef$LT$alloc..collections..btree..node..marker..Dying$C$K$C$V$C$NodeType$GT$$C$alloc..collections..btree..node..marker..KV$GT$..drop_key_val..Dropper$LT$zip321..Payment$GT$$GT$17h72ff027f9dfd62c5E', symObjAddr: 0xFD8, symBinAddr: 0x4E970, symSize: 0x24 }
  - { offset: 0x14FFD8, size: 0x8, addend: 0x0, symName: '__ZN4core3ptr275drop_in_place$LT$core..iter..adapters..chain..Chain$LT$core..iter..adapters..chain..Chain$LT$core..iter..sources..empty..Empty$LT$alloc..string..String$GT$$C$core..option..IntoIter$LT$alloc..string..String$GT$$GT$$C$core..option..IntoIter$LT$alloc..string..String$GT$$GT$$GT$17h0327085806425f31E', symObjAddr: 0xFFC, symBinAddr: 0x4E994, symSize: 0x5C }
  - { offset: 0x150007, size: 0x8, addend: 0x0, symName: '__ZN4core3ptr301drop_in_place$LT$alloc..collections..btree..node..Handle$LT$alloc..collections..btree..node..NodeRef$LT$alloc..collections..btree..node..marker..Dying$C$K$C$V$C$NodeType$GT$$C$alloc..collections..btree..node..marker..KV$GT$..drop_key_val..Dropper$LT$alloc..vec..Vec$LT$zip321..parse..Param$GT$$GT$$GT$17h02c9bcda005916b9E', symObjAddr: 0x1058, symBinAddr: 0x4E9F0, symSize: 0x24 }
  - { offset: 0x150036, size: 0x8, addend: 0x0, symName: '__ZN4core3ptr303drop_in_place$LT$core..option..Option$LT$core..iter..adapters..chain..Chain$LT$core..iter..adapters..chain..Chain$LT$core..iter..sources..empty..Empty$LT$alloc..string..String$GT$$C$core..option..IntoIter$LT$alloc..string..String$GT$$GT$$C$core..option..IntoIter$LT$alloc..string..String$GT$$GT$$GT$$GT$17hb4c0dea48f19600dE', symObjAddr: 0x107C, symBinAddr: 0x4EA14, symSize: 0x4C }
  - { offset: 0x150065, size: 0x8, addend: 0x0, symName: '__ZN4core3ptr346drop_in_place$LT$core..iter..adapters..GenericShunt$LT$core..iter..adapters..map..Map$LT$alloc..collections..btree..map..IntoIter$LT$usize$C$alloc..vec..Vec$LT$zip321..parse..Param$GT$$GT$$C$zip321..TransactionRequest..from_uri..$u7b$$u7b$closure$u7d$$u7d$$GT$$C$core..result..Result$LT$core..convert..Infallible$C$zip321..Zip321Error$GT$$GT$$GT$17ha1339b1f5a0c9e08E', symObjAddr: 0x10C8, symBinAddr: 0x4EA60, symSize: 0x24 }
  - { offset: 0x150094, size: 0x8, addend: 0x0, symName: '__ZN4core3ptr357drop_in_place$LT$core..iter..traits..iterator..Iterator..for_each..call$LT$$LP$usize$C$zip321..Payment$RP$$C$alloc..vec..Vec$LT$$LP$usize$C$zip321..Payment$RP$$GT$..extend_trusted$LT$core..iter..adapters..enumerate..Enumerate$LT$alloc..vec..into_iter..IntoIter$LT$zip321..Payment$GT$$GT$$GT$..$u7b$$u7b$closure$u7d$$u7d$$GT$..$u7b$$u7b$closure$u7d$$u7d$$GT$17had6d2381aa0464e6E', symObjAddr: 0x10EC, symBinAddr: 0x4EA84, symSize: 0x24 }
  - { offset: 0x1500C3, size: 0x8, addend: 0x0, symName: '__ZN4core3ptr36drop_in_place$LT$zip321..Payment$GT$17hd0959398ae44e022E', symObjAddr: 0x1110, symBinAddr: 0x4EAA8, symSize: 0xEC }
  - { offset: 0x1500F2, size: 0x8, addend: 0x0, symName: '__ZN4core3ptr371drop_in_place$LT$core..iter..adapters..chain..Chain$LT$core..iter..adapters..chain..Chain$LT$core..iter..adapters..chain..Chain$LT$core..iter..sources..empty..Empty$LT$alloc..string..String$GT$$C$core..option..IntoIter$LT$alloc..string..String$GT$$GT$$C$core..option..IntoIter$LT$alloc..string..String$GT$$GT$$C$core..option..IntoIter$LT$alloc..string..String$GT$$GT$$GT$17h0a8b58b1d3fe6e5aE', symObjAddr: 0x11FC, symBinAddr: 0x4EB94, symSize: 0x5C }
  - { offset: 0x150121, size: 0x8, addend: 0x0, symName: '__ZN4core3ptr399drop_in_place$LT$core..option..Option$LT$core..iter..adapters..chain..Chain$LT$core..iter..adapters..chain..Chain$LT$core..iter..adapters..chain..Chain$LT$core..iter..sources..empty..Empty$LT$alloc..string..String$GT$$C$core..option..IntoIter$LT$alloc..string..String$GT$$GT$$C$core..option..IntoIter$LT$alloc..string..String$GT$$GT$$C$core..option..IntoIter$LT$alloc..string..String$GT$$GT$$GT$$GT$17hd3b9247221e12cc5E', symObjAddr: 0x1258, symBinAddr: 0x4EBF0, symSize: 0x4C }
  - { offset: 0x150150, size: 0x8, addend: 0x0, symName: '__ZN4core3ptr40drop_in_place$LT$zip321..Zip321Error$GT$17had6d572ef48fdef7E', symObjAddr: 0x12A4, symBinAddr: 0x4EC3C, symSize: 0x9C }
  - { offset: 0x15017F, size: 0x8, addend: 0x0, symName: '__ZN4core3ptr41drop_in_place$LT$zip321..parse..Param$GT$17hbe1357cb6b693990E', symObjAddr: 0x1340, symBinAddr: 0x4ECD8, symSize: 0x114 }
  - { offset: 0x1501AE, size: 0x8, addend: 0x0, symName: '__ZN4core3ptr467drop_in_place$LT$core..iter..adapters..chain..Chain$LT$core..iter..adapters..chain..Chain$LT$core..iter..adapters..chain..Chain$LT$core..iter..adapters..chain..Chain$LT$core..iter..sources..empty..Empty$LT$alloc..string..String$GT$$C$core..option..IntoIter$LT$alloc..string..String$GT$$GT$$C$core..option..IntoIter$LT$alloc..string..String$GT$$GT$$C$core..option..IntoIter$LT$alloc..string..String$GT$$GT$$C$core..option..IntoIter$LT$alloc..string..String$GT$$GT$$GT$17hda8c16cc8ef7a1b0E', symObjAddr: 0x1454, symBinAddr: 0x4EDEC, symSize: 0x5C }
  - { offset: 0x1501DD, size: 0x8, addend: 0x0, symName: '__ZN4core3ptr46drop_in_place$LT$$u5b$zip321..Payment$u5d$$GT$17hff50623de0b6fbb2E', symObjAddr: 0x14B0, symBinAddr: 0x4EE48, symSize: 0xC4 }
  - { offset: 0x15020C, size: 0x8, addend: 0x0, symName: '__ZN4core3ptr47drop_in_place$LT$zcash_address..AddressKind$GT$17hbecfbc38d82a819cE', symObjAddr: 0x1574, symBinAddr: 0x4EF0C, symSize: 0x44 }
  - { offset: 0x15023B, size: 0x8, addend: 0x0, symName: '__ZN4core3ptr47drop_in_place$LT$zip321..TransactionRequest$GT$17h0341fb5faeef841aE', symObjAddr: 0x15B8, symBinAddr: 0x4EF50, symSize: 0x24 }
  - { offset: 0x15026A, size: 0x8, addend: 0x0, symName: '__ZN4core3ptr48drop_in_place$LT$zcash_address..ZcashAddress$GT$17h168434b3a005e4e4E', symObjAddr: 0x15DC, symBinAddr: 0x4EF74, symSize: 0x24 }
  - { offset: 0x150299, size: 0x8, addend: 0x0, symName: '__ZN4core3ptr48drop_in_place$LT$zip321..parse..IndexedParam$GT$17h102b48929ed37d4aE', symObjAddr: 0x1600, symBinAddr: 0x4EF98, symSize: 0x24 }
  - { offset: 0x1502C8, size: 0x8, addend: 0x0, symName: '__ZN4core3ptr495drop_in_place$LT$core..option..Option$LT$core..iter..adapters..chain..Chain$LT$core..iter..adapters..chain..Chain$LT$core..iter..adapters..chain..Chain$LT$core..iter..adapters..chain..Chain$LT$core..iter..sources..empty..Empty$LT$alloc..string..String$GT$$C$core..option..IntoIter$LT$alloc..string..String$GT$$GT$$C$core..option..IntoIter$LT$alloc..string..String$GT$$GT$$C$core..option..IntoIter$LT$alloc..string..String$GT$$GT$$C$core..option..IntoIter$LT$alloc..string..String$GT$$GT$$GT$$GT$17hac538dcbdf1dde2dE', symObjAddr: 0x1624, symBinAddr: 0x4EFBC, symSize: 0x4C }
  - { offset: 0x1502F7, size: 0x8, addend: 0x0, symName: '__ZN4core3ptr50drop_in_place$LT$alloc..borrow..Cow$LT$str$GT$$GT$17h467f1dcdc6c886f8E', symObjAddr: 0x1670, symBinAddr: 0x4F008, symSize: 0x48 }
  - { offset: 0x150326, size: 0x8, addend: 0x0, symName: '__ZN4core3ptr51drop_in_place$LT$$u5b$zip321..parse..Param$u5d$$GT$17he369f8b91ae71f9dE', symObjAddr: 0x16B8, symBinAddr: 0x4F050, symSize: 0xC4 }
  - { offset: 0x150355, size: 0x8, addend: 0x0, symName: '__ZN4core3ptr52drop_in_place$LT$$LP$usize$C$zip321..Payment$RP$$GT$17hc6b31cec475ec785E', symObjAddr: 0x177C, symBinAddr: 0x4F114, symSize: 0x24 }
  - { offset: 0x150384, size: 0x8, addend: 0x0, symName: '__ZN4core3ptr52drop_in_place$LT$$u5b$alloc..string..String$u5d$$GT$17h7b344abda5bb6644E', symObjAddr: 0x17A0, symBinAddr: 0x4F138, symSize: 0xC4 }
  - { offset: 0x1503B3, size: 0x8, addend: 0x0, symName: '__ZN4core3ptr549drop_in_place$LT$$LT$core..iter..adapters..enumerate..Enumerate$LT$I$GT$$u20$as$u20$core..iter..traits..iterator..Iterator$GT$..fold..enumerate$LT$zip321..Payment$C$$LP$$RP$$C$core..iter..traits..iterator..Iterator..for_each..call$LT$$LP$usize$C$zip321..Payment$RP$$C$alloc..vec..Vec$LT$$LP$usize$C$zip321..Payment$RP$$GT$..extend_trusted$LT$core..iter..adapters..enumerate..Enumerate$LT$alloc..vec..into_iter..IntoIter$LT$zip321..Payment$GT$$GT$$GT$..$u7b$$u7b$closure$u7d$$u7d$$GT$..$u7b$$u7b$closure$u7d$$u7d$$GT$..$u7b$$u7b$closure$u7d$$u7d$$GT$17hb71d98cc0d7ae330E', symObjAddr: 0x1864, symBinAddr: 0x4F1FC, symSize: 0x24 }
  - { offset: 0x1503E2, size: 0x8, addend: 0x0, symName: '__ZN4core3ptr56drop_in_place$LT$zcash_address..encoding..ParseError$GT$17h8b85a4eceeffdb09E', symObjAddr: 0x1888, symBinAddr: 0x4F220, symSize: 0x58 }
  - { offset: 0x150411, size: 0x8, addend: 0x0, symName: '__ZN4core3ptr58drop_in_place$LT$$u5b$zip321..parse..IndexedParam$u5d$$GT$17h5eb7abef0a546191E', symObjAddr: 0x18E0, symBinAddr: 0x4F278, symSize: 0xC4 }
  - { offset: 0x150440, size: 0x8, addend: 0x0, symName: '__ZN4core3ptr59drop_in_place$LT$alloc..vec..Vec$LT$zip321..Payment$GT$$GT$17h7eec3b62e738394aE', symObjAddr: 0x19A4, symBinAddr: 0x4F33C, symSize: 0x5C }
  - { offset: 0x15046F, size: 0x8, addend: 0x0, symName: '__ZN4core3ptr62drop_in_place$LT$$u5b$$LP$usize$C$zip321..Payment$RP$$u5d$$GT$17h9b466f75a6149e37E', symObjAddr: 0x1A00, symBinAddr: 0x4F398, symSize: 0xC4 }
  - { offset: 0x15049E, size: 0x8, addend: 0x0, symName: '__ZN4core3ptr64drop_in_place$LT$alloc..vec..Vec$LT$zip321..parse..Param$GT$$GT$17hae3524eaa2791fbcE', symObjAddr: 0x1AC4, symBinAddr: 0x4F45C, symSize: 0x5C }
  - { offset: 0x1504CD, size: 0x8, addend: 0x0, symName: '__ZN4core3ptr65drop_in_place$LT$alloc..vec..Vec$LT$alloc..string..String$GT$$GT$17hc7a67031f49dda4fE', symObjAddr: 0x1B20, symBinAddr: 0x4F4B8, symSize: 0x5C }
  - { offset: 0x1504FC, size: 0x8, addend: 0x0, symName: '__ZN4core3ptr66drop_in_place$LT$alloc..raw_vec..RawVec$LT$zip321..Payment$GT$$GT$17h7e95e257ec1e0d79E', symObjAddr: 0x1B7C, symBinAddr: 0x4F514, symSize: 0x24 }
  - { offset: 0x15052B, size: 0x8, addend: 0x0, symName: '__ZN4core3ptr67drop_in_place$LT$zcash_address..kind..unified..address..Address$GT$17h2c28a4153bab895bE', symObjAddr: 0x1BA0, symBinAddr: 0x4F538, symSize: 0x24 }
  - { offset: 0x15055A, size: 0x8, addend: 0x0, symName: '__ZN4core3ptr68drop_in_place$LT$core..option..Item$LT$alloc..string..String$GT$$GT$17h49d6cab618a3a9b7E', symObjAddr: 0x1BC4, symBinAddr: 0x4F55C, symSize: 0x24 }
  - { offset: 0x150589, size: 0x8, addend: 0x0, symName: '__ZN4core3ptr70drop_in_place$LT$core..option..Option$LT$alloc..string..String$GT$$GT$17hd0df5605981cd31bE', symObjAddr: 0x1BE8, symBinAddr: 0x4F580, symSize: 0x48 }
  - { offset: 0x1505B8, size: 0x8, addend: 0x0, symName: '__ZN4core3ptr716drop_in_place$LT$core..iter..adapters..chain..Chain$LT$core..iter..adapters..chain..Chain$LT$core..iter..adapters..chain..Chain$LT$core..iter..adapters..chain..Chain$LT$core..iter..adapters..chain..Chain$LT$core..iter..sources..empty..Empty$LT$alloc..string..String$GT$$C$core..option..IntoIter$LT$alloc..string..String$GT$$GT$$C$core..option..IntoIter$LT$alloc..string..String$GT$$GT$$C$core..option..IntoIter$LT$alloc..string..String$GT$$GT$$C$core..option..IntoIter$LT$alloc..string..String$GT$$GT$$C$core..iter..adapters..map..Map$LT$core..slice..iter..Iter$LT$$LP$alloc..string..String$C$alloc..string..String$RP$$GT$$C$zip321..TransactionRequest..to_uri..payment_params..$u7b$$u7b$closure$u7d$$u7d$$GT$$GT$$GT$17h79fe709928bafcb5E', symObjAddr: 0x1C30, symBinAddr: 0x4F5C8, symSize: 0x24 }
  - { offset: 0x1505E7, size: 0x8, addend: 0x0, symName: '__ZN4core3ptr71drop_in_place$LT$alloc..raw_vec..RawVec$LT$zip321..parse..Param$GT$$GT$17h3fc458d31016f1fdE', symObjAddr: 0x1C54, symBinAddr: 0x4F5EC, symSize: 0x24 }
  - { offset: 0x150616, size: 0x8, addend: 0x0, symName: '__ZN4core3ptr71drop_in_place$LT$alloc..vec..Vec$LT$zip321..parse..IndexedParam$GT$$GT$17h09a4d17f206bb287E', symObjAddr: 0x1C78, symBinAddr: 0x4F610, symSize: 0x5C }
  - { offset: 0x150645, size: 0x8, addend: 0x0, symName: '__ZN4core3ptr71drop_in_place$LT$core..array..iter..IntoIter$LT$usize$C$2_usize$GT$$GT$17hd58c31153a54388dE', symObjAddr: 0x1CD4, symBinAddr: 0x4F66C, symSize: 0x5C }
  - { offset: 0x150674, size: 0x8, addend: 0x0, symName: '__ZN4core3ptr72drop_in_place$LT$alloc..collections..btree..mem..replace..PanicGuard$GT$17h7549bb013d5aee47E', symObjAddr: 0x1D30, symBinAddr: 0x4F6C8, symSize: 0x24 }
  - { offset: 0x1506A3, size: 0x8, addend: 0x0, symName: '__ZN4core3ptr72drop_in_place$LT$alloc..raw_vec..RawVec$LT$alloc..string..String$GT$$GT$17he50c0de0887a9efbE', symObjAddr: 0x1D54, symBinAddr: 0x4F6EC, symSize: 0x24 }
  - { offset: 0x1506D2, size: 0x8, addend: 0x0, symName: '__ZN4core3ptr72drop_in_place$LT$core..option..IntoIter$LT$alloc..string..String$GT$$GT$17h6c365882d53d072dE', symObjAddr: 0x1D78, symBinAddr: 0x4F710, symSize: 0x24 }
  - { offset: 0x150701, size: 0x8, addend: 0x0, symName: '__ZN4core3ptr73drop_in_place$LT$alloc..boxed..Box$LT$zcash_address..ZcashAddress$GT$$GT$17h025f63cf02bb15daE', symObjAddr: 0x1D9C, symBinAddr: 0x4F734, symSize: 0x60 }
  - { offset: 0x150730, size: 0x8, addend: 0x0, symName: '__ZN4core3ptr744drop_in_place$LT$core..option..Option$LT$core..iter..adapters..chain..Chain$LT$core..iter..adapters..chain..Chain$LT$core..iter..adapters..chain..Chain$LT$core..iter..adapters..chain..Chain$LT$core..iter..adapters..chain..Chain$LT$core..iter..sources..empty..Empty$LT$alloc..string..String$GT$$C$core..option..IntoIter$LT$alloc..string..String$GT$$GT$$C$core..option..IntoIter$LT$alloc..string..String$GT$$GT$$C$core..option..IntoIter$LT$alloc..string..String$GT$$GT$$C$core..option..IntoIter$LT$alloc..string..String$GT$$GT$$C$core..iter..adapters..map..Map$LT$core..slice..iter..Iter$LT$$LP$alloc..string..String$C$alloc..string..String$RP$$GT$$C$zip321..TransactionRequest..to_uri..payment_params..$u7b$$u7b$closure$u7d$$u7d$$GT$$GT$$GT$$GT$17h3f3f30e03088eb73E', symObjAddr: 0x1DFC, symBinAddr: 0x4F794, symSize: 0x44 }
  - { offset: 0x15075F, size: 0x8, addend: 0x0, symName: '__ZN4core3ptr74drop_in_place$LT$$LP$alloc..string..String$C$alloc..string..String$RP$$GT$17h0757e4454a8d32a1E', symObjAddr: 0x1E40, symBinAddr: 0x4F7D8, symSize: 0x60 }
  - { offset: 0x15078E, size: 0x8, addend: 0x0, symName: '__ZN4core3ptr75drop_in_place$LT$alloc..vec..Vec$LT$$LP$usize$C$zip321..Payment$RP$$GT$$GT$17h67fbc4a8491801d8E', symObjAddr: 0x1EA0, symBinAddr: 0x4F838, symSize: 0x5C }
  - { offset: 0x1507BD, size: 0x8, addend: 0x0, symName: '__ZN4core3ptr75drop_in_place$LT$alloc..vec..into_iter..IntoIter$LT$zip321..Payment$GT$$GT$17h1834546530bce1cdE', symObjAddr: 0x1EFC, symBinAddr: 0x4F894, symSize: 0x24 }
  - { offset: 0x1507EC, size: 0x8, addend: 0x0, symName: '__ZN4core3ptr76drop_in_place$LT$core..option..Option$LT$zip321..parse..IndexedParam$GT$$GT$17h8b4056765b22cd51E', symObjAddr: 0x1F20, symBinAddr: 0x4F8B8, symSize: 0x4C }
  - { offset: 0x15081B, size: 0x8, addend: 0x0, symName: '__ZN4core3ptr77drop_in_place$LT$alloc..boxed..Box$LT$zcash_protocol..memo..MemoBytes$GT$$GT$17h6435e5b84c024198E', symObjAddr: 0x1F6C, symBinAddr: 0x4F904, symSize: 0x60 }
  - { offset: 0x15084A, size: 0x8, addend: 0x0, symName: '__ZN4core3ptr78drop_in_place$LT$alloc..raw_vec..RawVec$LT$zip321..parse..IndexedParam$GT$$GT$17h024d4c41a4934da4E', symObjAddr: 0x1FCC, symBinAddr: 0x4F964, symSize: 0x24 }
  - { offset: 0x150879, size: 0x8, addend: 0x0, symName: '__ZN4core3ptr80drop_in_place$LT$$LP$usize$C$alloc..vec..Vec$LT$zip321..parse..Param$GT$$RP$$GT$17hb3fa34633b79141cE', symObjAddr: 0x1FF0, symBinAddr: 0x4F988, symSize: 0x24 }
  - { offset: 0x1508A8, size: 0x8, addend: 0x0, symName: '__ZN4core3ptr80drop_in_place$LT$alloc..vec..into_iter..IntoIter$LT$zip321..parse..Param$GT$$GT$17h33c5311bb1be0134E', symObjAddr: 0x2014, symBinAddr: 0x4F9AC, symSize: 0x24 }
  - { offset: 0x1508D7, size: 0x8, addend: 0x0, symName: '__ZN4core3ptr80drop_in_place$LT$core..option..Option$LT$$LP$usize$C$zip321..Payment$RP$$GT$$GT$17h8a095a7e55b1f0faE', symObjAddr: 0x2038, symBinAddr: 0x4F9D0, symSize: 0x48 }
  - { offset: 0x150906, size: 0x8, addend: 0x0, symName: '__ZN4core3ptr80drop_in_place$LT$core..option..Option$LT$zcash_protocol..memo..MemoBytes$GT$$GT$17hb05464e972d70708E', symObjAddr: 0x2080, symBinAddr: 0x4FA18, symSize: 0x44 }
  - { offset: 0x150935, size: 0x8, addend: 0x0, symName: '__ZN4core3ptr813drop_in_place$LT$alloc..vec..Vec$LT$alloc..string..String$GT$..extend_trusted$LT$core..iter..adapters..chain..Chain$LT$core..iter..adapters..chain..Chain$LT$core..iter..adapters..chain..Chain$LT$core..iter..adapters..chain..Chain$LT$core..iter..adapters..chain..Chain$LT$core..iter..sources..empty..Empty$LT$alloc..string..String$GT$$C$core..option..IntoIter$LT$alloc..string..String$GT$$GT$$C$core..option..IntoIter$LT$alloc..string..String$GT$$GT$$C$core..option..IntoIter$LT$alloc..string..String$GT$$GT$$C$core..option..IntoIter$LT$alloc..string..String$GT$$GT$$C$core..iter..adapters..map..Map$LT$core..slice..iter..Iter$LT$$LP$alloc..string..String$C$alloc..string..String$RP$$GT$$C$zip321..TransactionRequest..to_uri..payment_params..$u7b$$u7b$closure$u7d$$u7d$$GT$$GT$$GT$..$u7b$$u7b$closure$u7d$$u7d$$GT$17h79c8d77652735e97E', symObjAddr: 0x20C4, symBinAddr: 0x4FA5C, symSize: 0x24 }
  - { offset: 0x150964, size: 0x8, addend: 0x0, symName: '__ZN4core3ptr82drop_in_place$LT$alloc..raw_vec..RawVec$LT$$LP$usize$C$zip321..Payment$RP$$GT$$GT$17h7771f1902cea86ceE', symObjAddr: 0x20E8, symBinAddr: 0x4FA80, symSize: 0x24 }
  - { offset: 0x150993, size: 0x8, addend: 0x0, symName: '__ZN4core3ptr84drop_in_place$LT$$u5b$$LP$alloc..string..String$C$alloc..string..String$RP$$u5d$$GT$17he650c8812177540cE', symObjAddr: 0x210C, symBinAddr: 0x4FAA4, symSize: 0xC4 }
  - { offset: 0x1509C2, size: 0x8, addend: 0x0, symName: '__ZN4core3ptr87drop_in_place$LT$alloc..vec..into_iter..IntoIter$LT$zip321..parse..IndexedParam$GT$$GT$17h5e6c7250fd07014dE', symObjAddr: 0x21D0, symBinAddr: 0x4FB68, symSize: 0x24 }
  - { offset: 0x1509F1, size: 0x8, addend: 0x0, symName: '__ZN4core3ptr919drop_in_place$LT$core..iter..adapters..chain..Chain$LT$core..iter..adapters..chain..Chain$LT$core..iter..sources..empty..Empty$LT$alloc..string..String$GT$$C$core..option..IntoIter$LT$alloc..string..String$GT$$GT$$C$core..iter..adapters..chain..Chain$LT$core..iter..adapters..chain..Chain$LT$core..iter..adapters..chain..Chain$LT$core..iter..adapters..chain..Chain$LT$core..iter..adapters..chain..Chain$LT$core..iter..sources..empty..Empty$LT$alloc..string..String$GT$$C$core..option..IntoIter$LT$alloc..string..String$GT$$GT$$C$core..option..IntoIter$LT$alloc..string..String$GT$$GT$$C$core..option..IntoIter$LT$alloc..string..String$GT$$GT$$C$core..option..IntoIter$LT$alloc..string..String$GT$$GT$$C$core..iter..adapters..map..Map$LT$core..slice..iter..Iter$LT$$LP$alloc..string..String$C$alloc..string..String$RP$$GT$$C$zip321..TransactionRequest..to_uri..payment_params..$u7b$$u7b$closure$u7d$$u7d$$GT$$GT$$GT$$GT$17he2d8440d93f2f540E', symObjAddr: 0x21F4, symBinAddr: 0x4FB8C, symSize: 0x5C }
  - { offset: 0x150A20, size: 0x8, addend: 0x0, symName: '__ZN4core3ptr91drop_in_place$LT$alloc..vec..into_iter..IntoIter$LT$$LP$usize$C$zip321..Payment$RP$$GT$$GT$17h6cf78139603cf60eE', symObjAddr: 0x2250, symBinAddr: 0x4FBE8, symSize: 0x24 }
  - { offset: 0x150A4F, size: 0x8, addend: 0x0, symName: '__ZN4core3ptr928drop_in_place$LT$core..iter..traits..iterator..Iterator..for_each..call$LT$alloc..string..String$C$alloc..vec..Vec$LT$alloc..string..String$GT$..extend_trusted$LT$core..iter..adapters..chain..Chain$LT$core..iter..adapters..chain..Chain$LT$core..iter..adapters..chain..Chain$LT$core..iter..adapters..chain..Chain$LT$core..iter..adapters..chain..Chain$LT$core..iter..sources..empty..Empty$LT$alloc..string..String$GT$$C$core..option..IntoIter$LT$alloc..string..String$GT$$GT$$C$core..option..IntoIter$LT$alloc..string..String$GT$$GT$$C$core..option..IntoIter$LT$alloc..string..String$GT$$GT$$C$core..option..IntoIter$LT$alloc..string..String$GT$$GT$$C$core..iter..adapters..map..Map$LT$core..slice..iter..Iter$LT$$LP$alloc..string..String$C$alloc..string..String$RP$$GT$$C$zip321..TransactionRequest..to_uri..payment_params..$u7b$$u7b$closure$u7d$$u7d$$GT$$GT$$GT$..$u7b$$u7b$closure$u7d$$u7d$$GT$..$u7b$$u7b$closure$u7d$$u7d$$GT$17ha51f97e77e1649e2E', symObjAddr: 0x2274, symBinAddr: 0x4FC0C, symSize: 0x24 }
  - { offset: 0x150A7E, size: 0x8, addend: 0x0, symName: '__ZN4core3ptr92drop_in_place$LT$alloc..collections..btree..map..BTreeMap$LT$usize$C$zip321..Payment$GT$$GT$17hef618cccad8f3c3dE', symObjAddr: 0x2298, symBinAddr: 0x4FC30, symSize: 0x24 }
  - { offset: 0x150AAD, size: 0x8, addend: 0x0, symName: '__ZN4core3ptr92drop_in_place$LT$alloc..collections..btree..map..IntoIter$LT$usize$C$zip321..Payment$GT$$GT$17h9b0b0da4c2dea680E', symObjAddr: 0x22BC, symBinAddr: 0x4FC54, symSize: 0x24 }
  - { offset: 0x150ADC, size: 0x8, addend: 0x0, symName: '__ZN4core3ptr92drop_in_place$LT$core..option..Option$LT$alloc..vec..Vec$LT$zip321..parse..Param$GT$$GT$$GT$17h5a5247a3108eb1efE', symObjAddr: 0x22E0, symBinAddr: 0x4FC78, symSize: 0x48 }
  - { offset: 0x150B0B, size: 0x8, addend: 0x0, symName: '__ZN4core3ptr947drop_in_place$LT$core..option..Option$LT$core..iter..adapters..chain..Chain$LT$core..iter..adapters..chain..Chain$LT$core..iter..sources..empty..Empty$LT$alloc..string..String$GT$$C$core..option..IntoIter$LT$alloc..string..String$GT$$GT$$C$core..iter..adapters..chain..Chain$LT$core..iter..adapters..chain..Chain$LT$core..iter..adapters..chain..Chain$LT$core..iter..adapters..chain..Chain$LT$core..iter..adapters..chain..Chain$LT$core..iter..sources..empty..Empty$LT$alloc..string..String$GT$$C$core..option..IntoIter$LT$alloc..string..String$GT$$GT$$C$core..option..IntoIter$LT$alloc..string..String$GT$$GT$$C$core..option..IntoIter$LT$alloc..string..String$GT$$GT$$C$core..option..IntoIter$LT$alloc..string..String$GT$$GT$$C$core..iter..adapters..map..Map$LT$core..slice..iter..Iter$LT$$LP$alloc..string..String$C$alloc..string..String$RP$$GT$$C$zip321..TransactionRequest..to_uri..payment_params..$u7b$$u7b$closure$u7d$$u7d$$GT$$GT$$GT$$GT$$GT$17h881d6cadd64c00e8E', symObjAddr: 0x2328, symBinAddr: 0x4FCC0, symSize: 0x44 }
  - { offset: 0x150B3A, size: 0x8, addend: 0x0, symName: '__ZN4core3ptr96drop_in_place$LT$core..ops..control_flow..ControlFlow$LT$$LP$usize$C$zip321..Payment$RP$$GT$$GT$17h272b9335229b2c25E', symObjAddr: 0x236C, symBinAddr: 0x4FD04, symSize: 0x48 }
  - { offset: 0x150B69, size: 0x8, addend: 0x0, symName: '__ZN4core3ptr96drop_in_place$LT$core..result..Result$LT$core..convert..Infallible$C$zip321..Zip321Error$GT$$GT$17h345e77828ccc33beE', symObjAddr: 0x23B4, symBinAddr: 0x4FD4C, symSize: 0x30 }
  - { offset: 0x150B98, size: 0x8, addend: 0x0, symName: '__ZN4core3ptr97drop_in_place$LT$alloc..vec..Vec$LT$$LP$alloc..string..String$C$alloc..string..String$RP$$GT$$GT$17hd71f1f83cd5356c7E', symObjAddr: 0x23E4, symBinAddr: 0x4FD7C, symSize: 0x5C }
  - { offset: 0x1520EA, size: 0x8, addend: 0x0, symName: '__ZN107_$LT$core..iter..adapters..fuse..Fuse$LT$I$GT$$u20$as$u20$core..iter..adapters..fuse..FuseImpl$LT$I$GT$$GT$4next17h961b6737c4f134cfE', symObjAddr: 0x0, symBinAddr: 0x4D9E8, symSize: 0x88 }
  - { offset: 0x1526B4, size: 0x8, addend: 0x0, symName: __ZN4core3ops8function5FnMut8call_mut17h13a31098ced48004E, symObjAddr: 0x4EC, symBinAddr: 0x4DED4, symSize: 0x30 }
  - { offset: 0x1526F8, size: 0x8, addend: 0x0, symName: __ZN4core3ops8function5FnMut8call_mut17h4c24457d8ff33972E, symObjAddr: 0x51C, symBinAddr: 0x4DF04, symSize: 0x48 }
  - { offset: 0x15273C, size: 0x8, addend: 0x0, symName: __ZN4core3ops8function5FnMut8call_mut17h58d042e70c8d71aaE, symObjAddr: 0x564, symBinAddr: 0x4DF4C, symSize: 0x30 }
  - { offset: 0x152780, size: 0x8, addend: 0x0, symName: __ZN4core3ops8function5FnMut8call_mut17h75132712ca6a549fE, symObjAddr: 0x594, symBinAddr: 0x4DF7C, symSize: 0x30 }
  - { offset: 0x1527C4, size: 0x8, addend: 0x0, symName: __ZN4core3ops8function5FnMut8call_mut17h7525b43c7407a14bE, symObjAddr: 0x5C4, symBinAddr: 0x4DFAC, symSize: 0x30 }
  - { offset: 0x152808, size: 0x8, addend: 0x0, symName: __ZN4core3ops8function5FnMut8call_mut17h8476955ad3c4e6d4E, symObjAddr: 0x5F4, symBinAddr: 0x4DFDC, symSize: 0x30 }
  - { offset: 0x15284C, size: 0x8, addend: 0x0, symName: __ZN4core3ops8function5FnMut8call_mut17h9f9eabb9bbe064d6E, symObjAddr: 0x624, symBinAddr: 0x4E00C, symSize: 0x48 }
  - { offset: 0x152890, size: 0x8, addend: 0x0, symName: __ZN4core3ops8function5FnMut8call_mut17ha5bf99bf2099e0bdE, symObjAddr: 0x66C, symBinAddr: 0x4E054, symSize: 0x30 }
  - { offset: 0x1528D4, size: 0x8, addend: 0x0, symName: __ZN4core3ops8function5FnMut8call_mut17hd9448f7b42a37974E, symObjAddr: 0x69C, symBinAddr: 0x4E084, symSize: 0x30 }
  - { offset: 0x152918, size: 0x8, addend: 0x0, symName: __ZN4core3ops8function5FnMut8call_mut17he5a195de4a0dc8c8E, symObjAddr: 0x6CC, symBinAddr: 0x4E0B4, symSize: 0x30 }
  - { offset: 0x152962, size: 0x8, addend: 0x0, symName: __ZN4core3ops8function6FnOnce9call_once17h0b84ea6ec227d6f7E, symObjAddr: 0x6FC, symBinAddr: 0x4E0E4, symSize: 0x84 }
  - { offset: 0x1529C3, size: 0x8, addend: 0x0, symName: __ZN4core3ops8function6FnOnce9call_once17h1529bda40520683aE, symObjAddr: 0x780, symBinAddr: 0x4E168, symSize: 0x24 }
  - { offset: 0x152A07, size: 0x8, addend: 0x0, symName: __ZN4core3ops8function6FnOnce9call_once17h2d104470629612ccE, symObjAddr: 0x7A4, symBinAddr: 0x4E18C, symSize: 0x24 }
  - { offset: 0x152A4B, size: 0x8, addend: 0x0, symName: __ZN4core3ops8function6FnOnce9call_once17h36466857eb87da7aE, symObjAddr: 0x7C8, symBinAddr: 0x4E1B0, symSize: 0x24 }
  - { offset: 0x152A8F, size: 0x8, addend: 0x0, symName: __ZN4core3ops8function6FnOnce9call_once17h3cddc52acc9b8722E, symObjAddr: 0x7EC, symBinAddr: 0x4E1D4, symSize: 0x24 }
  - { offset: 0x152AD3, size: 0x8, addend: 0x0, symName: __ZN4core3ops8function6FnOnce9call_once17h479a4289c94d542bE, symObjAddr: 0x810, symBinAddr: 0x4E1F8, symSize: 0x24 }
  - { offset: 0x152B17, size: 0x8, addend: 0x0, symName: __ZN4core3ops8function6FnOnce9call_once17h64ef7e81212fa66bE, symObjAddr: 0x834, symBinAddr: 0x4E21C, symSize: 0x24 }
  - { offset: 0x152B5B, size: 0x8, addend: 0x0, symName: __ZN4core3ops8function6FnOnce9call_once17h6d6e963380b5479aE, symObjAddr: 0x858, symBinAddr: 0x4E240, symSize: 0x28 }
  - { offset: 0x152B9F, size: 0x8, addend: 0x0, symName: __ZN4core3ops8function6FnOnce9call_once17ha1260c17cd7b273eE, symObjAddr: 0x880, symBinAddr: 0x4E268, symSize: 0x6C }
  - { offset: 0x152C00, size: 0x8, addend: 0x0, symName: __ZN4core3ops8function6FnOnce9call_once17hb5cb32b6886e6f5aE, symObjAddr: 0x8EC, symBinAddr: 0x4E2D4, symSize: 0x24 }
  - { offset: 0x152C44, size: 0x8, addend: 0x0, symName: __ZN4core3ops8function6FnOnce9call_once17hb947b0a29c2af29eE, symObjAddr: 0x910, symBinAddr: 0x4E2F8, symSize: 0x24 }
  - { offset: 0x152C88, size: 0x8, addend: 0x0, symName: __ZN4core3ops8function6FnOnce9call_once17hbb7022f030aaa3c5E, symObjAddr: 0x934, symBinAddr: 0x4E31C, symSize: 0x24 }
  - { offset: 0x152CCC, size: 0x8, addend: 0x0, symName: __ZN4core3ops8function6FnOnce9call_once17hcb941d29066f3b63E, symObjAddr: 0x958, symBinAddr: 0x4E340, symSize: 0x24 }
  - { offset: 0x152D10, size: 0x8, addend: 0x0, symName: __ZN4core3ops8function6FnOnce9call_once17hea013b740e8ad2daE, symObjAddr: 0x97C, symBinAddr: 0x4E364, symSize: 0x28 }
  - { offset: 0x152DD6, size: 0x8, addend: 0x0, symName: '__ZN49_$LT$F$u20$as$u20$core..str..pattern..Pattern$GT$13into_searcher17h45463ec76fbebfe4E', symObjAddr: 0x448, symBinAddr: 0x4DE30, symSize: 0x50 }
  - { offset: 0x152E1C, size: 0x8, addend: 0x0, symName: '__ZN49_$LT$F$u20$as$u20$core..str..pattern..Pattern$GT$13into_searcher17h8e90595d64b62e96E', symObjAddr: 0x498, symBinAddr: 0x4DE80, symSize: 0x54 }
  - { offset: 0x152E68, size: 0x8, addend: 0x0, symName: '__ZN53_$LT$F$u20$as$u20$core..str..pattern..MultiCharEq$GT$7matches17h6688613ace77e6d3E', symObjAddr: 0x2EEC, symBinAddr: 0x50884, symSize: 0x28 }
  - { offset: 0x152EAE, size: 0x8, addend: 0x0, symName: '__ZN53_$LT$F$u20$as$u20$core..str..pattern..MultiCharEq$GT$7matches17hadf3ec8175c369b1E', symObjAddr: 0x2F14, symBinAddr: 0x508AC, symSize: 0x28 }
  - { offset: 0x153042, size: 0x8, addend: 0x0, symName: __ZN4core4char7convert18from_u32_unchecked18precondition_check17h7d18a504b62af9a0E, symObjAddr: 0x2440, symBinAddr: 0x4FDD8, symSize: 0x104 }
  - { offset: 0x15314C, size: 0x8, addend: 0x0, symName: __ZN4core4char7methods15encode_utf8_raw17hd510df552aea6d95E, symObjAddr: 0x2544, symBinAddr: 0x4FEDC, symSize: 0x110 }
  - { offset: 0x153233, size: 0x8, addend: 0x0, symName: '__ZN4core4char7methods22_$LT$impl$u20$char$GT$14is_ascii_digit17h178800d07bafdd2cE', symObjAddr: 0x2654, symBinAddr: 0x4FFEC, symSize: 0x64 }
  - { offset: 0x153261, size: 0x8, addend: 0x0, symName: '__ZN4core4char7methods22_$LT$impl$u20$char$GT$19is_ascii_alphabetic17h5d64e281ae33133bE', symObjAddr: 0x26B8, symBinAddr: 0x50050, symSize: 0x9C }
  - { offset: 0x15328F, size: 0x8, addend: 0x0, symName: '__ZN4core4char7methods22_$LT$impl$u20$char$GT$8len_utf817h1c7c61fd7e06648fE', symObjAddr: 0x2754, symBinAddr: 0x500EC, symSize: 0x20 }
  - { offset: 0x1532BD, size: 0x8, addend: 0x0, symName: '__ZN4core4char7methods22_$LT$impl$u20$char$GT$8to_digit17h5b202d6ea5a8b30bE', symObjAddr: 0x2774, symBinAddr: 0x5010C, symSize: 0x14C }
  - { offset: 0x153389, size: 0x8, addend: 0x0, symName: __ZN4core4char7methods25encode_utf8_raw_unchecked17he8b26554eef4c554E, symObjAddr: 0x28C0, symBinAddr: 0x50258, symSize: 0x188 }
  - { offset: 0x153533, size: 0x8, addend: 0x0, symName: __ZN4core4char7methods8len_utf817h893ec86304dfbeebE, symObjAddr: 0x2A48, symBinAddr: 0x503E0, symSize: 0x74 }
  - { offset: 0x153E23, size: 0x8, addend: 0x0, symName: '__ZN4core5slice29_$LT$impl$u20$$u5b$T$u5d$$GT$4iter17ha0f634ac2c0e00c3E', symObjAddr: 0x2ABC, symBinAddr: 0x50454, symSize: 0x28 }
  - { offset: 0x153EBC, size: 0x8, addend: 0x0, symName: __ZN4core5slice3raw14from_raw_parts18precondition_check17h70108701e1da58d7E, symObjAddr: 0x2AE4, symBinAddr: 0x5047C, symSize: 0x1D8 }
  - { offset: 0x15405A, size: 0x8, addend: 0x0, symName: __ZN4core5slice3raw18from_raw_parts_mut18precondition_check17h565c0734f08f89e2E, symObjAddr: 0x2CBC, symBinAddr: 0x50654, symSize: 0x1D8 }
  - { offset: 0x154252, size: 0x8, addend: 0x0, symName: '__ZN4core5slice4iter87_$LT$impl$u20$core..iter..traits..collect..IntoIterator$u20$for$u20$$RF$$u5b$T$u5d$$GT$9into_iter17hc5de2059569b7b7aE', symObjAddr: 0x2E94, symBinAddr: 0x5082C, symSize: 0x58 }
  - { offset: 0x1548F9, size: 0x8, addend: 0x0, symName: __ZN3nom5bytes8complete3tag17h5620cbddbb457399E, symObjAddr: 0x134, symBinAddr: 0x4DB1C, symSize: 0x18 }
  - { offset: 0x154945, size: 0x8, addend: 0x0, symName: '__ZN3nom5bytes8complete3tag28_$u7b$$u7b$closure$u7d$$u7d$17h7d3f2468709fc595E', symObjAddr: 0x14C, symBinAddr: 0x4DB34, symSize: 0x26C }
  - { offset: 0x154AB6, size: 0x8, addend: 0x0, symName: __ZN3nom5bytes8complete9take_till17h3929d64004c6669dE, symObjAddr: 0x3B8, symBinAddr: 0x4DDA0, symSize: 0xC }
  - { offset: 0x154B00, size: 0x8, addend: 0x0, symName: '__ZN3nom5bytes8complete9take_till28_$u7b$$u7b$closure$u7d$$u7d$17hb3c0341d19b815c6E', symObjAddr: 0x3C4, symBinAddr: 0x4DDAC, symSize: 0x58 }
  - { offset: 0x154B5F, size: 0x8, addend: 0x0, symName: '__ZN3nom5bytes8complete9take_till28_$u7b$$u7b$closure$u7d$$u7d$28_$u7b$$u7b$closure$u7d$$u7d$17hf05c8d733c4fe4a2E', symObjAddr: 0x41C, symBinAddr: 0x4DE04, symSize: 0x2C }
  - { offset: 0x154BEE, size: 0x8, addend: 0x0, symName: '__ZN60_$LT$F$u20$as$u20$nom..internal..Parser$LT$I$C$O$C$E$GT$$GT$5parse17h5a4f1bb072063fa5E', symObjAddr: 0x3554, symBinAddr: 0x50EEC, symSize: 0x30 }
  - { offset: 0x154C4F, size: 0x8, addend: 0x0, symName: '__ZN60_$LT$F$u20$as$u20$nom..internal..Parser$LT$I$C$O$C$E$GT$$GT$5parse17h6dfbba952f018d58E', symObjAddr: 0x3584, symBinAddr: 0x50F1C, symSize: 0x30 }
  - { offset: 0x154CB0, size: 0x8, addend: 0x0, symName: '__ZN60_$LT$F$u20$as$u20$nom..internal..Parser$LT$I$C$O$C$E$GT$$GT$5parse17h9e6c7166feb3aef4E', symObjAddr: 0x35B4, symBinAddr: 0x50F4C, symSize: 0x30 }
  - { offset: 0x154D11, size: 0x8, addend: 0x0, symName: '__ZN60_$LT$F$u20$as$u20$nom..internal..Parser$LT$I$C$O$C$E$GT$$GT$5parse17ha465e45ebec1ace6E', symObjAddr: 0x35E4, symBinAddr: 0x50F7C, symSize: 0x30 }
  - { offset: 0x154D72, size: 0x8, addend: 0x0, symName: '__ZN60_$LT$F$u20$as$u20$nom..internal..Parser$LT$I$C$O$C$E$GT$$GT$5parse17hd87e7655533f4edeE', symObjAddr: 0x3614, symBinAddr: 0x50FAC, symSize: 0x30 }
  - { offset: 0x154DD3, size: 0x8, addend: 0x0, symName: '__ZN60_$LT$F$u20$as$u20$nom..internal..Parser$LT$I$C$O$C$E$GT$$GT$5parse17hd8a3519dcd8be952E', symObjAddr: 0x3644, symBinAddr: 0x50FDC, symSize: 0x30 }
  - { offset: 0x155122, size: 0x8, addend: 0x0, symName: '__ZN57_$LT$zip321..parse..Param$u20$as$u20$core..fmt..Debug$GT$3fmt17h67cfb8c731ac66f2E', symObjAddr: 0x2F3C, symBinAddr: 0x508D4, symSize: 0x200 }
  - { offset: 0x155224, size: 0x8, addend: 0x0, symName: __ZN6zip3215parse10to_payment17h96056266a96696caE, symObjAddr: 0x3674, symBinAddr: 0x5100C, symSize: 0x844 }
  - { offset: 0x155382, size: 0x8, addend: 0x0, symName: '__ZN6zip3215parse10to_payment28_$u7b$$u7b$closure$u7d$$u7d$17hdaa3c96ca6237a44E', symObjAddr: 0x3EB8, symBinAddr: 0x51850, symSize: 0x74 }
  - { offset: 0x1553FF, size: 0x8, addend: 0x0, symName: __ZN6zip3215parse10zcashparam17h998ca6f0b376f6d9E, symObjAddr: 0x3F2C, symBinAddr: 0x518C4, symSize: 0x64 }
  - { offset: 0x15542D, size: 0x8, addend: 0x0, symName: __ZN6zip3215parse11alphanum_or17h905e62dbe0202847E, symObjAddr: 0x3F90, symBinAddr: 0x51928, symSize: 0x18 }
  - { offset: 0x155460, size: 0x8, addend: 0x0, symName: '__ZN6zip3215parse11alphanum_or28_$u7b$$u7b$closure$u7d$$u7d$17h31851b6478d4eeceE', symObjAddr: 0x3FA8, symBinAddr: 0x51940, symSize: 0x3C }
  - { offset: 0x1554A4, size: 0x8, addend: 0x0, symName: '__ZN6zip3215parse11alphanum_or28_$u7b$$u7b$closure$u7d$$u7d$28_$u7b$$u7b$closure$u7d$$u7d$17hd4c165bc603bc363E', symObjAddr: 0x3FE4, symBinAddr: 0x5197C, symSize: 0x78 }
  - { offset: 0x15552A, size: 0x8, addend: 0x0, symName: __ZN6zip3215parse12indexed_name17h6ab17f25358e2277E, symObjAddr: 0x405C, symBinAddr: 0x519F4, symSize: 0xD0 }
  - { offset: 0x15557B, size: 0x8, addend: 0x0, symName: '__ZN6zip3215parse12indexed_name28_$u7b$$u7b$closure$u7d$$u7d$17hcd7baab4bac31f1aE', symObjAddr: 0x412C, symBinAddr: 0x51AC4, symSize: 0x70 }
  - { offset: 0x1555BC, size: 0x8, addend: 0x0, symName: __ZN6zip3215parse12parse_amount17h8192acc6370f4e57E, symObjAddr: 0x419C, symBinAddr: 0x51B34, symSize: 0x70 }
  - { offset: 0x1555EF, size: 0x8, addend: 0x0, symName: '__ZN6zip3215parse12parse_amount28_$u7b$$u7b$closure$u7d$$u7d$17h5ba45a1d9d578b23E', symObjAddr: 0x420C, symBinAddr: 0x51BA4, symSize: 0x70 }
  - { offset: 0x155628, size: 0x8, addend: 0x0, symName: '__ZN6zip3215parse12parse_amount28_$u7b$$u7b$closure$u7d$$u7d$17h6ce40f662a8b7c03E', symObjAddr: 0x427C, symBinAddr: 0x51C14, symSize: 0x2E0 }
  - { offset: 0x155790, size: 0x8, addend: 0x0, symName: '__ZN6zip3215parse12parse_amount28_$u7b$$u7b$closure$u7d$$u7d$28_$u7b$$u7b$closure$u7d$$u7d$17h8c196920a86cab16E', symObjAddr: 0x455C, symBinAddr: 0x51EF4, symSize: 0x28 }
  - { offset: 0x1557C9, size: 0x8, addend: 0x0, symName: '__ZN6zip3215parse12parse_amount28_$u7b$$u7b$closure$u7d$$u7d$28_$u7b$$u7b$closure$u7d$$u7d$17hb357cf6fe244c571E', symObjAddr: 0x4584, symBinAddr: 0x51F1C, symSize: 0x34 }
  - { offset: 0x155808, size: 0x8, addend: 0x0, symName: '__ZN6zip3215parse12parse_amount28_$u7b$$u7b$closure$u7d$$u7d$28_$u7b$$u7b$closure$u7d$$u7d$17hddfa5e17f9921019E', symObjAddr: 0x45B8, symBinAddr: 0x51F50, symSize: 0x9C }
  - { offset: 0x1558B1, size: 0x8, addend: 0x0, symName: '__ZN6zip3215parse12parse_amount28_$u7b$$u7b$closure$u7d$$u7d$28_$u7b$$u7b$closure$u7d$$u7d$17hec5f25ace966cfe2E', symObjAddr: 0x4654, symBinAddr: 0x51FEC, symSize: 0x28 }
  - { offset: 0x155908, size: 0x8, addend: 0x0, symName: __ZN6zip3215parse16to_indexed_param17h74916713bfaa2f29E, symObjAddr: 0x467C, symBinAddr: 0x52014, symSize: 0x598 }
  - { offset: 0x155AA8, size: 0x8, addend: 0x0, symName: '__ZN6zip3215parse16to_indexed_param28_$u7b$$u7b$closure$u7d$$u7d$17h23e7d6b7f26d3268E', symObjAddr: 0x4C14, symBinAddr: 0x525AC, symSize: 0x1C }
  - { offset: 0x155AE2, size: 0x8, addend: 0x0, symName: '__ZN6zip3215parse16to_indexed_param28_$u7b$$u7b$closure$u7d$$u7d$17h77987e0a90e1b044E', symObjAddr: 0x4C30, symBinAddr: 0x525C8, symSize: 0x1C }
  - { offset: 0x155B1C, size: 0x8, addend: 0x0, symName: '__ZN6zip3215parse16to_indexed_param28_$u7b$$u7b$closure$u7d$$u7d$17h938d7c39d5fe4711E', symObjAddr: 0x4C4C, symBinAddr: 0x525E4, symSize: 0x28 }
  - { offset: 0x155B55, size: 0x8, addend: 0x0, symName: '__ZN6zip3215parse16to_indexed_param28_$u7b$$u7b$closure$u7d$$u7d$17h9dd4522b141e309dE', symObjAddr: 0x4C74, symBinAddr: 0x5260C, symSize: 0x1C }
  - { offset: 0x155B8F, size: 0x8, addend: 0x0, symName: '__ZN6zip3215parse16to_indexed_param28_$u7b$$u7b$closure$u7d$$u7d$17ha3b8ae37dab06b6cE', symObjAddr: 0x4C90, symBinAddr: 0x52628, symSize: 0x44 }
  - { offset: 0x155BC9, size: 0x8, addend: 0x0, symName: '__ZN6zip3215parse16to_indexed_param28_$u7b$$u7b$closure$u7d$$u7d$17ha84afff99c58703dE', symObjAddr: 0x4CD4, symBinAddr: 0x5266C, symSize: 0x40 }
  - { offset: 0x155C03, size: 0x8, addend: 0x0, symName: '__ZN6zip3215parse16to_indexed_param28_$u7b$$u7b$closure$u7d$$u7d$17hb3ce079ee39bf42aE', symObjAddr: 0x4D14, symBinAddr: 0x526AC, symSize: 0x24 }
  - { offset: 0x155C56, size: 0x8, addend: 0x0, symName: '__ZN6zip3215parse16to_indexed_param28_$u7b$$u7b$closure$u7d$$u7d$17hd24cefda0eaf760aE', symObjAddr: 0x4D38, symBinAddr: 0x526D0, symSize: 0xD0 }
  - { offset: 0x155CE9, size: 0x8, addend: 0x0, symName: '__ZN6zip3215parse16to_indexed_param28_$u7b$$u7b$closure$u7d$$u7d$17hd6e1fecd45570fd1E', symObjAddr: 0x4E08, symBinAddr: 0x527A0, symSize: 0xE0 }
  - { offset: 0x155D29, size: 0x8, addend: 0x0, symName: '__ZN6zip3215parse16to_indexed_param28_$u7b$$u7b$closure$u7d$$u7d$17hd945e7f0d02a2e5fE', symObjAddr: 0x4EE8, symBinAddr: 0x52880, symSize: 0x1C }
  - { offset: 0x155D63, size: 0x8, addend: 0x0, symName: '__ZN6zip3215parse16to_indexed_param28_$u7b$$u7b$closure$u7d$$u7d$17hec23a8b99fa033d2E', symObjAddr: 0x4F04, symBinAddr: 0x5289C, symSize: 0xA4 }
  - { offset: 0x155E19, size: 0x8, addend: 0x0, symName: __ZN6zip3215parse19has_duplicate_param17h4a02323025f89cefE, symObjAddr: 0x4FA8, symBinAddr: 0x52940, symSize: 0x27C }
  - { offset: 0x155EDC, size: 0x8, addend: 0x0, symName: __ZN6zip3215parse5Param4Addr17h3959ee1123808acaE, symObjAddr: 0x5224, symBinAddr: 0x52BBC, symSize: 0x24 }
  - { offset: 0x155F0C, size: 0x8, addend: 0x0, symName: __ZN6zip3215parse5Param4Memo17h8896991852720713E, symObjAddr: 0x5248, symBinAddr: 0x52BE0, symSize: 0x28 }
  - { offset: 0x155F38, size: 0x8, addend: 0x0, symName: __ZN6zip3215parse6qchars17h1d408ee45771839dE, symObjAddr: 0x53B0, symBinAddr: 0x52C08, symSize: 0x64 }
  - { offset: 0x155F66, size: 0x8, addend: 0x0, symName: __ZN6zip3215parse9lead_addr17hf55b4da7c7653a46E, symObjAddr: 0x5414, symBinAddr: 0x52C6C, symSize: 0x80 }
  - { offset: 0x155F99, size: 0x8, addend: 0x0, symName: '__ZN6zip3215parse9lead_addr28_$u7b$$u7b$closure$u7d$$u7d$17h40885e945658bdbeE', symObjAddr: 0x5494, symBinAddr: 0x52CEC, symSize: 0xAC }
  - { offset: 0x155FD2, size: 0x8, addend: 0x0, symName: '__ZN6zip3215parse9lead_addr28_$u7b$$u7b$closure$u7d$$u7d$17h8e5e6a84bc71456dE', symObjAddr: 0x5540, symBinAddr: 0x52D98, symSize: 0x1C }
  - { offset: 0x156010, size: 0x8, addend: 0x0, symName: '__ZN6zip3215parse9lead_addr28_$u7b$$u7b$closure$u7d$$u7d$28_$u7b$$u7b$closure$u7d$$u7d$17h6edd1a9a7bd6e648E', symObjAddr: 0x555C, symBinAddr: 0x52DB4, symSize: 0xB8 }
  - { offset: 0x156080, size: 0x8, addend: 0x0, symName: __ZN6zip3215parse9namechars17he5964a6ef0705f26E, symObjAddr: 0x5614, symBinAddr: 0x52E6C, symSize: 0x64 }
  - { offset: 0x156331, size: 0x8, addend: 0x0, symName: __ZN16percent_encoding14percent_decode17h09efb01b5f4fd18dE, symObjAddr: 0xA4, symBinAddr: 0x4DA8C, symSize: 0x28 }
  - { offset: 0x15635D, size: 0x8, addend: 0x0, symName: __ZN16percent_encoding14percent_encode17h839e6be5a03ab259E, symObjAddr: 0xCC, symBinAddr: 0x4DAB4, symSize: 0x2C }
  - { offset: 0x156397, size: 0x8, addend: 0x0, symName: __ZN16percent_encoding19utf8_percent_encode17hfd8bdd9e16224c5cE, symObjAddr: 0xF8, symBinAddr: 0x4DAE0, symSize: 0x3C }
  - { offset: 0x15775D, size: 0x8, addend: 0x0, symName: '__ZN101_$LT$core..iter..sources..empty..Empty$LT$T$GT$$u20$as$u20$core..iter..traits..iterator..Iterator$GT$4next17h6391e00237b559dbE', symObjAddr: 0x0, symBinAddr: 0x52EDC, symSize: 0x1C }
  - { offset: 0x157955, size: 0x8, addend: 0x0, symName: __ZN3nom8sequence14separated_pair17h856e994f85abe4e9E, symObjAddr: 0x288, symBinAddr: 0x53164, symSize: 0x10 }
  - { offset: 0x1579EA, size: 0x8, addend: 0x0, symName: '__ZN3nom8sequence14separated_pair28_$u7b$$u7b$closure$u7d$$u7d$17h7caa9d90aa6de501E', symObjAddr: 0x298, symBinAddr: 0x53174, symSize: 0x24C }
  - { offset: 0x157B2E, size: 0x8, addend: 0x0, symName: '__ZN3nom8sequence14separated_pair28_$u7b$$u7b$closure$u7d$$u7d$28_$u7b$$u7b$closure$u7d$$u7d$17hf29963f5df60554aE', symObjAddr: 0x4E4, symBinAddr: 0x533C0, symSize: 0x7C }
  - { offset: 0x157C06, size: 0x8, addend: 0x0, symName: __ZN3nom8sequence5tuple17h027ac6e466a0f6d5E, symObjAddr: 0x560, symBinAddr: 0x5343C, symSize: 0x18 }
  - { offset: 0x157C58, size: 0x8, addend: 0x0, symName: __ZN3nom8sequence5tuple17h125f5d25cdb4135fE, symObjAddr: 0x578, symBinAddr: 0x53454, symSize: 0x18 }
  - { offset: 0x157CAA, size: 0x8, addend: 0x0, symName: __ZN3nom8sequence5tuple17h1cccd50ca3b54176E, symObjAddr: 0x590, symBinAddr: 0x5346C, symSize: 0x10 }
  - { offset: 0x157CFC, size: 0x8, addend: 0x0, symName: __ZN3nom8sequence5tuple17heeef97e47af10225E, symObjAddr: 0x5A0, symBinAddr: 0x5347C, symSize: 0xC }
  - { offset: 0x157D4F, size: 0x8, addend: 0x0, symName: '__ZN3nom8sequence5tuple28_$u7b$$u7b$closure$u7d$$u7d$17h1c2de00560bc74e0E', symObjAddr: 0x5AC, symBinAddr: 0x53488, symSize: 0x30 }
  - { offset: 0x157DB2, size: 0x8, addend: 0x0, symName: '__ZN3nom8sequence5tuple28_$u7b$$u7b$closure$u7d$$u7d$17h4befcc6419340b27E', symObjAddr: 0x5DC, symBinAddr: 0x534B8, symSize: 0x30 }
  - { offset: 0x157E15, size: 0x8, addend: 0x0, symName: '__ZN3nom8sequence5tuple28_$u7b$$u7b$closure$u7d$$u7d$17h5fe1e4faa843d3cfE', symObjAddr: 0x60C, symBinAddr: 0x534E8, symSize: 0x30 }
  - { offset: 0x157E78, size: 0x8, addend: 0x0, symName: '__ZN3nom8sequence5tuple28_$u7b$$u7b$closure$u7d$$u7d$17ha3e5a9a60ee1d7a2E', symObjAddr: 0x63C, symBinAddr: 0x53518, symSize: 0x30 }
  - { offset: 0x157F28, size: 0x8, addend: 0x0, symName: __ZN3nom8sequence8preceded17h07275f1f6ed9dd5aE, symObjAddr: 0x66C, symBinAddr: 0x53548, symSize: 0x18 }
  - { offset: 0x157F98, size: 0x8, addend: 0x0, symName: __ZN3nom8sequence8preceded17h355951a22981a137E, symObjAddr: 0x684, symBinAddr: 0x53560, symSize: 0x10 }
  - { offset: 0x158008, size: 0x8, addend: 0x0, symName: __ZN3nom8sequence8preceded17h6a624c0c6ef63f9cE, symObjAddr: 0x694, symBinAddr: 0x53570, symSize: 0x14 }
  - { offset: 0x158078, size: 0x8, addend: 0x0, symName: __ZN3nom8sequence8preceded17he6e262ef90df6ba9E, symObjAddr: 0x6A8, symBinAddr: 0x53584, symSize: 0x28 }
  - { offset: 0x1580ED, size: 0x8, addend: 0x0, symName: '__ZN3nom8sequence8preceded28_$u7b$$u7b$closure$u7d$$u7d$17h0823b9700f1f275fE', symObjAddr: 0x6D0, symBinAddr: 0x535AC, symSize: 0x124 }
  - { offset: 0x1581CC, size: 0x8, addend: 0x0, symName: '__ZN3nom8sequence8preceded28_$u7b$$u7b$closure$u7d$$u7d$17h094229a08aeb98d2E', symObjAddr: 0x7F4, symBinAddr: 0x536D0, symSize: 0x128 }
  - { offset: 0x1582AB, size: 0x8, addend: 0x0, symName: '__ZN3nom8sequence8preceded28_$u7b$$u7b$closure$u7d$$u7d$17hd43e7ea8d96c5458E', symObjAddr: 0x91C, symBinAddr: 0x537F8, symSize: 0x128 }
  - { offset: 0x15838A, size: 0x8, addend: 0x0, symName: '__ZN3nom8sequence8preceded28_$u7b$$u7b$closure$u7d$$u7d$17hf1b173c2f48af413E', symObjAddr: 0xA44, symBinAddr: 0x53920, symSize: 0x128 }
  - { offset: 0x1584ED, size: 0x8, addend: 0x0, symName: '__ZN60_$LT$F$u20$as$u20$nom..internal..Parser$LT$I$C$O$C$E$GT$$GT$5parse17h3da58e76e1216c9bE', symObjAddr: 0x1D9C, symBinAddr: 0x54C78, symSize: 0x30 }
  - { offset: 0x15854E, size: 0x8, addend: 0x0, symName: '__ZN60_$LT$F$u20$as$u20$nom..internal..Parser$LT$I$C$O$C$E$GT$$GT$5parse17h4ce7d2054d3351e5E', symObjAddr: 0x1DCC, symBinAddr: 0x54CA8, symSize: 0x30 }
  - { offset: 0x1585AF, size: 0x8, addend: 0x0, symName: '__ZN60_$LT$F$u20$as$u20$nom..internal..Parser$LT$I$C$O$C$E$GT$$GT$5parse17h77a1e0449bcfe944E', symObjAddr: 0x1DFC, symBinAddr: 0x54CD8, symSize: 0x30 }
  - { offset: 0x158610, size: 0x8, addend: 0x0, symName: '__ZN60_$LT$F$u20$as$u20$nom..internal..Parser$LT$I$C$O$C$E$GT$$GT$5parse17hae7254288e7ed468E', symObjAddr: 0x1E2C, symBinAddr: 0x54D08, symSize: 0x30 }
  - { offset: 0x158671, size: 0x8, addend: 0x0, symName: '__ZN60_$LT$F$u20$as$u20$nom..internal..Parser$LT$I$C$O$C$E$GT$$GT$5parse17hbe6da542dca9b4d1E', symObjAddr: 0x1E5C, symBinAddr: 0x54D38, symSize: 0x30 }
  - { offset: 0x1586D2, size: 0x8, addend: 0x0, symName: '__ZN60_$LT$F$u20$as$u20$nom..internal..Parser$LT$I$C$O$C$E$GT$$GT$5parse17hc4de928a2e0c9fcfE', symObjAddr: 0x1E8C, symBinAddr: 0x54D68, symSize: 0x30 }
  - { offset: 0x158733, size: 0x8, addend: 0x0, symName: '__ZN60_$LT$F$u20$as$u20$nom..internal..Parser$LT$I$C$O$C$E$GT$$GT$5parse17he46ba51999ba1935E', symObjAddr: 0x1EBC, symBinAddr: 0x54D98, symSize: 0x30 }
  - { offset: 0x158794, size: 0x8, addend: 0x0, symName: '__ZN60_$LT$F$u20$as$u20$nom..internal..Parser$LT$I$C$O$C$E$GT$$GT$5parse17hf44db8baa3ffcf81E', symObjAddr: 0x1EEC, symBinAddr: 0x54DC8, symSize: 0x30 }
  - { offset: 0x158C93, size: 0x8, addend: 0x0, symName: '__ZN101_$LT$core..iter..sources..empty..Empty$LT$T$GT$$u20$as$u20$core..iter..traits..iterator..Iterator$GT$4next17h6391e00237b559dbE', symObjAddr: 0x0, symBinAddr: 0x52EDC, symSize: 0x1C }
  - { offset: 0x158CC8, size: 0x8, addend: 0x0, symName: '__ZN101_$LT$core..iter..sources..empty..Empty$LT$T$GT$$u20$as$u20$core..iter..traits..iterator..Iterator$GT$9size_hint17h22d2f790e391a87fE', symObjAddr: 0x1C, symBinAddr: 0x52EF8, symSize: 0x34 }
  - { offset: 0x158D1C, size: 0x8, addend: 0x0, symName: __ZN4core4iter7sources5empty5empty17h2a0e33b980ed05c3E, symObjAddr: 0x18C8, symBinAddr: 0x547A4, symSize: 0x4 }
  - { offset: 0x158E42, size: 0x8, addend: 0x0, symName: __ZN4core4iter6traits8iterator8Iterator4fold17hb7099e66d99d525eE, symObjAddr: 0x179C, symBinAddr: 0x54678, symSize: 0xC0 }
  - { offset: 0x158ED1, size: 0x8, addend: 0x0, symName: __ZN4core4iter6traits8iterator8Iterator5chain17h68dde5bcca595793E, symObjAddr: 0x185C, symBinAddr: 0x54738, symSize: 0x6C }
  - { offset: 0x159A7F, size: 0x8, addend: 0x0, symName: '__ZN4core3str21_$LT$impl$u20$str$GT$11starts_with17h8062692edae59b7aE', symObjAddr: 0xB6C, symBinAddr: 0x53A48, symSize: 0x4C }
  - { offset: 0x159AC5, size: 0x8, addend: 0x0, symName: '__ZN4core3str21_$LT$impl$u20$str$GT$13get_unchecked17h67ceacc43fe20ddfE', symObjAddr: 0xBB8, symBinAddr: 0x53A94, symSize: 0x44 }
  - { offset: 0x159B0B, size: 0x8, addend: 0x0, symName: '__ZN4core3str21_$LT$impl$u20$str$GT$13get_unchecked17he7898c13fe0a69b3E', symObjAddr: 0xBFC, symBinAddr: 0x53AD8, symSize: 0x44 }
  - { offset: 0x159B7B, size: 0x8, addend: 0x0, symName: '__ZN4core3str21_$LT$impl$u20$str$GT$16split_at_checked17hf248feccd5671898E', symObjAddr: 0xC40, symBinAddr: 0x53B1C, symSize: 0x100 }
  - { offset: 0x159C28, size: 0x8, addend: 0x0, symName: '__ZN4core3str21_$LT$impl$u20$str$GT$16trim_end_matches17h904fdad3047ecdbaE', symObjAddr: 0xD40, symBinAddr: 0x53C1C, symSize: 0xF0 }
  - { offset: 0x159D9E, size: 0x8, addend: 0x0, symName: '__ZN4core3str21_$LT$impl$u20$str$GT$18split_at_unchecked17h84b145c6b075600fE', symObjAddr: 0xE30, symBinAddr: 0x53D0C, symSize: 0xE4 }
  - { offset: 0x159F6E, size: 0x8, addend: 0x0, symName: '__ZN4core3str21_$LT$impl$u20$str$GT$3len17hf4274d81fb8e2a6aE', symObjAddr: 0xF14, symBinAddr: 0x53DF0, symSize: 0x1C }
  - { offset: 0x159FC3, size: 0x8, addend: 0x0, symName: '__ZN4core3str21_$LT$impl$u20$str$GT$4find17h33ac4829a68f003fE', symObjAddr: 0xF30, symBinAddr: 0x53E0C, symSize: 0xD0 }
  - { offset: 0x15A050, size: 0x8, addend: 0x0, symName: '__ZN4core3str21_$LT$impl$u20$str$GT$4find17h437c168c80faef43E', symObjAddr: 0x1000, symBinAddr: 0x53EDC, symSize: 0xCC }
  - { offset: 0x15A0DC, size: 0x8, addend: 0x0, symName: '__ZN4core3str21_$LT$impl$u20$str$GT$4find17h4fe1eb10fa07aff2E', symObjAddr: 0x10CC, symBinAddr: 0x53FA8, symSize: 0xAC }
  - { offset: 0x15A168, size: 0x8, addend: 0x0, symName: '__ZN4core3str21_$LT$impl$u20$str$GT$4find17h5335bad3e641c0c1E', symObjAddr: 0x1178, symBinAddr: 0x54054, symSize: 0xAC }
  - { offset: 0x15A1F4, size: 0x8, addend: 0x0, symName: '__ZN4core3str21_$LT$impl$u20$str$GT$4find17h817cb7fed422594eE', symObjAddr: 0x1224, symBinAddr: 0x54100, symSize: 0xAC }
  - { offset: 0x15A280, size: 0x8, addend: 0x0, symName: '__ZN4core3str21_$LT$impl$u20$str$GT$5chars17h8f37399ef908a226E', symObjAddr: 0x12D0, symBinAddr: 0x541AC, symSize: 0x20 }
  - { offset: 0x15A2EE, size: 0x8, addend: 0x0, symName: '__ZN4core3str21_$LT$impl$u20$str$GT$5parse17h8d05d919c718e326E', symObjAddr: 0x12F0, symBinAddr: 0x541CC, symSize: 0x28 }
  - { offset: 0x15A325, size: 0x8, addend: 0x0, symName: '__ZN4core3str21_$LT$impl$u20$str$GT$5parse17hbb1d415e6abc9eb3E', symObjAddr: 0x1318, symBinAddr: 0x541F4, symSize: 0x28 }
  - { offset: 0x15A35C, size: 0x8, addend: 0x0, symName: '__ZN4core3str21_$LT$impl$u20$str$GT$8contains17ha2d4fc7ffd9d7936E', symObjAddr: 0x1340, symBinAddr: 0x5421C, symSize: 0x44 }
  - { offset: 0x15A3A2, size: 0x8, addend: 0x0, symName: '__ZN4core3str21_$LT$impl$u20$str$GT$8is_empty17h204c24ce6d50dc15E', symObjAddr: 0x1384, symBinAddr: 0x54260, symSize: 0x1C }
  - { offset: 0x15A3CE, size: 0x8, addend: 0x0, symName: '__ZN4core3str21_$LT$impl$u20$str$GT$8split_at17h733ecf2512387092E', symObjAddr: 0x13A0, symBinAddr: 0x5427C, symSize: 0x84 }
  - { offset: 0x15A761, size: 0x8, addend: 0x0, symName: '__ZN4core3str74_$LT$impl$u20$core..convert..AsRef$LT$$u5b$u8$u5d$$GT$$u20$for$u20$str$GT$6as_ref17h2b86285be297ffeaE', symObjAddr: 0x1424, symBinAddr: 0x54300, symSize: 0x18 }
  - { offset: 0x15A79A, size: 0x8, addend: 0x0, symName: __ZN4core3str7pattern15ReverseSearcher16next_reject_back17hc5e64317e9229873E, symObjAddr: 0x143C, symBinAddr: 0x54318, symSize: 0x90 }
  - { offset: 0x15A805, size: 0x8, addend: 0x0, symName: __ZN4core3str7pattern8Searcher10next_match17h0a31c9278572b774E, symObjAddr: 0x14CC, symBinAddr: 0x543A8, symSize: 0x90 }
  - { offset: 0x15A866, size: 0x8, addend: 0x0, symName: __ZN4core3str7pattern8Searcher10next_match17h0c61d43b0290c62fE, symObjAddr: 0x155C, symBinAddr: 0x54438, symSize: 0x90 }
  - { offset: 0x15A8C7, size: 0x8, addend: 0x0, symName: __ZN4core3str7pattern8Searcher10next_match17h221196e1dc6900dcE, symObjAddr: 0x15EC, symBinAddr: 0x544C8, symSize: 0x90 }
  - { offset: 0x15A928, size: 0x8, addend: 0x0, symName: __ZN4core3str7pattern8Searcher10next_match17h2b0a60dc67ed9295E, symObjAddr: 0x167C, symBinAddr: 0x54558, symSize: 0x90 }
  - { offset: 0x15A989, size: 0x8, addend: 0x0, symName: __ZN4core3str7pattern8Searcher10next_match17hcb10fbc2d6abf697E, symObjAddr: 0x170C, symBinAddr: 0x545E8, symSize: 0x90 }
  - { offset: 0x15A9F0, size: 0x8, addend: 0x0, symName: '__ZN52_$LT$char$u20$as$u20$core..str..pattern..Pattern$GT$13into_searcher17hb10eae666219e589E', symObjAddr: 0x1954, symBinAddr: 0x54830, symSize: 0x114 }
  - { offset: 0x15AB08, size: 0x8, addend: 0x0, symName: '__ZN52_$LT$char$u20$as$u20$core..str..pattern..Pattern$GT$15is_contained_in17hfaec461282654dc0E', symObjAddr: 0x1A68, symBinAddr: 0x54944, symSize: 0xD8 }
  - { offset: 0x15AC19, size: 0x8, addend: 0x0, symName: '__ZN55_$LT$$RF$str$u20$as$u20$core..str..pattern..Pattern$GT$12is_prefix_of17h865dedf02148cff0E', symObjAddr: 0x1B40, symBinAddr: 0x54A1C, symSize: 0x4C }
  - { offset: 0x15AC80, size: 0x8, addend: 0x0, symName: '__ZN55_$LT$$RF$str$u20$as$u20$core..str..pattern..Pattern$GT$15is_contained_in17h3a402fc6c219d800E', symObjAddr: 0x1B8C, symBinAddr: 0x54A68, symSize: 0x210 }
  - { offset: 0x15B07D, size: 0x8, addend: 0x0, symName: '__ZN80_$LT$core..str..pattern..StrSearcher$u20$as$u20$core..str..pattern..Searcher$GT$10next_match17h45c662b40a2f0c8fE', symObjAddr: 0x1F1C, symBinAddr: 0x54DF8, symSize: 0x148 }
  - { offset: 0x15B109, size: 0x8, addend: 0x0, symName: '__ZN80_$LT$core..str..pattern..StrSearcher$u20$as$u20$core..str..pattern..Searcher$GT$4next17h729c67efd27ebda8E', symObjAddr: 0x2064, symBinAddr: 0x54F40, symSize: 0x454 }
  - { offset: 0x15B41C, size: 0x8, addend: 0x0, symName: '__ZN88_$LT$core..str..pattern..CharSearcher$u20$as$u20$core..str..pattern..ReverseSearcher$GT$9next_back17h281b48f58548e29dE', symObjAddr: 0x24B8, symBinAddr: 0x55394, symSize: 0x1E4 }
  - { offset: 0x15B6F2, size: 0x8, addend: 0x0, symName: '__ZN95_$LT$core..str..pattern..MultiCharEqPattern$LT$C$GT$$u20$as$u20$core..str..pattern..Pattern$GT$13into_searcher17h03dafeabe7c6a86fE', symObjAddr: 0x269C, symBinAddr: 0x55578, symSize: 0xC0 }
  - { offset: 0x15B74E, size: 0x8, addend: 0x0, symName: '__ZN95_$LT$core..str..pattern..MultiCharEqPattern$LT$C$GT$$u20$as$u20$core..str..pattern..Pattern$GT$13into_searcher17h4c8d9a1acc742a38E', symObjAddr: 0x275C, symBinAddr: 0x55638, symSize: 0x90 }
  - { offset: 0x15B7AA, size: 0x8, addend: 0x0, symName: '__ZN95_$LT$core..str..pattern..MultiCharEqPattern$LT$C$GT$$u20$as$u20$core..str..pattern..Pattern$GT$13into_searcher17hdb15bcb5d448709dE', symObjAddr: 0x27EC, symBinAddr: 0x556C8, symSize: 0x90 }
  - { offset: 0x15B806, size: 0x8, addend: 0x0, symName: '__ZN95_$LT$core..str..pattern..MultiCharEqPattern$LT$C$GT$$u20$as$u20$core..str..pattern..Pattern$GT$13into_searcher17hdc38dc2cbeebd8a6E', symObjAddr: 0x287C, symBinAddr: 0x55758, symSize: 0x90 }
  - { offset: 0x15B862, size: 0x8, addend: 0x0, symName: '__ZN95_$LT$core..str..pattern..MultiCharEqPattern$LT$C$GT$$u20$as$u20$core..str..pattern..Pattern$GT$13into_searcher17he6310ba5557dda50E', symObjAddr: 0x290C, symBinAddr: 0x557E8, symSize: 0xAC }
  - { offset: 0x15B8C4, size: 0x8, addend: 0x0, symName: '__ZN97_$LT$core..str..pattern..MultiCharEqSearcher$LT$C$GT$$u20$as$u20$core..str..pattern..Searcher$GT$4next17h18dce586cb67f364E', symObjAddr: 0x29B8, symBinAddr: 0x55894, symSize: 0x138 }
  - { offset: 0x15B9EC, size: 0x8, addend: 0x0, symName: '__ZN97_$LT$core..str..pattern..MultiCharEqSearcher$LT$C$GT$$u20$as$u20$core..str..pattern..Searcher$GT$4next17h473745cebc5e7fcbE', symObjAddr: 0x2AF0, symBinAddr: 0x559CC, symSize: 0x138 }
  - { offset: 0x15BB14, size: 0x8, addend: 0x0, symName: '__ZN97_$LT$core..str..pattern..MultiCharEqSearcher$LT$C$GT$$u20$as$u20$core..str..pattern..Searcher$GT$4next17h6d85fcb602d83a8fE', symObjAddr: 0x2C28, symBinAddr: 0x55B04, symSize: 0x138 }
  - { offset: 0x15BC3C, size: 0x8, addend: 0x0, symName: '__ZN97_$LT$core..str..pattern..MultiCharEqSearcher$LT$C$GT$$u20$as$u20$core..str..pattern..Searcher$GT$4next17ha12cf548e0cff367E', symObjAddr: 0x2D60, symBinAddr: 0x55C3C, symSize: 0x138 }
  - { offset: 0x15BD64, size: 0x8, addend: 0x0, symName: '__ZN97_$LT$core..str..pattern..MultiCharEqSearcher$LT$C$GT$$u20$as$u20$core..str..pattern..Searcher$GT$4next17hddcc45ff88815990E', symObjAddr: 0x2E98, symBinAddr: 0x55D74, symSize: 0x138 }
  - { offset: 0x15BE92, size: 0x8, addend: 0x0, symName: '__ZN99_$LT$core..str..pattern..CharPredicateSearcher$LT$F$GT$$u20$as$u20$core..str..pattern..Searcher$GT$10next_match17h0d137ef00099b22aE', symObjAddr: 0x2FD0, symBinAddr: 0x55EAC, symSize: 0x24 }
  - { offset: 0x15BEC9, size: 0x8, addend: 0x0, symName: '__ZN99_$LT$core..str..pattern..CharPredicateSearcher$LT$F$GT$$u20$as$u20$core..str..pattern..Searcher$GT$10next_match17h0ed1f6e03d95a754E', symObjAddr: 0x2FF4, symBinAddr: 0x55ED0, symSize: 0x24 }
  - { offset: 0x15BF00, size: 0x8, addend: 0x0, symName: '__ZN99_$LT$core..str..pattern..CharPredicateSearcher$LT$F$GT$$u20$as$u20$core..str..pattern..Searcher$GT$10next_match17h398ffd7651b88e1eE', symObjAddr: 0x3018, symBinAddr: 0x55EF4, symSize: 0x24 }
  - { offset: 0x15BF37, size: 0x8, addend: 0x0, symName: '__ZN99_$LT$core..str..pattern..CharPredicateSearcher$LT$F$GT$$u20$as$u20$core..str..pattern..Searcher$GT$10next_match17hb56176648efe8516E', symObjAddr: 0x303C, symBinAddr: 0x55F18, symSize: 0x24 }
  - { offset: 0x15BF6E, size: 0x8, addend: 0x0, symName: '__ZN99_$LT$core..str..pattern..CharPredicateSearcher$LT$F$GT$$u20$as$u20$core..str..pattern..Searcher$GT$10next_match17hffaeb760ce12a591E', symObjAddr: 0x3060, symBinAddr: 0x55F3C, symSize: 0x24 }
  - { offset: 0x15D06F, size: 0x8, addend: 0x0, symName: __ZN4core9panicking19unreachable_display17h8328ce35edbf5c85E, symObjAddr: 0x18CC, symBinAddr: 0x547A8, symSize: 0x88 }
  - { offset: 0x15D55D, size: 0x8, addend: 0x0, symName: '__ZN137_$LT$alloc..collections..btree..dedup_sorted_iter..DedupSortedIter$LT$K$C$V$C$I$GT$$u20$as$u20$core..iter..traits..iterator..Iterator$GT$4next17hd6a15a384c421c81E', symObjAddr: 0x50, symBinAddr: 0x52F2C, symSize: 0x238 }
  - { offset: 0x15E635, size: 0x8, addend: 0x0, symName: '__ZN102_$LT$core..iter..adapters..zip..Zip$LT$A$C$B$GT$$u20$as$u20$core..iter..traits..iterator..Iterator$GT$4next17he9a933bed00136d4E', symObjAddr: 0x0, symBinAddr: 0x55F60, symSize: 0x24 }
  - { offset: 0x15ECEE, size: 0x8, addend: 0x0, symName: '__ZN5alloc11collections5btree3map5entry28VacantEntry$LT$K$C$V$C$A$GT$12insert_entry28_$u7b$$u7b$closure$u7d$$u7d$17hdb3e500c512295ffE', symObjAddr: 0x237C, symBinAddr: 0x57C94, symSize: 0x15C }
  - { offset: 0x15F735, size: 0x8, addend: 0x0, symName: __ZN4core3ptr11write_bytes18precondition_check17h5d326273f84c2c8fE, symObjAddr: 0x410, symBinAddr: 0x56370, symSize: 0x16C }
  - { offset: 0x15F889, size: 0x8, addend: 0x0, symName: __ZN4core3ptr19copy_nonoverlapping18precondition_check17hcf64009d7b4603a6E, symObjAddr: 0x57C, symBinAddr: 0x564DC, symSize: 0x36C }
  - { offset: 0x15FD5C, size: 0x8, addend: 0x0, symName: __ZN4core3ptr4copy18precondition_check17hcad7ffb77f7e96e7E, symObjAddr: 0xF30, symBinAddr: 0x56848, symSize: 0x240 }
  - { offset: 0x160385, size: 0x8, addend: 0x0, symName: '__ZN102_$LT$core..iter..adapters..zip..Zip$LT$A$C$B$GT$$u20$as$u20$core..iter..traits..iterator..Iterator$GT$4next17he9a933bed00136d4E', symObjAddr: 0x0, symBinAddr: 0x55F60, symSize: 0x24 }
  - { offset: 0x1603C9, size: 0x8, addend: 0x0, symName: '__ZN111_$LT$core..iter..adapters..zip..Zip$LT$A$C$B$GT$$u20$as$u20$core..iter..adapters..zip..ZipImpl$LT$A$C$B$GT$$GT$3new17hf0964c8139d88306E', symObjAddr: 0x24, symBinAddr: 0x55F84, symSize: 0xBC }
  - { offset: 0x16045C, size: 0x8, addend: 0x0, symName: '__ZN111_$LT$core..iter..adapters..zip..Zip$LT$A$C$B$GT$$u20$as$u20$core..iter..adapters..zip..ZipImpl$LT$A$C$B$GT$$GT$4next17h8f5a91101dd9ab45E', symObjAddr: 0xE0, symBinAddr: 0x56040, symSize: 0xB0 }
  - { offset: 0x16050F, size: 0x8, addend: 0x0, symName: __ZN4core4iter6traits8iterator8Iterator8position17heea7a98314898a70E, symObjAddr: 0x1170, symBinAddr: 0x56A88, symSize: 0x88 }
  - { offset: 0x1605B4, size: 0x8, addend: 0x0, symName: __ZN4core4iter6traits8iterator8Iterator8try_fold17h64f94c51a4182c65E, symObjAddr: 0x11F8, symBinAddr: 0x56B10, symSize: 0x178 }
  - { offset: 0x1607BD, size: 0x8, addend: 0x0, symName: '__ZN4core3fmt3num50_$LT$impl$u20$core..fmt..Debug$u20$for$u20$u32$GT$3fmt17h72f2d54551069334E', symObjAddr: 0x190, symBinAddr: 0x560F0, symSize: 0x90 }
  - { offset: 0x160837, size: 0x8, addend: 0x0, symName: '__ZN4core3fmt3num50_$LT$impl$u20$core..fmt..Debug$u20$for$u20$u64$GT$3fmt17h3ce36d8e3aa12a45E', symObjAddr: 0x220, symBinAddr: 0x56180, symSize: 0x90 }
  - { offset: 0x1608B1, size: 0x8, addend: 0x0, symName: '__ZN4core3fmt3num52_$LT$impl$u20$core..fmt..Debug$u20$for$u20$usize$GT$3fmt17he4309d010e70c963E', symObjAddr: 0x2B0, symBinAddr: 0x56210, symSize: 0x90 }
  - { offset: 0x160D34, size: 0x8, addend: 0x0, symName: __ZN4core5slice4sort6stable5merge5merge17hbc7bc73def5db573E, symObjAddr: 0x1A70, symBinAddr: 0x57388, symSize: 0x334 }
  - { offset: 0x160FA6, size: 0x8, addend: 0x0, symName: __ZN4core5slice4sort6stable5merge5merge17hcf2f684d8a5b3257E, symObjAddr: 0x1DA4, symBinAddr: 0x576BC, symSize: 0x334 }
  - { offset: 0x16121D, size: 0x8, addend: 0x0, symName: '__ZN95_$LT$core..slice..sort..stable..merge..MergeState$LT$T$GT$$u20$as$u20$core..ops..drop..Drop$GT$4drop17h64770c57934d5aa8E', symObjAddr: 0x25D0, symBinAddr: 0x57EE8, symSize: 0xF4 }
  - { offset: 0x161EB9, size: 0x8, addend: 0x0, symName: __ZN4core3fmt8builders9DebugList7entries17h72c081be8eb1cc42E, symObjAddr: 0x340, symBinAddr: 0x562A0, symSize: 0xD0 }
  - { offset: 0x1622C5, size: 0x8, addend: 0x0, symName: '__ZN4core5slice4sort6stable5merge19MergeState$LT$T$GT$10merge_down17h7530390a37fd4de5E', symObjAddr: 0x1370, symBinAddr: 0x56C88, symSize: 0x1E0 }
  - { offset: 0x162475, size: 0x8, addend: 0x0, symName: '__ZN4core5slice4sort6stable5merge19MergeState$LT$T$GT$10merge_down17h78f087a33a0bcefcE', symObjAddr: 0x1550, symBinAddr: 0x56E68, symSize: 0x1E0 }
  - { offset: 0x16260B, size: 0x8, addend: 0x0, symName: '__ZN4core5slice4sort6stable5merge19MergeState$LT$T$GT$8merge_up17h6bdc9459d8b9f0f5E', symObjAddr: 0x1730, symBinAddr: 0x57048, symSize: 0x1A0 }
  - { offset: 0x162751, size: 0x8, addend: 0x0, symName: '__ZN4core5slice4sort6stable5merge19MergeState$LT$T$GT$8merge_up17ha50312960c569301E', symObjAddr: 0x18D0, symBinAddr: 0x571E8, symSize: 0x1A0 }
  - { offset: 0x162CAF, size: 0x8, addend: 0x0, symName: '__ZN5alloc11collections5btree3map5entry28VacantEntry$LT$K$C$V$C$A$GT$12insert_entry17h18e459b12144ae1dE', symObjAddr: 0x20D8, symBinAddr: 0x579F0, symSize: 0x2A4 }
  - { offset: 0x16307D, size: 0x8, addend: 0x0, symName: '__ZN5alloc11collections5btree3map5entry30OccupiedEntry$LT$K$C$V$C$A$GT$6insert17hf847eb25821b75c1E', symObjAddr: 0x24D8, symBinAddr: 0x57DF0, symSize: 0xA0 }
  - { offset: 0x163107, size: 0x8, addend: 0x0, symName: '__ZN5alloc11collections5btree3map5entry30OccupiedEntry$LT$K$C$V$C$A$GT$8into_mut17hdc999db811459c31E', symObjAddr: 0x2578, symBinAddr: 0x57E90, symSize: 0x58 }
  - { offset: 0x163209, size: 0x8, addend: 0x0, symName: '__ZN100_$LT$core..array..iter..iter_inner..PolymorphicIter$LT$DATA$GT$$u20$as$u20$core..ops..drop..Drop$GT$4drop17h47d2607cc5dbb073E', symObjAddr: 0x0, symBinAddr: 0x57FDC, symSize: 0x38 }
  - { offset: 0x163311, size: 0x8, addend: 0x0, symName: '__ZN45_$LT$T$u20$as$u20$alloc..string..ToString$GT$9to_string17h7164ee30daed3b2eE', symObjAddr: 0x2B10, symBinAddr: 0x5AAEC, symSize: 0x24 }
  - { offset: 0x16334E, size: 0x8, addend: 0x0, symName: '__ZN49_$LT$T$u20$as$u20$alloc..string..SpecToString$GT$14spec_to_string17h03e52d0f7d729a31E', symObjAddr: 0x2C0C, symBinAddr: 0x5ABE8, symSize: 0xF4 }
  - { offset: 0x16343C, size: 0x8, addend: 0x0, symName: '__ZN65_$LT$alloc..string..String$u20$as$u20$core..ops..deref..Deref$GT$5deref17h500545aefe1bec4dE', symObjAddr: 0x3CA8, symBinAddr: 0x5BBE4, symSize: 0x24 }
  - { offset: 0x163470, size: 0x8, addend: 0x0, symName: '__ZN58_$LT$alloc..string..String$u20$as$u20$core..fmt..Debug$GT$3fmt17heffa49f87cb03946E', symObjAddr: 0x3028, symBinAddr: 0x5AF64, symSize: 0x88 }
  - { offset: 0x1635D5, size: 0x8, addend: 0x0, symName: '__ZN58_$LT$alloc..string..String$u20$as$u20$core..fmt..Write$GT$10write_char17h0fc57a5aeb5a3b15E', symObjAddr: 0x30B0, symBinAddr: 0x5AFEC, symSize: 0x38 }
  - { offset: 0x163612, size: 0x8, addend: 0x0, symName: '__ZN58_$LT$alloc..string..String$u20$as$u20$core..fmt..Write$GT$9write_str17h14fc7a2dc891cfcdE', symObjAddr: 0x30E8, symBinAddr: 0x5B024, symSize: 0x40 }
  - { offset: 0x163676, size: 0x8, addend: 0x0, symName: '__ZN62_$LT$alloc..string..String$u20$as$u20$core..cmp..PartialEq$GT$2eq17hf8d5f86f35197f7aE', symObjAddr: 0x3A8C, symBinAddr: 0x5B9C8, symSize: 0x2C }
  - { offset: 0x1636B9, size: 0x8, addend: 0x0, symName: '__ZN65_$LT$alloc..string..FromUtf8Error$u20$as$u20$core..fmt..Debug$GT$3fmt17hcd190e90910dc802E', symObjAddr: 0x3C20, symBinAddr: 0x5BB5C, symSize: 0x88 }
  - { offset: 0x1636FC, size: 0x8, addend: 0x0, symName: '__ZN74_$LT$alloc..string..String$u20$as$u20$core..ops..index..Index$LT$I$GT$$GT$5index17h3840b540aba0ea0bE', symObjAddr: 0x3E68, symBinAddr: 0x5BDA4, symSize: 0x84 }
  - { offset: 0x163B24, size: 0x8, addend: 0x0, symName: '__ZN59_$LT$alloc..alloc..Global$u20$as$u20$core..clone..Clone$GT$5clone17h574d0a1043da512cE', symObjAddr: 0x3128, symBinAddr: 0x5B064, symSize: 0x10 }
  - { offset: 0x163B7A, size: 0x8, addend: 0x0, symName: '__ZN63_$LT$alloc..alloc..Global$u20$as$u20$core..alloc..Allocator$GT$10deallocate17ha0e0ac77293c0242E', symObjAddr: 0x3AB8, symBinAddr: 0x5B9F4, symSize: 0x80 }
  - { offset: 0x163C41, size: 0x8, addend: 0x0, symName: '__ZN63_$LT$alloc..alloc..Global$u20$as$u20$core..alloc..Allocator$GT$8allocate17h7e6c6b276bb09265E', symObjAddr: 0x3B38, symBinAddr: 0x5BA74, symSize: 0x34 }
  - { offset: 0x163C7C, size: 0x8, addend: 0x0, symName: __ZN5alloc5alloc15exchange_malloc17hd9f68266ca61d222E, symObjAddr: 0x31B4, symBinAddr: 0x5B0F0, symSize: 0xAC }
  - { offset: 0x163F45, size: 0x8, addend: 0x0, symName: '__ZN5alloc3str75_$LT$impl$u20$alloc..slice..Join$LT$$RF$str$GT$$u20$for$u20$$u5b$S$u5d$$GT$4join17h6734b3e562af5979E', symObjAddr: 0x3138, symBinAddr: 0x5B074, symSize: 0x50 }
  - { offset: 0x163FAB, size: 0x8, addend: 0x0, symName: '__ZN5alloc3str83_$LT$impl$u20$core..borrow..Borrow$LT$str$GT$$u20$for$u20$alloc..string..String$GT$6borrow17h22c241cd15bf1901E', symObjAddr: 0x3188, symBinAddr: 0x5B0C4, symSize: 0x2C }
  - { offset: 0x163FE3, size: 0x8, addend: 0x0, symName: '__ZN5alloc5slice29_$LT$impl$u20$$u5b$T$u5d$$GT$4join17h0dd29c73322e80f1E', symObjAddr: 0x345C, symBinAddr: 0x5B398, symSize: 0x34 }
  - { offset: 0x1648F9, size: 0x8, addend: 0x0, symName: '__ZN49_$LT$F$u20$as$u20$core..str..pattern..Pattern$GT$13into_searcher17h1734e0192a04ab76E', symObjAddr: 0x2B34, symBinAddr: 0x5AB10, symSize: 0x48 }
  - { offset: 0x16493F, size: 0x8, addend: 0x0, symName: '__ZN49_$LT$F$u20$as$u20$core..str..pattern..Pattern$GT$13into_searcher17h878d1cdcd09f069cE', symObjAddr: 0x2B7C, symBinAddr: 0x5AB58, symSize: 0x48 }
  - { offset: 0x164985, size: 0x8, addend: 0x0, symName: '__ZN49_$LT$F$u20$as$u20$core..str..pattern..Pattern$GT$13into_searcher17hfd40b35f6363ca9aE', symObjAddr: 0x2BC4, symBinAddr: 0x5ABA0, symSize: 0x48 }
  - { offset: 0x1649D1, size: 0x8, addend: 0x0, symName: '__ZN53_$LT$F$u20$as$u20$core..str..pattern..MultiCharEq$GT$7matches17h58d6724fca399c5dE', symObjAddr: 0x2FB0, symBinAddr: 0x5AEEC, symSize: 0x28 }
  - { offset: 0x164A17, size: 0x8, addend: 0x0, symName: '__ZN53_$LT$F$u20$as$u20$core..str..pattern..MultiCharEq$GT$7matches17h63d1ac629ab16b98E', symObjAddr: 0x2FD8, symBinAddr: 0x5AF14, symSize: 0x28 }
  - { offset: 0x164A5D, size: 0x8, addend: 0x0, symName: '__ZN53_$LT$F$u20$as$u20$core..str..pattern..MultiCharEq$GT$7matches17h83050ad7bb1c31ddE', symObjAddr: 0x3000, symBinAddr: 0x5AF3C, symSize: 0x28 }
  - { offset: 0x1650EE, size: 0x8, addend: 0x0, symName: '__ZN100_$LT$core..array..iter..iter_inner..PolymorphicIter$LT$DATA$GT$$u20$as$u20$core..ops..drop..Drop$GT$4drop17h47d2607cc5dbb073E', symObjAddr: 0x0, symBinAddr: 0x57FDC, symSize: 0x38 }
  - { offset: 0x165245, size: 0x8, addend: 0x0, symName: '__ZN42_$LT$$RF$T$u20$as$u20$core..fmt..Debug$GT$3fmt17h388543e3c7b166f3E', symObjAddr: 0x2AB0, symBinAddr: 0x5AA8C, symSize: 0x30 }
  - { offset: 0x16528B, size: 0x8, addend: 0x0, symName: '__ZN42_$LT$$RF$T$u20$as$u20$core..fmt..Debug$GT$3fmt17hc3abf6290e252fa2E', symObjAddr: 0x2AE0, symBinAddr: 0x5AABC, symSize: 0x30 }
  - { offset: 0x1653F1, size: 0x8, addend: 0x0, symName: '__ZN4core3cmp5impls69_$LT$impl$u20$core..cmp..PartialEq$LT$$RF$B$GT$$u20$for$u20$$RF$A$GT$2eq17heddf682316dfbb36E', symObjAddr: 0x2D00, symBinAddr: 0x5ACDC, symSize: 0x34 }
  - { offset: 0x16545C, size: 0x8, addend: 0x0, symName: '__ZN4core4iter8adapters8peekable17Peekable$LT$I$GT$4peek28_$u7b$$u7b$closure$u7d$$u7d$17h6c61a0b5c8972dc1E', symObjAddr: 0x2D34, symBinAddr: 0x5AD10, symSize: 0x24 }
  - { offset: 0x165609, size: 0x8, addend: 0x0, symName: '__ZN4core5slice29_$LT$impl$u20$$u5b$T$u5d$$GT$4iter17h14138753b916d136E', symObjAddr: 0x2F88, symBinAddr: 0x5AEC4, symSize: 0x28 }
  - { offset: 0x1663C2, size: 0x8, addend: 0x0, symName: __ZN3nom10combinator13all_consuming17h6a369582f4dda208E, symObjAddr: 0x38, symBinAddr: 0x58014, symSize: 0x10 }
  - { offset: 0x166414, size: 0x8, addend: 0x0, symName: __ZN3nom10combinator13all_consuming17h77cae9adbb9089bfE, symObjAddr: 0x48, symBinAddr: 0x58024, symSize: 0x14 }
  - { offset: 0x16646B, size: 0x8, addend: 0x0, symName: '__ZN3nom10combinator13all_consuming28_$u7b$$u7b$closure$u7d$$u7d$17h1fd2c4c8608a21beE', symObjAddr: 0x5C, symBinAddr: 0x58038, symSize: 0x1F0 }
  - { offset: 0x166513, size: 0x8, addend: 0x0, symName: '__ZN3nom10combinator13all_consuming28_$u7b$$u7b$closure$u7d$$u7d$17hc33dac133ed8d3e8E', symObjAddr: 0x24C, symBinAddr: 0x58228, symSize: 0x21C }
  - { offset: 0x1665E2, size: 0x8, addend: 0x0, symName: __ZN3nom10combinator3opt17h03f416bcb19a773cE, symObjAddr: 0x468, symBinAddr: 0x58444, symSize: 0x18 }
  - { offset: 0x166632, size: 0x8, addend: 0x0, symName: __ZN3nom10combinator3opt17h8897bc7c75aed3efE, symObjAddr: 0x480, symBinAddr: 0x5845C, symSize: 0x10 }
  - { offset: 0x166687, size: 0x8, addend: 0x0, symName: '__ZN3nom10combinator3opt28_$u7b$$u7b$closure$u7d$$u7d$17h45d9cf4a685be622E', symObjAddr: 0x490, symBinAddr: 0x5846C, symSize: 0x1E8 }
  - { offset: 0x166765, size: 0x8, addend: 0x0, symName: '__ZN3nom10combinator3opt28_$u7b$$u7b$closure$u7d$$u7d$17ha06ba6840d204521E', symObjAddr: 0x678, symBinAddr: 0x58654, symSize: 0x1E8 }
  - { offset: 0x16686A, size: 0x8, addend: 0x0, symName: __ZN3nom10combinator7map_opt17ha472f70e8bd38d01E, symObjAddr: 0x860, symBinAddr: 0x5883C, symSize: 0xC }
  - { offset: 0x1668D6, size: 0x8, addend: 0x0, symName: __ZN3nom10combinator7map_opt17hcbd66e837c5f4b08E, symObjAddr: 0x86C, symBinAddr: 0x58848, symSize: 0x18 }
  - { offset: 0x166946, size: 0x8, addend: 0x0, symName: __ZN3nom10combinator7map_opt17hdddf93ff765eb098E, symObjAddr: 0x884, symBinAddr: 0x58860, symSize: 0xC }
  - { offset: 0x1669B7, size: 0x8, addend: 0x0, symName: '__ZN3nom10combinator7map_opt28_$u7b$$u7b$closure$u7d$$u7d$17hb4e2b362724523ddE', symObjAddr: 0x890, symBinAddr: 0x5886C, symSize: 0x2CC }
  - { offset: 0x166AD1, size: 0x8, addend: 0x0, symName: '__ZN3nom10combinator7map_opt28_$u7b$$u7b$closure$u7d$$u7d$17hd8b9a595bf458d46E', symObjAddr: 0xB5C, symBinAddr: 0x58B38, symSize: 0x2B4 }
  - { offset: 0x166BE9, size: 0x8, addend: 0x0, symName: '__ZN3nom10combinator7map_opt28_$u7b$$u7b$closure$u7d$$u7d$17hdaaf8eae6b6a0dcaE', symObjAddr: 0xE10, symBinAddr: 0x58DEC, symSize: 0x2B4 }
  - { offset: 0x166D5C, size: 0x8, addend: 0x0, symName: __ZN3nom10combinator7map_res17h1460e542af8390f3E, symObjAddr: 0x10C4, symBinAddr: 0x590A0, symSize: 0x10 }
  - { offset: 0x166DD5, size: 0x8, addend: 0x0, symName: __ZN3nom10combinator7map_res17h75d0ac65adfff57aE, symObjAddr: 0x10D4, symBinAddr: 0x590B0, symSize: 0x10 }
  - { offset: 0x166E53, size: 0x8, addend: 0x0, symName: '__ZN3nom10combinator7map_res28_$u7b$$u7b$closure$u7d$$u7d$17hb783f1aad3eac8bbE', symObjAddr: 0x10E4, symBinAddr: 0x590C0, symSize: 0x2F8 }
  - { offset: 0x166F8B, size: 0x8, addend: 0x0, symName: '__ZN3nom10combinator7map_res28_$u7b$$u7b$closure$u7d$$u7d$17hfdfeafcbe90c54e9E', symObjAddr: 0x13DC, symBinAddr: 0x593B8, symSize: 0x33C }
  - { offset: 0x167101, size: 0x8, addend: 0x0, symName: __ZN3nom10combinator9recognize17h120bfe0130f71165E, symObjAddr: 0x1718, symBinAddr: 0x596F4, symSize: 0xC }
  - { offset: 0x16714F, size: 0x8, addend: 0x0, symName: __ZN3nom10combinator9recognize17h86f39ea317555546E, symObjAddr: 0x1724, symBinAddr: 0x59700, symSize: 0xC }
  - { offset: 0x16719D, size: 0x8, addend: 0x0, symName: __ZN3nom10combinator9recognize17hac1aed106c56a521E, symObjAddr: 0x1730, symBinAddr: 0x5970C, symSize: 0x18 }
  - { offset: 0x1671F4, size: 0x8, addend: 0x0, symName: '__ZN3nom10combinator9recognize28_$u7b$$u7b$closure$u7d$$u7d$17h3fcc1cb5ae422d85E', symObjAddr: 0x1748, symBinAddr: 0x59724, symSize: 0x204 }
  - { offset: 0x1672E1, size: 0x8, addend: 0x0, symName: '__ZN3nom10combinator9recognize28_$u7b$$u7b$closure$u7d$$u7d$17h7062e3f2f0291987E', symObjAddr: 0x194C, symBinAddr: 0x59928, symSize: 0x1E0 }
  - { offset: 0x1673CE, size: 0x8, addend: 0x0, symName: '__ZN3nom10combinator9recognize28_$u7b$$u7b$closure$u7d$$u7d$17heccfcb83e3cef8beE', symObjAddr: 0x1B2C, symBinAddr: 0x59B08, symSize: 0x1E0 }
  - { offset: 0x1674FB, size: 0x8, addend: 0x0, symName: __ZN3nom5multi15separated_list017h7a22a883596b5a2fE, symObjAddr: 0x1D0C, symBinAddr: 0x59CE8, symSize: 0x10 }
  - { offset: 0x167570, size: 0x8, addend: 0x0, symName: '__ZN3nom5multi15separated_list028_$u7b$$u7b$closure$u7d$$u7d$17h72c79b16f3600649E', symObjAddr: 0x1D1C, symBinAddr: 0x59CF8, symSize: 0x7A4 }
  - { offset: 0x167762, size: 0x8, addend: 0x0, symName: __ZN3nom9character8complete4char17h4197399a1d8b0707E, symObjAddr: 0x24C0, symBinAddr: 0x5A49C, symSize: 0x10 }
  - { offset: 0x1677A5, size: 0x8, addend: 0x0, symName: '__ZN3nom9character8complete4char28_$u7b$$u7b$closure$u7d$$u7d$17h2e6fe3e52066eb8cE', symObjAddr: 0x24D0, symBinAddr: 0x5A4AC, symSize: 0x1F0 }
  - { offset: 0x167816, size: 0x8, addend: 0x0, symName: '__ZN3nom9character8complete4char28_$u7b$$u7b$closure$u7d$$u7d$28_$u7b$$u7b$closure$u7d$$u7d$17h053949178822c004E', symObjAddr: 0x26C0, symBinAddr: 0x5A69C, symSize: 0x48 }
  - { offset: 0x167879, size: 0x8, addend: 0x0, symName: __ZN3nom9character8complete6alpha117h0eece8950da58d59E, symObjAddr: 0x2708, symBinAddr: 0x5A6E4, symSize: 0x4C }
  - { offset: 0x1678BE, size: 0x8, addend: 0x0, symName: '__ZN3nom9character8complete6alpha128_$u7b$$u7b$closure$u7d$$u7d$17h9cbb12fe0f707330E', symObjAddr: 0x2754, symBinAddr: 0x5A730, symSize: 0x30 }
  - { offset: 0x167911, size: 0x8, addend: 0x0, symName: __ZN3nom9character8complete6digit017h4c94fed9c52491e5E, symObjAddr: 0x2784, symBinAddr: 0x5A760, symSize: 0x48 }
  - { offset: 0x167956, size: 0x8, addend: 0x0, symName: '__ZN3nom9character8complete6digit028_$u7b$$u7b$closure$u7d$$u7d$17he65cf9e70bd8a356E', symObjAddr: 0x27CC, symBinAddr: 0x5A7A8, symSize: 0x30 }
  - { offset: 0x1679A9, size: 0x8, addend: 0x0, symName: __ZN3nom9character8complete6digit117he67390a0b97dafb5E, symObjAddr: 0x27FC, symBinAddr: 0x5A7D8, symSize: 0x4C }
  - { offset: 0x1679EE, size: 0x8, addend: 0x0, symName: '__ZN3nom9character8complete6digit128_$u7b$$u7b$closure$u7d$$u7d$17h5a30ecc4a7d74b98E', symObjAddr: 0x2848, symBinAddr: 0x5A824, symSize: 0x30 }
  - { offset: 0x167A41, size: 0x8, addend: 0x0, symName: __ZN3nom9character8complete6one_of17h6f9f919fa65c8df9E, symObjAddr: 0x2878, symBinAddr: 0x5A854, symSize: 0x18 }
  - { offset: 0x167A8D, size: 0x8, addend: 0x0, symName: '__ZN3nom9character8complete6one_of28_$u7b$$u7b$closure$u7d$$u7d$17he3b035f95f6573baE', symObjAddr: 0x2890, symBinAddr: 0x5A86C, symSize: 0x1EC }
  - { offset: 0x167B07, size: 0x8, addend: 0x0, symName: '__ZN3nom9character8complete6one_of28_$u7b$$u7b$closure$u7d$$u7d$28_$u7b$$u7b$closure$u7d$$u7d$17hb8fcc77ee8283705E', symObjAddr: 0x2A7C, symBinAddr: 0x5AA58, symSize: 0x34 }
  - { offset: 0x167B7F, size: 0x8, addend: 0x0, symName: '__ZN60_$LT$F$u20$as$u20$nom..internal..Parser$LT$I$C$O$C$E$GT$$GT$5parse17h0124ba3811b8a621E', symObjAddr: 0x37EC, symBinAddr: 0x5B728, symSize: 0x30 }
  - { offset: 0x167BE0, size: 0x8, addend: 0x0, symName: '__ZN60_$LT$F$u20$as$u20$nom..internal..Parser$LT$I$C$O$C$E$GT$$GT$5parse17h083f1ac0530e73a5E', symObjAddr: 0x381C, symBinAddr: 0x5B758, symSize: 0x30 }
  - { offset: 0x167C41, size: 0x8, addend: 0x0, symName: '__ZN60_$LT$F$u20$as$u20$nom..internal..Parser$LT$I$C$O$C$E$GT$$GT$5parse17h299edc4434e8d331E', symObjAddr: 0x384C, symBinAddr: 0x5B788, symSize: 0x30 }
  - { offset: 0x167CA2, size: 0x8, addend: 0x0, symName: '__ZN60_$LT$F$u20$as$u20$nom..internal..Parser$LT$I$C$O$C$E$GT$$GT$5parse17h32ddc2ddd6354ed7E', symObjAddr: 0x387C, symBinAddr: 0x5B7B8, symSize: 0x30 }
  - { offset: 0x167D03, size: 0x8, addend: 0x0, symName: '__ZN60_$LT$F$u20$as$u20$nom..internal..Parser$LT$I$C$O$C$E$GT$$GT$5parse17h39bc185e30e653b3E', symObjAddr: 0x38AC, symBinAddr: 0x5B7E8, symSize: 0x30 }
  - { offset: 0x167D64, size: 0x8, addend: 0x0, symName: '__ZN60_$LT$F$u20$as$u20$nom..internal..Parser$LT$I$C$O$C$E$GT$$GT$5parse17h82c49bda14fcf308E', symObjAddr: 0x38DC, symBinAddr: 0x5B818, symSize: 0x30 }
  - { offset: 0x167DC5, size: 0x8, addend: 0x0, symName: '__ZN60_$LT$F$u20$as$u20$nom..internal..Parser$LT$I$C$O$C$E$GT$$GT$5parse17h8a33428ca5128f4bE', symObjAddr: 0x390C, symBinAddr: 0x5B848, symSize: 0x30 }
  - { offset: 0x167E26, size: 0x8, addend: 0x0, symName: '__ZN60_$LT$F$u20$as$u20$nom..internal..Parser$LT$I$C$O$C$E$GT$$GT$5parse17h97db6b43d617d391E', symObjAddr: 0x393C, symBinAddr: 0x5B878, symSize: 0x30 }
  - { offset: 0x167E87, size: 0x8, addend: 0x0, symName: '__ZN60_$LT$F$u20$as$u20$nom..internal..Parser$LT$I$C$O$C$E$GT$$GT$5parse17ha715b074dbb40cfaE', symObjAddr: 0x396C, symBinAddr: 0x5B8A8, symSize: 0x30 }
  - { offset: 0x167EE8, size: 0x8, addend: 0x0, symName: '__ZN60_$LT$F$u20$as$u20$nom..internal..Parser$LT$I$C$O$C$E$GT$$GT$5parse17hafd41842ef904131E', symObjAddr: 0x399C, symBinAddr: 0x5B8D8, symSize: 0x30 }
  - { offset: 0x167F49, size: 0x8, addend: 0x0, symName: '__ZN60_$LT$F$u20$as$u20$nom..internal..Parser$LT$I$C$O$C$E$GT$$GT$5parse17hc6c6cfb2282a9baaE', symObjAddr: 0x39CC, symBinAddr: 0x5B908, symSize: 0x30 }
  - { offset: 0x167FAA, size: 0x8, addend: 0x0, symName: '__ZN60_$LT$F$u20$as$u20$nom..internal..Parser$LT$I$C$O$C$E$GT$$GT$5parse17hdd7aa2e643c9c8fbE', symObjAddr: 0x39FC, symBinAddr: 0x5B938, symSize: 0x30 }
  - { offset: 0x16800B, size: 0x8, addend: 0x0, symName: '__ZN60_$LT$F$u20$as$u20$nom..internal..Parser$LT$I$C$O$C$E$GT$$GT$5parse17he5d5b7b9db81fac2E', symObjAddr: 0x3A2C, symBinAddr: 0x5B968, symSize: 0x30 }
  - { offset: 0x16806C, size: 0x8, addend: 0x0, symName: '__ZN60_$LT$F$u20$as$u20$nom..internal..Parser$LT$I$C$O$C$E$GT$$GT$5parse17hfa3df30eb5097bcfE', symObjAddr: 0x3A5C, symBinAddr: 0x5B998, symSize: 0x30 }
  - { offset: 0x1680D3, size: 0x8, addend: 0x0, symName: '__ZN66_$LT$nom..internal..Err$LT$E$GT$$u20$as$u20$core..fmt..Display$GT$3fmt17hd02eb65d0a1f02f1E', symObjAddr: 0x3CCC, symBinAddr: 0x5BC08, symSize: 0x19C }
  - { offset: 0x1682BD, size: 0x8, addend: 0x0, symName: '__ZN95_$LT$$LP$FnA$C$FnB$RP$$u20$as$u20$nom..sequence..Tuple$LT$Input$C$$LP$A$C$B$RP$$C$Error$GT$$GT$5parse17h048909cda605d09fE', symObjAddr: 0x3EEC, symBinAddr: 0x5BE28, symSize: 0x230 }
  - { offset: 0x1683EF, size: 0x8, addend: 0x0, symName: '__ZN95_$LT$$LP$FnA$C$FnB$RP$$u20$as$u20$nom..sequence..Tuple$LT$Input$C$$LP$A$C$B$RP$$C$Error$GT$$GT$5parse17h75f2c42841803ec9E', symObjAddr: 0x411C, symBinAddr: 0x5C058, symSize: 0x234 }
  - { offset: 0x168521, size: 0x8, addend: 0x0, symName: '__ZN95_$LT$$LP$FnA$C$FnB$RP$$u20$as$u20$nom..sequence..Tuple$LT$Input$C$$LP$A$C$B$RP$$C$Error$GT$$GT$5parse17hacaa082709c21debE', symObjAddr: 0x4350, symBinAddr: 0x5C28C, symSize: 0x234 }
  - { offset: 0x168653, size: 0x8, addend: 0x0, symName: '__ZN95_$LT$$LP$FnA$C$FnB$RP$$u20$as$u20$nom..sequence..Tuple$LT$Input$C$$LP$A$C$B$RP$$C$Error$GT$$GT$5parse17hded46b722f7dbc38E', symObjAddr: 0x4584, symBinAddr: 0x5C4C0, symSize: 0x234 }
  - { offset: 0x168940, size: 0x8, addend: 0x0, symName: '__ZN64_$LT$zcash_protocol..memo..Error$u20$as$u20$core..fmt..Debug$GT$3fmt17h76462ab970b82e52E', symObjAddr: 0x3B6C, symBinAddr: 0x5BAA8, symSize: 0xB4 }
  - { offset: 0x168C35, size: 0x8, addend: 0x0, symName: '__ZN4core5array4iter10iter_inner78PolymorphicIter$LT$$u5b$core..mem..maybe_uninit..MaybeUninit$LT$T$GT$$u5d$$GT$4next17h2c3e5e75ea26d6e7E', symObjAddr: 0x2D58, symBinAddr: 0x5AD34, symSize: 0x190 }
  - { offset: 0x169131, size: 0x8, addend: 0x0, symName: __ZN5alloc5alloc6Global10alloc_impl17h9fe6dbc5f1bee431E, symObjAddr: 0x3260, symBinAddr: 0x5B19C, symSize: 0x1FC }
  - { offset: 0x169653, size: 0x8, addend: 0x0, symName: __ZN5alloc6string6String4push17h3d6f784be261107fE, symObjAddr: 0x3490, symBinAddr: 0x5B3CC, symSize: 0x13C }
  - { offset: 0x169915, size: 0x8, addend: 0x0, symName: __ZN5alloc6string6String6as_str17h671c29f0a4239ae9E, symObjAddr: 0x35CC, symBinAddr: 0x5B508, symSize: 0x78 }
  - { offset: 0x169AE3, size: 0x8, addend: 0x0, symName: __ZN5alloc6string6String8push_str17h7d13dbde452a406dE, symObjAddr: 0x3644, symBinAddr: 0x5B580, symSize: 0x50 }
  - { offset: 0x169CBD, size: 0x8, addend: 0x0, symName: __ZN5alloc6string6String9from_utf817h76ea863251e6506cE, symObjAddr: 0x3694, symBinAddr: 0x5B5D0, symSize: 0x158 }
  - { offset: 0x16A804, size: 0x8, addend: 0x0, symName: '__ZN107_$LT$core..ops..range..RangeInclusive$LT$T$GT$$u20$as$u20$core..iter..range..RangeInclusiveIteratorImpl$GT$9spec_next17h90e54c57860a0b57E', symObjAddr: 0x0, symBinAddr: 0x5C6F4, symSize: 0x100 }
  - { offset: 0x16B6F9, size: 0x8, addend: 0x0, symName: '__ZN107_$LT$core..ops..range..RangeInclusive$LT$T$GT$$u20$as$u20$core..iter..range..RangeInclusiveIteratorImpl$GT$9spec_next17h90e54c57860a0b57E', symObjAddr: 0x0, symBinAddr: 0x5C6F4, symSize: 0x100 }
  - { offset: 0x16B7FA, size: 0x8, addend: 0x0, symName: '__ZN4core4iter5range110_$LT$impl$u20$core..iter..traits..iterator..Iterator$u20$for$u20$core..ops..range..RangeInclusive$LT$A$GT$$GT$4next17h6759a0f65af03d76E', symObjAddr: 0x568, symBinAddr: 0x5CB5C, symSize: 0x24 }
  - { offset: 0x16BAD6, size: 0x8, addend: 0x0, symName: __ZN4core4iter6traits8iterator8Iterator3map17hae672b4a2892d91fE, symObjAddr: 0x58C, symBinAddr: 0x5CB80, symSize: 0x34 }
  - { offset: 0x16BB43, size: 0x8, addend: 0x0, symName: __ZN4core4iter6traits8iterator8Iterator3zip17h777bc2591ac46dc0E, symObjAddr: 0x5C0, symBinAddr: 0x5CBB4, symSize: 0xCC }
  - { offset: 0x16BBB9, size: 0x8, addend: 0x0, symName: __ZN4core4iter6traits8iterator8Iterator8try_fold17hbae4b6ea70fa848aE, symObjAddr: 0x68C, symBinAddr: 0x5CC80, symSize: 0x178 }
  - { offset: 0x16BD24, size: 0x8, addend: 0x0, symName: '__ZN63_$LT$I$u20$as$u20$core..iter..traits..collect..IntoIterator$GT$9into_iter17h717a9d2db78dc376E', symObjAddr: 0x2268, symBinAddr: 0x5E80C, symSize: 0x1C }
  - { offset: 0x16BE2E, size: 0x8, addend: 0x0, symName: '__ZN110_$LT$core..ops..range..RangeFrom$LT$usize$GT$$u20$as$u20$core..slice..index..SliceIndex$LT$$u5b$T$u5d$$GT$$GT$9index_mut17h262683eae19b6763E', symObjAddr: 0x100, symBinAddr: 0x5C7F4, symSize: 0xAC }
  - { offset: 0x16C152, size: 0x8, addend: 0x0, symName: '__ZN91_$LT$core..slice..iter..Iter$LT$T$GT$$u20$as$u20$core..iter..traits..iterator..Iterator$GT$4fold17hcde3586265c76f86E', symObjAddr: 0x2548, symBinAddr: 0x5EAEC, symSize: 0x1C0 }
  - { offset: 0x16C2A7, size: 0x8, addend: 0x0, symName: '__ZN91_$LT$core..slice..iter..Iter$LT$T$GT$$u20$as$u20$core..iter..traits..iterator..Iterator$GT$4next17h7c096c6a9dfc2accE', symObjAddr: 0x2708, symBinAddr: 0x5ECAC, symSize: 0xA8 }
  - { offset: 0x16C3E1, size: 0x8, addend: 0x0, symName: '__ZN91_$LT$core..slice..iter..Iter$LT$T$GT$$u20$as$u20$core..iter..traits..iterator..Iterator$GT$4next17hdc9354963dc1d11fE', symObjAddr: 0x27B0, symBinAddr: 0x5ED54, symSize: 0xA8 }
  - { offset: 0x16C51B, size: 0x8, addend: 0x0, symName: '__ZN91_$LT$core..slice..iter..Iter$LT$T$GT$$u20$as$u20$core..iter..traits..iterator..Iterator$GT$4next17hdefb01751702d880E', symObjAddr: 0x2858, symBinAddr: 0x5EDFC, symSize: 0xA8 }
  - { offset: 0x16C655, size: 0x8, addend: 0x0, symName: '__ZN91_$LT$core..slice..iter..Iter$LT$T$GT$$u20$as$u20$core..iter..traits..iterator..Iterator$GT$4next17he722b5dd2e06ae9aE', symObjAddr: 0x2900, symBinAddr: 0x5EEA4, symSize: 0xA8 }
  - { offset: 0x16C78F, size: 0x8, addend: 0x0, symName: '__ZN91_$LT$core..slice..iter..Iter$LT$T$GT$$u20$as$u20$core..iter..traits..iterator..Iterator$GT$8find_map17hb9bd68c99cfc174bE', symObjAddr: 0x29A8, symBinAddr: 0x5EF4C, symSize: 0xC0 }
  - { offset: 0x16C813, size: 0x8, addend: 0x0, symName: '__ZN91_$LT$core..slice..iter..Iter$LT$T$GT$$u20$as$u20$core..iter..traits..iterator..Iterator$GT$9size_hint17h1ba4e85e35d6a36aE', symObjAddr: 0x2A68, symBinAddr: 0x5F00C, symSize: 0x60 }
  - { offset: 0x16D404, size: 0x8, addend: 0x0, symName: '__ZN4core3str6traits108_$LT$impl$u20$core..slice..index..SliceIndex$LT$str$GT$$u20$for$u20$core..ops..range..Range$LT$usize$GT$$GT$13get_unchecked17h06edad5c3e27ba54E', symObjAddr: 0x2AC, symBinAddr: 0x5C8A0, symSize: 0x84 }
  - { offset: 0x16D549, size: 0x8, addend: 0x0, symName: '__ZN4core3str6traits110_$LT$impl$u20$core..slice..index..SliceIndex$LT$str$GT$$u20$for$u20$core..ops..range..RangeTo$LT$usize$GT$$GT$13get_unchecked17h5556d5dd05fc9edcE', symObjAddr: 0x330, symBinAddr: 0x5C924, symSize: 0x50 }
  - { offset: 0x16D58C, size: 0x8, addend: 0x0, symName: '__ZN4core3str6traits112_$LT$impl$u20$core..slice..index..SliceIndex$LT$str$GT$$u20$for$u20$core..ops..range..RangeFrom$LT$usize$GT$$GT$13get_unchecked17h1971aacfd51dc324E', symObjAddr: 0x380, symBinAddr: 0x5C974, symSize: 0x80 }
  - { offset: 0x16D6FF, size: 0x8, addend: 0x0, symName: '__ZN4core3str6traits112_$LT$impl$u20$core..slice..index..SliceIndex$LT$str$GT$$u20$for$u20$core..ops..range..RangeFrom$LT$usize$GT$$GT$3get17h0da3327a39180deeE', symObjAddr: 0x400, symBinAddr: 0x5C9F4, symSize: 0x150 }
  - { offset: 0x16D880, size: 0x8, addend: 0x0, symName: '__ZN4core3str6traits99_$LT$impl$u20$core..slice..index..SliceIndex$LT$str$GT$$u20$for$u20$core..ops..range..RangeFull$GT$5index17hf3d459ca7ff1ffe9E', symObjAddr: 0x550, symBinAddr: 0x5CB44, symSize: 0x18 }
  - { offset: 0x16D8F3, size: 0x8, addend: 0x0, symName: '__ZN51_$LT$T$u20$as$u20$core..borrow..Borrow$LT$T$GT$$GT$6borrow17heb9b87069c7a5b30E', symObjAddr: 0x8B4, symBinAddr: 0x5CEA8, symSize: 0x14 }
  - { offset: 0x16E28F, size: 0x8, addend: 0x0, symName: '__ZN63_$LT$u8$u20$as$u20$alloc..vec..spec_from_elem..SpecFromElem$GT$9from_elem17hcd2ae80809ebd603E', symObjAddr: 0x2284, symBinAddr: 0x5E828, symSize: 0x18C }
  - { offset: 0x16E840, size: 0x8, addend: 0x0, symName: '__ZN77_$LT$alloc..raw_vec..RawVec$LT$T$C$A$GT$$u20$as$u20$core..ops..drop..Drop$GT$4drop17h141f48d330ee66beE', symObjAddr: 0x2410, symBinAddr: 0x5E9B4, symSize: 0x34 }
  - { offset: 0x16E87C, size: 0x8, addend: 0x0, symName: '__ZN77_$LT$alloc..raw_vec..RawVec$LT$T$C$A$GT$$u20$as$u20$core..ops..drop..Drop$GT$4drop17h235374cf4569d2d6E', symObjAddr: 0x2444, symBinAddr: 0x5E9E8, symSize: 0x34 }
  - { offset: 0x16E8B8, size: 0x8, addend: 0x0, symName: '__ZN77_$LT$alloc..raw_vec..RawVec$LT$T$C$A$GT$$u20$as$u20$core..ops..drop..Drop$GT$4drop17h256c76bb72aec04cE', symObjAddr: 0x2478, symBinAddr: 0x5EA1C, symSize: 0x34 }
  - { offset: 0x16E8F4, size: 0x8, addend: 0x0, symName: '__ZN77_$LT$alloc..raw_vec..RawVec$LT$T$C$A$GT$$u20$as$u20$core..ops..drop..Drop$GT$4drop17h741eeb992c8f147dE', symObjAddr: 0x24AC, symBinAddr: 0x5EA50, symSize: 0x34 }
  - { offset: 0x16E930, size: 0x8, addend: 0x0, symName: '__ZN77_$LT$alloc..raw_vec..RawVec$LT$T$C$A$GT$$u20$as$u20$core..ops..drop..Drop$GT$4drop17hce645d859b7f8ad6E', symObjAddr: 0x24E0, symBinAddr: 0x5EA84, symSize: 0x34 }
  - { offset: 0x16E96C, size: 0x8, addend: 0x0, symName: '__ZN77_$LT$alloc..raw_vec..RawVec$LT$T$C$A$GT$$u20$as$u20$core..ops..drop..Drop$GT$4drop17hce67db44c23ec618E', symObjAddr: 0x2514, symBinAddr: 0x5EAB8, symSize: 0x34 }
  - { offset: 0x16EAE0, size: 0x8, addend: 0x0, symName: '__ZN5alloc3str17join_generic_copy28_$u7b$$u7b$closure$u7d$$u7d$28_$u7b$$u7b$closure$u7d$$u7d$17hd0949fef5671afa0E', symObjAddr: 0x2030, symBinAddr: 0x5E624, symSize: 0x38 }
  - { offset: 0x16EB39, size: 0x8, addend: 0x0, symName: '__ZN5alloc3str17join_generic_copy28_$u7b$$u7b$closure$u7d$$u7d$17h19915b3dd058c6ebE', symObjAddr: 0x1FA8, symBinAddr: 0x5E59C, symSize: 0x88 }
  - { offset: 0x16EC07, size: 0x8, addend: 0x0, symName: __ZN5alloc3str17join_generic_copy17h54b69f5c02e48b74E, symObjAddr: 0x8C8, symBinAddr: 0x5CEBC, symSize: 0x16E0 }
  - { offset: 0x17048A, size: 0x8, addend: 0x0, symName: '__ZN4core5slice4iter13Iter$LT$T$GT$3new17h1bf8736c98fdd005E', symObjAddr: 0x804, symBinAddr: 0x5CDF8, symSize: 0x58 }
  - { offset: 0x17066E, size: 0x8, addend: 0x0, symName: '__ZN4core5slice4iter13Iter$LT$T$GT$3new17h609ea058da2a52bcE', symObjAddr: 0x85C, symBinAddr: 0x5CE50, symSize: 0x58 }
  - { offset: 0x170FDA, size: 0x8, addend: 0x0, symName: '__ZN5alloc7raw_vec19RawVec$LT$T$C$A$GT$8grow_one17h092cdb6614408676E', symObjAddr: 0x20B8, symBinAddr: 0x5E65C, symSize: 0x90 }
  - { offset: 0x17108C, size: 0x8, addend: 0x0, symName: '__ZN5alloc7raw_vec19RawVec$LT$T$C$A$GT$8grow_one17h0a4bd207408ad344E', symObjAddr: 0x2148, symBinAddr: 0x5E6EC, symSize: 0x90 }
  - { offset: 0x17113E, size: 0x8, addend: 0x0, symName: '__ZN5alloc7raw_vec19RawVec$LT$T$C$A$GT$8grow_one17h14aa7808ef3a1a25E', symObjAddr: 0x21D8, symBinAddr: 0x5E77C, symSize: 0x90 }
  - { offset: 0x171680, size: 0x8, addend: 0x0, symName: '__ZN102_$LT$core..iter..adapters..map..Map$LT$I$C$F$GT$$u20$as$u20$core..iter..traits..iterator..Iterator$GT$4fold17h86c25e645d73557aE', symObjAddr: 0x0, symBinAddr: 0x5F06C, symSize: 0x58 }
  - { offset: 0x1717FE, size: 0x8, addend: 0x0, symName: '__ZN4core4iter8adapters3map8map_fold28_$u7b$$u7b$closure$u7d$$u7d$17hddd355db70d50adbE', symObjAddr: 0x14F8, symBinAddr: 0x600A4, symSize: 0x8C }
  - { offset: 0x171889, size: 0x8, addend: 0x0, symName: '__ZN102_$LT$core..iter..adapters..map..Map$LT$I$C$F$GT$$u20$as$u20$core..iter..traits..iterator..Iterator$GT$4fold17h86c25e645d73557aE', symObjAddr: 0x0, symBinAddr: 0x5F06C, symSize: 0x58 }
  - { offset: 0x171922, size: 0x8, addend: 0x0, symName: '__ZN102_$LT$core..iter..adapters..map..Map$LT$I$C$F$GT$$u20$as$u20$core..iter..traits..iterator..Iterator$GT$4next17h1c828c03419203c9E', symObjAddr: 0x58, symBinAddr: 0x5F0C4, symSize: 0x90 }
  - { offset: 0x1719CE, size: 0x8, addend: 0x0, symName: '__ZN102_$LT$core..iter..adapters..map..Map$LT$I$C$F$GT$$u20$as$u20$core..iter..traits..iterator..Iterator$GT$4next17h76953b4d354d9989E', symObjAddr: 0xE8, symBinAddr: 0x5F154, symSize: 0xB0 }
  - { offset: 0x171A6A, size: 0x8, addend: 0x0, symName: '__ZN102_$LT$core..iter..adapters..map..Map$LT$I$C$F$GT$$u20$as$u20$core..iter..traits..iterator..Iterator$GT$8try_fold17h0ea0e8be72eb7ddfE', symObjAddr: 0x1CC, symBinAddr: 0x5F204, symSize: 0x54 }
  - { offset: 0x171B0D, size: 0x8, addend: 0x0, symName: '__ZN102_$LT$core..iter..adapters..map..Map$LT$I$C$F$GT$$u20$as$u20$core..iter..traits..iterator..Iterator$GT$9size_hint17hb56d606e38783749E', symObjAddr: 0x220, symBinAddr: 0x5F258, symSize: 0x24 }
  - { offset: 0x171B54, size: 0x8, addend: 0x0, symName: '__ZN102_$LT$core..iter..adapters..map..Map$LT$I$C$F$GT$$u20$as$u20$core..iter..traits..iterator..Iterator$GT$9size_hint17hce1f1c9e4ff83ad6E', symObjAddr: 0x244, symBinAddr: 0x5F27C, symSize: 0x24 }
  - { offset: 0x171B9B, size: 0x8, addend: 0x0, symName: '__ZN102_$LT$core..iter..adapters..map..Map$LT$I$C$F$GT$$u20$as$u20$core..iter..traits..iterator..Iterator$GT$9size_hint17hebb858d65a5a0a66E', symObjAddr: 0x268, symBinAddr: 0x5F2A0, symSize: 0x24 }
  - { offset: 0x171C63, size: 0x8, addend: 0x0, symName: '__ZN4core4iter8adapters3map12map_try_fold28_$u7b$$u7b$closure$u7d$$u7d$17h705bb5528fd4cec0E', symObjAddr: 0x1398, symBinAddr: 0x5FF44, symSize: 0xB8 }
