---
triple:          'arm64-apple-darwin'
binary-path:     '/Users/nagachaitanyavarma/Documents/zcash-bindings/target/debug/deps/libzcash_uri.dylib'
relocations:
  - { offset: 0x1E, size: 0x8, addend: 0x0, symName: '__ZN9zcash_uri156_$LT$impl$u20$pyo3..impl_..pyclass..PyMethods$LT$zcash_uri..Payment$GT$$u20$for$u20$pyo3..impl_..pyclass..PyClassImplCollector$LT$zcash_uri..Payment$GT$$GT$10py_methods17h1b99f57da54abdd2E', symObjAddr: 0x0, symBinAddr: 0x888, symSize: 0x14 }
  - { offset: 0x19AE, size: 0x8, addend: 0x0, symName: '__ZN9zcash_uri156_$LT$impl$u20$pyo3..impl_..pyclass..PyMethods$LT$zcash_uri..Payment$GT$$u20$for$u20$pyo3..impl_..pyclass..PyClassImplCollector$LT$zcash_uri..Payment$GT$$GT$10py_methods17h1b99f57da54abdd2E', symObjAddr: 0x0, symBinAddr: 0x888, symSize: 0x14 }
  - { offset: 0x19F9, size: 0x8, addend: 0x0, symName: '__ZN9zcash_uri156_$LT$impl$u20$pyo3..impl_..pyclass..PyMethods$LT$zcash_uri..Payment$GT$$u20$for$u20$pyo3..impl_..pyclass..PyClassImplCollector$LT$zcash_uri..Payment$GT$$GT$10py_methods5ITEMS10trampoline170_$LT$impl$u20$pyo3..impl_..pyclass..PyClassNewTextSignature$LT$zcash_uri..Payment$GT$$u20$for$u20$pyo3..impl_..pyclass..PyClassImplCollector$LT$zcash_uri..Payment$GT$$GT$18new_text_signature17h869b5a271b369820E', symObjAddr: 0x14, symBinAddr: 0x89C, symSize: 0x1C }
  - { offset: 0x1A3A, size: 0x8, addend: 0x0, symName: '__ZN9zcash_uri172_$LT$impl$u20$pyo3..impl_..pyclass..PyClass__eq__SlotFragment$LT$zcash_uri..Payment$GT$$u20$for$u20$pyo3..impl_..pyclass..PyClassImplCollector$LT$zcash_uri..Payment$GT$$GT$6__eq__17h5f3f7484b3334d47E', symObjAddr: 0x30, symBinAddr: 0x8B8, symSize: 0x2C }
  - { offset: 0x1AAC, size: 0x8, addend: 0x0, symName: '__ZN9zcash_uri178_$LT$impl$u20$pyo3..impl_..pyclass..PyMethods$LT$zcash_uri..TransactionRequest$GT$$u20$for$u20$pyo3..impl_..pyclass..PyClassImplCollector$LT$zcash_uri..TransactionRequest$GT$$GT$10py_methods17h98f6a06b5fe86ed3E', symObjAddr: 0x5C, symBinAddr: 0x8E4, symSize: 0x14 }
  - { offset: 0x1AFA, size: 0x8, addend: 0x0, symName: '__ZN9zcash_uri178_$LT$impl$u20$pyo3..impl_..pyclass..PyMethods$LT$zcash_uri..TransactionRequest$GT$$u20$for$u20$pyo3..impl_..pyclass..PyClassImplCollector$LT$zcash_uri..TransactionRequest$GT$$GT$10py_methods5ITEMS10trampoline192_$LT$impl$u20$pyo3..impl_..pyclass..PyClassNewTextSignature$LT$zcash_uri..TransactionRequest$GT$$u20$for$u20$pyo3..impl_..pyclass..PyClassImplCollector$LT$zcash_uri..TransactionRequest$GT$$GT$18new_text_signature17h3643e0991a62a20fE', symObjAddr: 0x70, symBinAddr: 0x8F8, symSize: 0x1C }
  - { offset: 0x2BA7, size: 0x8, addend: 0x0, symName: __ZN4core4hint16assert_unchecked18precondition_check17h98dd6c349826c59cE, symObjAddr: 0x0, symBinAddr: 0x914, symSize: 0xA4 }
  - { offset: 0x2EC9, size: 0x8, addend: 0x0, symName: __ZN4core4hint16assert_unchecked18precondition_check17h98dd6c349826c59cE, symObjAddr: 0x0, symBinAddr: 0x914, symSize: 0xA4 }
  - { offset: 0x2F29, size: 0x8, addend: 0x0, symName: __ZN4core4hint21unreachable_unchecked18precondition_check17h99ee28f3ec837b3dE, symObjAddr: 0xA4, symBinAddr: 0x9B8, symSize: 0x84 }
  - { offset: 0x313C, size: 0x8, addend: 0x0, symName: '__ZN106_$LT$core..ops..range..Range$LT$usize$GT$$u20$as$u20$core..slice..index..SliceIndex$LT$$u5b$T$u5d$$GT$$GT$13get_unchecked18precondition_check17h74e1e94d09e745e2E', symObjAddr: 0x0, symBinAddr: 0xA3C, symSize: 0xCC }
  - { offset: 0x3468, size: 0x8, addend: 0x0, symName: '__ZN106_$LT$core..ops..range..Range$LT$usize$GT$$u20$as$u20$core..slice..index..SliceIndex$LT$$u5b$T$u5d$$GT$$GT$13get_unchecked18precondition_check17h74e1e94d09e745e2E', symObjAddr: 0x0, symBinAddr: 0xA3C, symSize: 0xCC }
  - { offset: 0x34E4, size: 0x8, addend: 0x0, symName: '__ZN106_$LT$core..ops..range..Range$LT$usize$GT$$u20$as$u20$core..slice..index..SliceIndex$LT$$u5b$T$u5d$$GT$$GT$17get_unchecked_mut18precondition_check17h200ed4935ffa345cE', symObjAddr: 0xCC, symBinAddr: 0xB08, symSize: 0xCC }
  - { offset: 0x3566, size: 0x8, addend: 0x0, symName: '__ZN75_$LT$usize$u20$as$u20$core..slice..index..SliceIndex$LT$$u5b$T$u5d$$GT$$GT$13get_unchecked18precondition_check17h8d55e3302ee172e7E', symObjAddr: 0x198, symBinAddr: 0xBD4, symSize: 0xAC }
  - { offset: 0x35D4, size: 0x8, addend: 0x0, symName: '__ZN75_$LT$usize$u20$as$u20$core..slice..index..SliceIndex$LT$$u5b$T$u5d$$GT$$GT$17get_unchecked_mut18precondition_check17h57c6a259ff58adeaE', symObjAddr: 0x244, symBinAddr: 0xC80, symSize: 0xAC }
  - { offset: 0x381A, size: 0x8, addend: 0x0, symName: __ZN3std4sync6poison4once4Once15call_once_force17h0b023b02cd112680E, symObjAddr: 0x0, symBinAddr: 0xD2C, symSize: 0x108 }
  - { offset: 0x3853, size: 0x8, addend: 0x0, symName: '__ZN3std4sync6poison4once4Once15call_once_force28_$u7b$$u7b$closure$u7d$$u7d$17h7c5aae79dad15b5fE', symObjAddr: 0x108, symBinAddr: 0xE34, symSize: 0x84 }
  - { offset: 0x3EBF, size: 0x8, addend: 0x0, symName: __ZN3std4sync6poison4once4Once15call_once_force17h0b023b02cd112680E, symObjAddr: 0x0, symBinAddr: 0xD2C, symSize: 0x108 }
  - { offset: 0x400B, size: 0x8, addend: 0x0, symName: __ZN4core3ptr19copy_nonoverlapping18precondition_check17h080a4941af754ad1E, symObjAddr: 0x0, symBinAddr: 0xEB8, symSize: 0x36C }
  - { offset: 0x435C, size: 0x8, addend: 0x0, symName: __ZN4core3ptr19copy_nonoverlapping18precondition_check17h080a4941af754ad1E, symObjAddr: 0x0, symBinAddr: 0xEB8, symSize: 0x36C }
  - { offset: 0x463C, size: 0x8, addend: 0x0, symName: __ZN4core3ptr4copy18precondition_check17h887c27406671ba5bE, symObjAddr: 0x8F0, symBinAddr: 0x1224, symSize: 0x240 }
  - { offset: 0x4CCE, size: 0x8, addend: 0x0, symName: __ZN4core5slice4sort6stable9quicksort16stable_partition17h34fb782ace27ace2E, symObjAddr: 0x0, symBinAddr: 0x1464, symSize: 0x4BC }
  - { offset: 0x5E31, size: 0x8, addend: 0x0, symName: __ZN4core5slice4sort6stable9quicksort16stable_partition17h34fb782ace27ace2E, symObjAddr: 0x0, symBinAddr: 0x1464, symSize: 0x4BC }
  - { offset: 0x6302, size: 0x8, addend: 0x0, symName: __ZN4core5slice4sort6stable9quicksort16stable_partition17h57637abdd3ecfab0E, symObjAddr: 0x4BC, symBinAddr: 0x1920, symSize: 0x4BC }
  - { offset: 0x6746, size: 0x8, addend: 0x0, symName: __ZN4core5slice4sort6stable9quicksort16stable_partition17ha6d8fac9d2ba765aE, symObjAddr: 0x978, symBinAddr: 0x1DDC, symSize: 0x4BC }
  - { offset: 0x6B8A, size: 0x8, addend: 0x0, symName: __ZN4core5slice4sort6stable9quicksort16stable_partition17hf725edde365e128dE, symObjAddr: 0xE34, symBinAddr: 0x2298, symSize: 0x4BC }
  - { offset: 0x6FCE, size: 0x8, addend: 0x0, symName: __ZN4core5slice4sort6stable9quicksort9quicksort17h133a3bab8c32557fE, symObjAddr: 0x1570, symBinAddr: 0x29D4, symSize: 0x3CC }
  - { offset: 0x727B, size: 0x8, addend: 0x0, symName: __ZN4core5slice4sort6stable9quicksort9quicksort17hee2f8c51a092da4fE, symObjAddr: 0x193C, symBinAddr: 0x2DA0, symSize: 0x3CC }
  - { offset: 0x7513, size: 0x8, addend: 0x0, symName: '__ZN4core5slice4sort6stable9quicksort9quicksort28_$u7b$$u7b$closure$u7d$$u7d$17h5f78463ddb584a7cE', symObjAddr: 0x1D08, symBinAddr: 0x316C, symSize: 0x48 }
  - { offset: 0x7570, size: 0x8, addend: 0x0, symName: '__ZN4core5slice4sort6stable9quicksort9quicksort28_$u7b$$u7b$closure$u7d$$u7d$17ha426f2a9a507aa52E', symObjAddr: 0x1D50, symBinAddr: 0x31B4, symSize: 0x48 }
  - { offset: 0x8028, size: 0x8, addend: 0x0, symName: '__ZN4core5slice4sort6stable9quicksort23PartitionState$LT$T$GT$13partition_one17h3f5873ce69702929E', symObjAddr: 0x12F0, symBinAddr: 0x2754, symSize: 0x140 }
  - { offset: 0x811E, size: 0x8, addend: 0x0, symName: '__ZN4core5slice4sort6stable9quicksort23PartitionState$LT$T$GT$13partition_one17h55148af3f087866eE', symObjAddr: 0x1430, symBinAddr: 0x2894, symSize: 0x140 }
  - { offset: 0x8496, size: 0x8, addend: 0x0, symName: '__ZN4core3num21_$LT$impl$u20$u64$GT$11checked_add17h93738c0e3a2cd7d8E', symObjAddr: 0x0, symBinAddr: 0x31FC, symSize: 0x7C }
  - { offset: 0x84D6, size: 0x8, addend: 0x0, symName: '__ZN4core3num21_$LT$impl$u20$u64$GT$11checked_add17h93738c0e3a2cd7d8E', symObjAddr: 0x0, symBinAddr: 0x31FC, symSize: 0x7C }
  - { offset: 0x8566, size: 0x8, addend: 0x0, symName: '__ZN4core3num23_$LT$impl$u20$usize$GT$13unchecked_add18precondition_check17h984553d919a1b49fE', symObjAddr: 0x7C, symBinAddr: 0x3278, symSize: 0xB0 }
  - { offset: 0x8B28, size: 0x8, addend: 0x0, symName: __ZN4pyo37pyclass18create_type_object18create_type_object17h871e65d6039585a5E, symObjAddr: 0x0, symBinAddr: 0x3328, symSize: 0x15C }
  - { offset: 0xA47F, size: 0x8, addend: 0x0, symName: __ZN4pyo37pyclass18create_type_object18create_type_object17h871e65d6039585a5E, symObjAddr: 0x0, symBinAddr: 0x3328, symSize: 0x15C }
  - { offset: 0xA4DD, size: 0x8, addend: 0x0, symName: __ZN4pyo37pyclass18create_type_object18create_type_object17hebc6258252a2d4c5E, symObjAddr: 0x15C, symBinAddr: 0x3484, symSize: 0x15C }
  - { offset: 0xB2EE, size: 0x8, addend: 0x0, symName: '__ZN47_$LT$T$u20$as$u20$pyo3..err..PyErrArguments$GT$9arguments17h3313fc54d56cf273E', symObjAddr: 0x0, symBinAddr: 0x35E0, symSize: 0x34 }
  - { offset: 0xB3EE, size: 0x8, addend: 0x0, symName: '__ZN4pyo33err5PyErr3new28_$u7b$$u7b$closure$u7d$$u7d$17h09723945e2687f30E', symObjAddr: 0x6D8, symBinAddr: 0x3CB8, symSize: 0xD4 }
  - { offset: 0xB447, size: 0x8, addend: 0x0, symName: '__ZN4pyo33err5PyErr3new28_$u7b$$u7b$closure$u7d$$u7d$17h2a4e7231b1916d50E', symObjAddr: 0x7AC, symBinAddr: 0x3D8C, symSize: 0xB0 }
  - { offset: 0xB49F, size: 0x8, addend: 0x0, symName: '__ZN4pyo33err5PyErr3new28_$u7b$$u7b$closure$u7d$$u7d$17h691181c0a625d4efE', symObjAddr: 0x85C, symBinAddr: 0x3E3C, symSize: 0xD4 }
  - { offset: 0xB4F8, size: 0x8, addend: 0x0, symName: '__ZN4pyo33err5PyErr3new28_$u7b$$u7b$closure$u7d$$u7d$17h7e1c64420edd0a08E', symObjAddr: 0x930, symBinAddr: 0x3F10, symSize: 0xC0 }
  - { offset: 0xB550, size: 0x8, addend: 0x0, symName: '__ZN4pyo33err5PyErr3new28_$u7b$$u7b$closure$u7d$$u7d$17ha6c58c2270b2ee18E', symObjAddr: 0x9F0, symBinAddr: 0x3FD0, symSize: 0xD4 }
  - { offset: 0xB5A9, size: 0x8, addend: 0x0, symName: '__ZN4pyo33err5PyErr3new28_$u7b$$u7b$closure$u7d$$u7d$17hb3a87391bf45374eE', symObjAddr: 0xAC4, symBinAddr: 0x40A4, symSize: 0xD4 }
  - { offset: 0xB602, size: 0x8, addend: 0x0, symName: '__ZN4pyo33err5PyErr3new28_$u7b$$u7b$closure$u7d$$u7d$17hc330f1ab431e8a29E', symObjAddr: 0xB98, symBinAddr: 0x4178, symSize: 0xD4 }
  - { offset: 0xB65B, size: 0x8, addend: 0x0, symName: '__ZN4pyo33err5PyErr3new28_$u7b$$u7b$closure$u7d$$u7d$17hcad8b4c9b6779251E', symObjAddr: 0xC6C, symBinAddr: 0x424C, symSize: 0xD4 }
  - { offset: 0xB6B4, size: 0x8, addend: 0x0, symName: '__ZN4pyo33err5PyErr3new28_$u7b$$u7b$closure$u7d$$u7d$17hd819c5223d64b3caE', symObjAddr: 0xD40, symBinAddr: 0x4320, symSize: 0xD4 }
  - { offset: 0xB70D, size: 0x8, addend: 0x0, symName: '__ZN4pyo33err5PyErr3new28_$u7b$$u7b$closure$u7d$$u7d$17he1bd8d3850fc99b5E', symObjAddr: 0xE14, symBinAddr: 0x43F4, symSize: 0xC0 }
  - { offset: 0xB765, size: 0x8, addend: 0x0, symName: '__ZN4pyo33err5PyErr3new28_$u7b$$u7b$closure$u7d$$u7d$17hf855c8ce8d5af44fE', symObjAddr: 0xED4, symBinAddr: 0x44B4, symSize: 0xD4 }
  - { offset: 0xB7C5, size: 0x8, addend: 0x0, symName: '__ZN47_$LT$T$u20$as$u20$pyo3..err..PyErrArguments$GT$9arguments17h3313fc54d56cf273E', symObjAddr: 0x0, symBinAddr: 0x35E0, symSize: 0x34 }
  - { offset: 0xDA70, size: 0x8, addend: 0x0, symName: __ZN4pyo33err5PyErr3new17h0bcf2357cfb8bba0E, symObjAddr: 0x34, symBinAddr: 0x3614, symSize: 0xA0 }
  - { offset: 0xDACF, size: 0x8, addend: 0x0, symName: __ZN4pyo33err5PyErr3new17h172fe9ac50f894d0E, symObjAddr: 0xD4, symBinAddr: 0x36B4, symSize: 0xA0 }
  - { offset: 0xDB2E, size: 0x8, addend: 0x0, symName: __ZN4pyo33err5PyErr3new17h263d83c608cb24b8E, symObjAddr: 0x174, symBinAddr: 0x3754, symSize: 0xA0 }
  - { offset: 0xDB8D, size: 0x8, addend: 0x0, symName: __ZN4pyo33err5PyErr3new17h3b44a03ab86ed2d4E, symObjAddr: 0x214, symBinAddr: 0x37F4, symSize: 0xA0 }
  - { offset: 0xDBEC, size: 0x8, addend: 0x0, symName: __ZN4pyo33err5PyErr3new17h3d1bd831406d4d44E, symObjAddr: 0x2B4, symBinAddr: 0x3894, symSize: 0xA0 }
  - { offset: 0xDC4B, size: 0x8, addend: 0x0, symName: __ZN4pyo33err5PyErr3new17h58c2e48014217110E, symObjAddr: 0x354, symBinAddr: 0x3934, symSize: 0x9C }
  - { offset: 0xDCA9, size: 0x8, addend: 0x0, symName: __ZN4pyo33err5PyErr3new17h8dd869c0e09c7f2aE, symObjAddr: 0x3F0, symBinAddr: 0x39D0, symSize: 0xA0 }
  - { offset: 0xDD08, size: 0x8, addend: 0x0, symName: __ZN4pyo33err5PyErr3new17ha056e85054599130E, symObjAddr: 0x490, symBinAddr: 0x3A70, symSize: 0x9C }
  - { offset: 0xDD66, size: 0x8, addend: 0x0, symName: __ZN4pyo33err5PyErr3new17ha6f56b4f72b362e1E, symObjAddr: 0x52C, symBinAddr: 0x3B0C, symSize: 0xA0 }
  - { offset: 0xDDC5, size: 0x8, addend: 0x0, symName: __ZN4pyo33err5PyErr3new17he8240afd79f003a9E, symObjAddr: 0x5CC, symBinAddr: 0x3BAC, symSize: 0xA0 }
  - { offset: 0xDE24, size: 0x8, addend: 0x0, symName: __ZN4pyo33err5PyErr3new17he906baea1343baf0E, symObjAddr: 0x66C, symBinAddr: 0x3C4C, symSize: 0x6C }
  - { offset: 0xDEC2, size: 0x8, addend: 0x0, symName: __ZN3std5panic12catch_unwind17h4e4130a92345634fE, symObjAddr: 0x0, symBinAddr: 0x4588, symSize: 0xB0 }
  - { offset: 0xFCD5, size: 0x8, addend: 0x0, symName: __ZN3std5panic12catch_unwind17h4e4130a92345634fE, symObjAddr: 0x0, symBinAddr: 0x4588, symSize: 0xB0 }
  - { offset: 0xFD67, size: 0x8, addend: 0x0, symName: __ZN3std5panic12catch_unwind17h56b9ce078a3e4063E, symObjAddr: 0xB0, symBinAddr: 0x4638, symSize: 0xC0 }
  - { offset: 0xFDF9, size: 0x8, addend: 0x0, symName: __ZN3std5panic12catch_unwind17h5d73551594145b1aE, symObjAddr: 0x170, symBinAddr: 0x46F8, symSize: 0xDC }
  - { offset: 0xFEAC, size: 0x8, addend: 0x0, symName: __ZN3std5panic12catch_unwind17h5f4e7e2f999799d6E, symObjAddr: 0x24C, symBinAddr: 0x47D4, symSize: 0xCC }
  - { offset: 0xFF5E, size: 0x8, addend: 0x0, symName: __ZN3std5panic12catch_unwind17h6b4e7c36cfc36548E, symObjAddr: 0x318, symBinAddr: 0x48A0, symSize: 0xC0 }
  - { offset: 0xFFF0, size: 0x8, addend: 0x0, symName: __ZN3std5panic12catch_unwind17haf99faeb6e98c6dcE, symObjAddr: 0x3D8, symBinAddr: 0x4960, symSize: 0xCC }
  - { offset: 0x100A2, size: 0x8, addend: 0x0, symName: __ZN3std5panic12catch_unwind17he1b26449399571e7E, symObjAddr: 0x4A4, symBinAddr: 0x4A2C, symSize: 0xC0 }
  - { offset: 0x10134, size: 0x8, addend: 0x0, symName: __ZN3std5panic12catch_unwind17hf9a2f31937aa6701E, symObjAddr: 0x564, symBinAddr: 0x4AEC, symSize: 0xC0 }
  - { offset: 0x10E22, size: 0x8, addend: 0x0, symName: '__ZN4core5slice4sort6stable5merge19MergeState$LT$T$GT$10merge_down17h5d6a2a01a9ceeaadE', symObjAddr: 0x0, symBinAddr: 0x4C00, symSize: 0x1E0 }
  - { offset: 0x114E9, size: 0x8, addend: 0x0, symName: __ZN4core5slice4sort6stable5merge5merge17h69b42e910c178875E, symObjAddr: 0x700, symBinAddr: 0x5300, symSize: 0x334 }
  - { offset: 0x1175B, size: 0x8, addend: 0x0, symName: __ZN4core5slice4sort6stable5merge5merge17hb815684931f924f4E, symObjAddr: 0xA34, symBinAddr: 0x5634, symSize: 0x334 }
  - { offset: 0x11E1A, size: 0x8, addend: 0x0, symName: '__ZN4core5slice4sort6stable5merge19MergeState$LT$T$GT$10merge_down17h5d6a2a01a9ceeaadE', symObjAddr: 0x0, symBinAddr: 0x4C00, symSize: 0x1E0 }
  - { offset: 0x1200F, size: 0x8, addend: 0x0, symName: '__ZN4core5slice4sort6stable5merge19MergeState$LT$T$GT$10merge_down17hb909a4aff91b5490E', symObjAddr: 0x1E0, symBinAddr: 0x4DE0, symSize: 0x1E0 }
  - { offset: 0x121A5, size: 0x8, addend: 0x0, symName: '__ZN4core5slice4sort6stable5merge19MergeState$LT$T$GT$8merge_up17h7c685178356f660dE', symObjAddr: 0x3C0, symBinAddr: 0x4FC0, symSize: 0x1A0 }
  - { offset: 0x122EB, size: 0x8, addend: 0x0, symName: '__ZN4core5slice4sort6stable5merge19MergeState$LT$T$GT$8merge_up17h95e7dae89ca957c9E', symObjAddr: 0x560, symBinAddr: 0x5160, symSize: 0x1A0 }
  - { offset: 0x1254B, size: 0x8, addend: 0x0, symName: '__ZN5alloc11collections5btree3map5entry28VacantEntry$LT$K$C$V$C$A$GT$12insert_entry17h20cbaf65fe5fb2e6E', symObjAddr: 0x0, symBinAddr: 0x5968, symSize: 0x2CC }
  - { offset: 0x12CD6, size: 0x8, addend: 0x0, symName: '__ZN5alloc11collections5btree3map5entry28VacantEntry$LT$K$C$V$C$A$GT$12insert_entry28_$u7b$$u7b$closure$u7d$$u7d$17h136a9c4f18b2595eE', symObjAddr: 0x2CC, symBinAddr: 0x5C34, symSize: 0x180 }
  - { offset: 0x13AD7, size: 0x8, addend: 0x0, symName: '__ZN5alloc11collections5btree3map5entry28VacantEntry$LT$K$C$V$C$A$GT$12insert_entry17h20cbaf65fe5fb2e6E', symObjAddr: 0x0, symBinAddr: 0x5968, symSize: 0x2CC }
  - { offset: 0x13EA6, size: 0x8, addend: 0x0, symName: '__ZN5alloc11collections5btree3map5entry30OccupiedEntry$LT$K$C$V$C$A$GT$6insert17h44a354e1604cccd5E', symObjAddr: 0x44C, symBinAddr: 0x5DB4, symSize: 0xA0 }
  - { offset: 0x13F30, size: 0x8, addend: 0x0, symName: '__ZN5alloc11collections5btree3map5entry30OccupiedEntry$LT$K$C$V$C$A$GT$8into_mut17h6844f4f09b817eebE', symObjAddr: 0x4EC, symBinAddr: 0x5E54, symSize: 0x58 }
  - { offset: 0x13F8D, size: 0x8, addend: 0x0, symName: '__ZN4pyo311conversions3std6option90_$LT$impl$u20$pyo3..conversion..IntoPyObject$u20$for$u20$core..option..Option$LT$T$GT$$GT$13into_pyobject28_$u7b$$u7b$closure$u7d$$u7d$17h1c1330f15c504f2fE', symObjAddr: 0x0, symBinAddr: 0x5EAC, symSize: 0x24 }
  - { offset: 0x15485, size: 0x8, addend: 0x0, symName: '__ZN4pyo311conversions3std6option90_$LT$impl$u20$pyo3..conversion..IntoPyObject$u20$for$u20$core..option..Option$LT$T$GT$$GT$13into_pyobject28_$u7b$$u7b$closure$u7d$$u7d$17h1c1330f15c504f2fE', symObjAddr: 0x0, symBinAddr: 0x5EAC, symSize: 0x24 }
  - { offset: 0x154C5, size: 0x8, addend: 0x0, symName: '__ZN4pyo311conversions3std6option90_$LT$impl$u20$pyo3..conversion..IntoPyObject$u20$for$u20$core..option..Option$LT$T$GT$$GT$13into_pyobject28_$u7b$$u7b$closure$u7d$$u7d$17h28605d07348aa6baE', symObjAddr: 0x24, symBinAddr: 0x5ED0, symSize: 0x34 }
  - { offset: 0x15505, size: 0x8, addend: 0x0, symName: '__ZN4pyo311conversions3std6option90_$LT$impl$u20$pyo3..conversion..IntoPyObject$u20$for$u20$core..option..Option$LT$T$GT$$GT$13into_pyobject28_$u7b$$u7b$closure$u7d$$u7d$17h2c9bcb0f488b902fE', symObjAddr: 0x58, symBinAddr: 0x5F04, symSize: 0x60 }
  - { offset: 0x15553, size: 0x8, addend: 0x0, symName: '__ZN4pyo311conversions3std6option90_$LT$impl$u20$pyo3..conversion..IntoPyObject$u20$for$u20$core..option..Option$LT$T$GT$$GT$13into_pyobject28_$u7b$$u7b$closure$u7d$$u7d$17h37db67c1cbd3d459E', symObjAddr: 0xB8, symBinAddr: 0x5F64, symSize: 0x24 }
  - { offset: 0x15593, size: 0x8, addend: 0x0, symName: '__ZN4pyo311conversions3std6option90_$LT$impl$u20$pyo3..conversion..IntoPyObject$u20$for$u20$core..option..Option$LT$T$GT$$GT$13into_pyobject28_$u7b$$u7b$closure$u7d$$u7d$17h43944e9c12f8a8f3E', symObjAddr: 0xDC, symBinAddr: 0x5F88, symSize: 0x24 }
  - { offset: 0x155D3, size: 0x8, addend: 0x0, symName: '__ZN4pyo311conversions3std6option90_$LT$impl$u20$pyo3..conversion..IntoPyObject$u20$for$u20$core..option..Option$LT$T$GT$$GT$13into_pyobject28_$u7b$$u7b$closure$u7d$$u7d$17h68d67b111bc46e22E', symObjAddr: 0x100, symBinAddr: 0x5FAC, symSize: 0x34 }
  - { offset: 0x15621, size: 0x8, addend: 0x0, symName: '__ZN4pyo311conversions3std6option90_$LT$impl$u20$pyo3..conversion..IntoPyObject$u20$for$u20$core..option..Option$LT$T$GT$$GT$13into_pyobject28_$u7b$$u7b$closure$u7d$$u7d$17h718a8d1bddd4df92E', symObjAddr: 0x134, symBinAddr: 0x5FE0, symSize: 0x24 }
  - { offset: 0x15661, size: 0x8, addend: 0x0, symName: '__ZN4pyo311conversions3std6option90_$LT$impl$u20$pyo3..conversion..IntoPyObject$u20$for$u20$core..option..Option$LT$T$GT$$GT$13into_pyobject28_$u7b$$u7b$closure$u7d$$u7d$17h79fbc34319a076f8E', symObjAddr: 0x158, symBinAddr: 0x6004, symSize: 0x30 }
  - { offset: 0x156B0, size: 0x8, addend: 0x0, symName: '__ZN4pyo311conversions3std6option90_$LT$impl$u20$pyo3..conversion..IntoPyObject$u20$for$u20$core..option..Option$LT$T$GT$$GT$13into_pyobject28_$u7b$$u7b$closure$u7d$$u7d$17h9811d989a2d174b8E', symObjAddr: 0x188, symBinAddr: 0x6034, symSize: 0x40 }
  - { offset: 0x156FE, size: 0x8, addend: 0x0, symName: '__ZN4pyo311conversions3std6option90_$LT$impl$u20$pyo3..conversion..IntoPyObject$u20$for$u20$core..option..Option$LT$T$GT$$GT$13into_pyobject28_$u7b$$u7b$closure$u7d$$u7d$17he3387bc9e4e26477E', symObjAddr: 0x1C8, symBinAddr: 0x6074, symSize: 0x2C }
  - { offset: 0x16277, size: 0x8, addend: 0x0, symName: '__ZN4pyo35impl_4wrap30IntoPyObjectConverter$LT$T$GT$4wrap17h8283d39c28957086E', symObjAddr: 0x0, symBinAddr: 0x60A0, symSize: 0x24 }
  - { offset: 0x1865D, size: 0x8, addend: 0x0, symName: '__ZN4pyo35impl_4wrap62IntoPyObjectConverter$LT$core..result..Result$LT$T$C$E$GT$$GT$12map_into_ptr28_$u7b$$u7b$closure$u7d$$u7d$17h00cc9024242e5872E', symObjAddr: 0x1BC, symBinAddr: 0x625C, symSize: 0x34 }
  - { offset: 0x186B4, size: 0x8, addend: 0x0, symName: '__ZN4pyo35impl_4wrap62IntoPyObjectConverter$LT$core..result..Result$LT$T$C$E$GT$$GT$12map_into_ptr28_$u7b$$u7b$closure$u7d$$u7d$17h13a4d86496a77863E', symObjAddr: 0x1F0, symBinAddr: 0x6290, symSize: 0x28 }
  - { offset: 0x1870C, size: 0x8, addend: 0x0, symName: '__ZN4pyo35impl_4wrap62IntoPyObjectConverter$LT$core..result..Result$LT$T$C$E$GT$$GT$12map_into_ptr28_$u7b$$u7b$closure$u7d$$u7d$17h47fecc4dcc46df2aE', symObjAddr: 0x218, symBinAddr: 0x62B8, symSize: 0x28 }
  - { offset: 0x18764, size: 0x8, addend: 0x0, symName: '__ZN4pyo35impl_4wrap62IntoPyObjectConverter$LT$core..result..Result$LT$T$C$E$GT$$GT$12map_into_ptr28_$u7b$$u7b$closure$u7d$$u7d$17h6700abb7a80b0967E', symObjAddr: 0x240, symBinAddr: 0x62E0, symSize: 0x30 }
  - { offset: 0x187BB, size: 0x8, addend: 0x0, symName: '__ZN4pyo35impl_4wrap62IntoPyObjectConverter$LT$core..result..Result$LT$T$C$E$GT$$GT$12map_into_ptr28_$u7b$$u7b$closure$u7d$$u7d$17ha09f82c317669109E', symObjAddr: 0x270, symBinAddr: 0x6310, symSize: 0x28 }
  - { offset: 0x18813, size: 0x8, addend: 0x0, symName: '__ZN4pyo35impl_4wrap62IntoPyObjectConverter$LT$core..result..Result$LT$T$C$E$GT$$GT$12map_into_ptr28_$u7b$$u7b$closure$u7d$$u7d$17ha987b30bfb251660E', symObjAddr: 0x298, symBinAddr: 0x6338, symSize: 0x28 }
  - { offset: 0x188DF, size: 0x8, addend: 0x0, symName: __ZN4pyo35impl_4wrap9converter17h0eaead5a20db4d5fE, symObjAddr: 0x3C4, symBinAddr: 0x6464, symSize: 0x10 }
  - { offset: 0x1890C, size: 0x8, addend: 0x0, symName: __ZN4pyo35impl_4wrap9converter17h6a04055c0dee32dbE, symObjAddr: 0x3D4, symBinAddr: 0x6474, symSize: 0x10 }
  - { offset: 0x18939, size: 0x8, addend: 0x0, symName: __ZN4pyo35impl_4wrap9converter17h6bd5e9475561afe9E, symObjAddr: 0x3E4, symBinAddr: 0x6484, symSize: 0x10 }
  - { offset: 0x18966, size: 0x8, addend: 0x0, symName: __ZN4pyo35impl_4wrap9converter17h98f7d4f30f6deea2E, symObjAddr: 0x3F4, symBinAddr: 0x6494, symSize: 0x10 }
  - { offset: 0x18993, size: 0x8, addend: 0x0, symName: __ZN4pyo35impl_4wrap9converter17hbde4bba0ae56be0dE, symObjAddr: 0x404, symBinAddr: 0x64A4, symSize: 0x10 }
  - { offset: 0x189C0, size: 0x8, addend: 0x0, symName: __ZN4pyo35impl_4wrap9converter17hc8ee696cdb0ec7aeE, symObjAddr: 0x414, symBinAddr: 0x64B4, symSize: 0x10 }
  - { offset: 0x189ED, size: 0x8, addend: 0x0, symName: __ZN4pyo35impl_4wrap9converter17hd1e61e2664fef4ddE, symObjAddr: 0x424, symBinAddr: 0x64C4, symSize: 0x10 }
  - { offset: 0x18A1F, size: 0x8, addend: 0x0, symName: '__ZN81_$LT$pyo3..impl_..wrap..Converter$LT$T$GT$$u20$as$u20$core..ops..deref..Deref$GT$5deref17h0cc861efacffad13E', symObjAddr: 0x434, symBinAddr: 0x64D4, symSize: 0x14 }
  - { offset: 0x18A54, size: 0x8, addend: 0x0, symName: '__ZN81_$LT$pyo3..impl_..wrap..Converter$LT$T$GT$$u20$as$u20$core..ops..deref..Deref$GT$5deref17h3301621350a7d116E', symObjAddr: 0x448, symBinAddr: 0x64E8, symSize: 0x14 }
  - { offset: 0x18A89, size: 0x8, addend: 0x0, symName: '__ZN81_$LT$pyo3..impl_..wrap..Converter$LT$T$GT$$u20$as$u20$core..ops..deref..Deref$GT$5deref17h43b6c15db079c3e4E', symObjAddr: 0x45C, symBinAddr: 0x64FC, symSize: 0x14 }
  - { offset: 0x18ABE, size: 0x8, addend: 0x0, symName: '__ZN81_$LT$pyo3..impl_..wrap..Converter$LT$T$GT$$u20$as$u20$core..ops..deref..Deref$GT$5deref17h6d2ca73315a66061E', symObjAddr: 0x470, symBinAddr: 0x6510, symSize: 0x14 }
  - { offset: 0x18AF3, size: 0x8, addend: 0x0, symName: '__ZN81_$LT$pyo3..impl_..wrap..Converter$LT$T$GT$$u20$as$u20$core..ops..deref..Deref$GT$5deref17h8d893f6be6789dfbE', symObjAddr: 0x484, symBinAddr: 0x6524, symSize: 0x14 }
  - { offset: 0x18B28, size: 0x8, addend: 0x0, symName: '__ZN81_$LT$pyo3..impl_..wrap..Converter$LT$T$GT$$u20$as$u20$core..ops..deref..Deref$GT$5deref17ha73679b0bad1f690E', symObjAddr: 0x498, symBinAddr: 0x6538, symSize: 0x14 }
  - { offset: 0x18B5D, size: 0x8, addend: 0x0, symName: '__ZN81_$LT$pyo3..impl_..wrap..Converter$LT$T$GT$$u20$as$u20$core..ops..deref..Deref$GT$5deref17hd4dbdbe17171de6aE', symObjAddr: 0x4AC, symBinAddr: 0x654C, symSize: 0x14 }
  - { offset: 0x18B98, size: 0x8, addend: 0x0, symName: '__ZN91_$LT$pyo3..impl_..wrap..EmptyTupleConverter$LT$T$GT$$u20$as$u20$core..ops..deref..Deref$GT$5deref17h11ef7e7f2e71fa82E', symObjAddr: 0x4C0, symBinAddr: 0x6560, symSize: 0x14 }
  - { offset: 0x18BCD, size: 0x8, addend: 0x0, symName: '__ZN91_$LT$pyo3..impl_..wrap..EmptyTupleConverter$LT$T$GT$$u20$as$u20$core..ops..deref..Deref$GT$5deref17h2c7cfbbe8b8d239bE', symObjAddr: 0x4D4, symBinAddr: 0x6574, symSize: 0x14 }
  - { offset: 0x18C02, size: 0x8, addend: 0x0, symName: '__ZN91_$LT$pyo3..impl_..wrap..EmptyTupleConverter$LT$T$GT$$u20$as$u20$core..ops..deref..Deref$GT$5deref17h3f25abef03d525fdE', symObjAddr: 0x4E8, symBinAddr: 0x6588, symSize: 0x14 }
  - { offset: 0x18C37, size: 0x8, addend: 0x0, symName: '__ZN91_$LT$pyo3..impl_..wrap..EmptyTupleConverter$LT$T$GT$$u20$as$u20$core..ops..deref..Deref$GT$5deref17h48e1f76edef6e338E', symObjAddr: 0x4FC, symBinAddr: 0x659C, symSize: 0x14 }
  - { offset: 0x18C6C, size: 0x8, addend: 0x0, symName: '__ZN91_$LT$pyo3..impl_..wrap..EmptyTupleConverter$LT$T$GT$$u20$as$u20$core..ops..deref..Deref$GT$5deref17h5acc298311687350E', symObjAddr: 0x510, symBinAddr: 0x65B0, symSize: 0x14 }
  - { offset: 0x18CA1, size: 0x8, addend: 0x0, symName: '__ZN91_$LT$pyo3..impl_..wrap..EmptyTupleConverter$LT$T$GT$$u20$as$u20$core..ops..deref..Deref$GT$5deref17h9548eac0b4b29c1aE', symObjAddr: 0x524, symBinAddr: 0x65C4, symSize: 0x14 }
  - { offset: 0x18CD6, size: 0x8, addend: 0x0, symName: '__ZN91_$LT$pyo3..impl_..wrap..EmptyTupleConverter$LT$T$GT$$u20$as$u20$core..ops..deref..Deref$GT$5deref17hb3e5f3d5d01a3205E', symObjAddr: 0x538, symBinAddr: 0x65D8, symSize: 0x14 }
  - { offset: 0x1960E, size: 0x8, addend: 0x0, symName: '__ZN4pyo35impl_4wrap30IntoPyObjectConverter$LT$T$GT$4wrap17h8283d39c28957086E', symObjAddr: 0x0, symBinAddr: 0x60A0, symSize: 0x24 }
  - { offset: 0x19CF3, size: 0x8, addend: 0x0, symName: '__ZN4pyo35impl_4wrap62IntoPyObjectConverter$LT$core..result..Result$LT$T$C$E$GT$$GT$12map_into_ptr17h40eefeabae43d39eE', symObjAddr: 0x24, symBinAddr: 0x60C4, symSize: 0x44 }
  - { offset: 0x19D5C, size: 0x8, addend: 0x0, symName: '__ZN4pyo35impl_4wrap62IntoPyObjectConverter$LT$core..result..Result$LT$T$C$E$GT$$GT$12map_into_ptr17h56a917eda09de451E', symObjAddr: 0x68, symBinAddr: 0x6108, symSize: 0x44 }
  - { offset: 0x19DC5, size: 0x8, addend: 0x0, symName: '__ZN4pyo35impl_4wrap62IntoPyObjectConverter$LT$core..result..Result$LT$T$C$E$GT$$GT$12map_into_ptr17h5701b6a3730effc8E', symObjAddr: 0xAC, symBinAddr: 0x614C, symSize: 0x44 }
  - { offset: 0x19E2E, size: 0x8, addend: 0x0, symName: '__ZN4pyo35impl_4wrap62IntoPyObjectConverter$LT$core..result..Result$LT$T$C$E$GT$$GT$12map_into_ptr17h593e152a5d94ec46E', symObjAddr: 0xF0, symBinAddr: 0x6190, symSize: 0x44 }
  - { offset: 0x19E97, size: 0x8, addend: 0x0, symName: '__ZN4pyo35impl_4wrap62IntoPyObjectConverter$LT$core..result..Result$LT$T$C$E$GT$$GT$12map_into_ptr17h6740f5cb503fe0c1E', symObjAddr: 0x134, symBinAddr: 0x61D4, symSize: 0x44 }
  - { offset: 0x19F07, size: 0x8, addend: 0x0, symName: '__ZN4pyo35impl_4wrap62IntoPyObjectConverter$LT$core..result..Result$LT$T$C$E$GT$$GT$12map_into_ptr17hbc64826e8449e6daE', symObjAddr: 0x178, symBinAddr: 0x6218, symSize: 0x44 }
  - { offset: 0x19F63, size: 0x8, addend: 0x0, symName: '__ZN4pyo35impl_4wrap62IntoPyObjectConverter$LT$core..result..Result$LT$T$C$E$GT$$GT$4wrap17h1418fd138385d925E', symObjAddr: 0x2C0, symBinAddr: 0x6360, symSize: 0x34 }
  - { offset: 0x19FA6, size: 0x8, addend: 0x0, symName: '__ZN4pyo35impl_4wrap62IntoPyObjectConverter$LT$core..result..Result$LT$T$C$E$GT$$GT$4wrap17h40d265558a66e06fE', symObjAddr: 0x2F4, symBinAddr: 0x6394, symSize: 0x34 }
  - { offset: 0x19FE9, size: 0x8, addend: 0x0, symName: '__ZN4pyo35impl_4wrap62IntoPyObjectConverter$LT$core..result..Result$LT$T$C$E$GT$$GT$4wrap17h578ed5fe35bb34cfE', symObjAddr: 0x328, symBinAddr: 0x63C8, symSize: 0x34 }
  - { offset: 0x1A02C, size: 0x8, addend: 0x0, symName: '__ZN4pyo35impl_4wrap62IntoPyObjectConverter$LT$core..result..Result$LT$T$C$E$GT$$GT$4wrap17hdacd71e67b99521eE', symObjAddr: 0x35C, symBinAddr: 0x63FC, symSize: 0x34 }
  - { offset: 0x1A06F, size: 0x8, addend: 0x0, symName: '__ZN4pyo35impl_4wrap62IntoPyObjectConverter$LT$core..result..Result$LT$T$C$E$GT$$GT$4wrap17he19a214e096adcbdE', symObjAddr: 0x390, symBinAddr: 0x6430, symSize: 0x34 }
  - { offset: 0x1A1EE, size: 0x8, addend: 0x0, symName: __ZN8pyo3_ffi10boolobject7Py_True17hffb9ed02db2539a7E, symObjAddr: 0x0, symBinAddr: 0x65EC, symSize: 0xC }
  - { offset: 0x1AA8C, size: 0x8, addend: 0x0, symName: __ZN8pyo3_ffi10boolobject7Py_True17hffb9ed02db2539a7E, symObjAddr: 0x0, symBinAddr: 0x65EC, symSize: 0xC }
  - { offset: 0x1AAA9, size: 0x8, addend: 0x0, symName: __ZN8pyo3_ffi10boolobject8Py_False17h0b1bfc8645e96144E, symObjAddr: 0xC, symBinAddr: 0x65F8, symSize: 0xC }
  - { offset: 0x1B648, size: 0x8, addend: 0x0, symName: '__ZN4core5slice29_$LT$impl$u20$$u5b$T$u5d$$GT$22split_at_mut_unchecked17h9bd63ce380e3f49cE', symObjAddr: 0x0, symBinAddr: 0x6604, symSize: 0x108 }
  - { offset: 0x1B6C4, size: 0x8, addend: 0x0, symName: '__ZN4core5slice29_$LT$impl$u20$$u5b$T$u5d$$GT$22split_at_mut_unchecked17h9bd63ce380e3f49cE', symObjAddr: 0x0, symBinAddr: 0x6604, symSize: 0x108 }
  - { offset: 0x1B83D, size: 0x8, addend: 0x0, symName: '__ZN4core5slice29_$LT$impl$u20$$u5b$T$u5d$$GT$22split_at_mut_unchecked17hdd07f3401671f20eE', symObjAddr: 0x108, symBinAddr: 0x670C, symSize: 0x108 }
  - { offset: 0x1B9DD, size: 0x8, addend: 0x0, symName: '__ZN4core5slice29_$LT$impl$u20$$u5b$T$u5d$$GT$7reverse17h1b27af0bbb19c5ffE', symObjAddr: 0x210, symBinAddr: 0x6814, symSize: 0x118 }
  - { offset: 0x1BBBB, size: 0x8, addend: 0x0, symName: '__ZN4core5slice29_$LT$impl$u20$$u5b$T$u5d$$GT$7reverse17hd47d2d672ac68df9E', symObjAddr: 0x328, symBinAddr: 0x692C, symSize: 0x118 }
  - { offset: 0x1BE26, size: 0x8, addend: 0x0, symName: '__ZN68_$LT$T$u20$as$u20$core..slice..sort..stable..quicksort..IsFreeze$GT$9is_freeze17h058a5740cf8b51f2E', symObjAddr: 0x998, symBinAddr: 0x6F9C, symSize: 0xC }
  - { offset: 0x1BE4D, size: 0x8, addend: 0x0, symName: '__ZN68_$LT$T$u20$as$u20$core..slice..sort..stable..quicksort..IsFreeze$GT$9is_freeze17h677dfd3f55a2e87fE', symObjAddr: 0x9A4, symBinAddr: 0x6FA8, symSize: 0xC }
  - { offset: 0x1D277, size: 0x8, addend: 0x0, symName: '__ZN50_$LT$T$u20$as$u20$core..convert..Into$LT$U$GT$$GT$4into17h89d6e21683138ca6E', symObjAddr: 0x898, symBinAddr: 0x6E9C, symSize: 0x14 }
  - { offset: 0x1D2B8, size: 0x8, addend: 0x0, symName: '__ZN50_$LT$T$u20$as$u20$core..convert..Into$LT$U$GT$$GT$4into17he81878bbc726127aE', symObjAddr: 0x8AC, symBinAddr: 0x6EB0, symSize: 0x14 }
  - { offset: 0x1E408, size: 0x8, addend: 0x0, symName: '__ZN72_$LT$zcash_uri..Payment$u20$as$u20$pyo3..impl_..pyclass..PyClassImpl$GT$3doc28_$u7b$$u7b$closure$u7d$$u7d$17heeb9fc62aaf1a3c3E', symObjAddr: 0x9B0, symBinAddr: 0x6FB4, symSize: 0x54 }
  - { offset: 0x1E460, size: 0x8, addend: 0x0, symName: '__ZN83_$LT$zcash_uri..TransactionRequest$u20$as$u20$pyo3..impl_..pyclass..PyClassImpl$GT$3doc28_$u7b$$u7b$closure$u7d$$u7d$17h755fac5bcf47f3e5E', symObjAddr: 0xA04, symBinAddr: 0x7008, symSize: 0x54 }
  - { offset: 0x1E4BB, size: 0x8, addend: 0x0, symName: '__ZN9zcash_uri10ParseError15type_object_raw28_$u7b$$u7b$closure$u7d$$u7d$17h278fdcdf36420bedE', symObjAddr: 0xA58, symBinAddr: 0x705C, symSize: 0xC4 }
  - { offset: 0x1E546, size: 0x8, addend: 0x0, symName: '__ZN9zcash_uri11PaymentData15to_rust_payment28_$u7b$$u7b$closure$u7d$$u7d$17h2f0bb22d19e49599E', symObjAddr: 0xB30, symBinAddr: 0x7134, symSize: 0xCC }
  - { offset: 0x1E5D7, size: 0x8, addend: 0x0, symName: '__ZN9zcash_uri11PaymentData15to_rust_payment28_$u7b$$u7b$closure$u7d$$u7d$17h4cf69839b334e313E', symObjAddr: 0xBFC, symBinAddr: 0x7200, symSize: 0xB0 }
  - { offset: 0x1E648, size: 0x8, addend: 0x0, symName: '__ZN9zcash_uri11PaymentData15to_rust_payment28_$u7b$$u7b$closure$u7d$$u7d$17h56b2f621b99ec89dE', symObjAddr: 0xCAC, symBinAddr: 0x72B0, symSize: 0x2C }
  - { offset: 0x1E670, size: 0x8, addend: 0x0, symName: '__ZN9zcash_uri11PaymentData15to_rust_payment28_$u7b$$u7b$closure$u7d$$u7d$17h6671e7097046a650E', symObjAddr: 0xCD8, symBinAddr: 0x72DC, symSize: 0x6C }
  - { offset: 0x1E6FC, size: 0x8, addend: 0x0, symName: '__ZN9zcash_uri11PaymentData17from_rust_payment28_$u7b$$u7b$closure$u7d$$u7d$17hff1c26dd1b13be4eE', symObjAddr: 0xD44, symBinAddr: 0x7348, symSize: 0xF4 }
  - { offset: 0x1E817, size: 0x8, addend: 0x0, symName: '__ZN9zcash_uri11PaymentData17from_rust_payment28_$u7b$$u7b$closure$u7d$$u7d$28_$u7b$$u7b$closure$u7d$$u7d$17h8093ed480996f604E', symObjAddr: 0xE38, symBinAddr: 0x743C, symSize: 0x40 }
  - { offset: 0x1E84D, size: 0x8, addend: 0x0, symName: '__ZN9zcash_uri11PaymentData17from_rust_payment28_$u7b$$u7b$closure$u7d$$u7d$28_$u7b$$u7b$closure$u7d$$u7d$17hce20c53f09136f9eE', symObjAddr: 0xE78, symBinAddr: 0x747C, symSize: 0x28 }
  - { offset: 0x1E8BE, size: 0x8, addend: 0x0, symName: '__ZN9zcash_uri11Zip321Error15type_object_raw28_$u7b$$u7b$closure$u7d$$u7d$17h94f3e36a067363c2E', symObjAddr: 0xEA0, symBinAddr: 0x74A4, symSize: 0xC4 }
  - { offset: 0x1E911, size: 0x8, addend: 0x0, symName: '__ZN9zcash_uri14memo_to_base6428_$u7b$$u7b$closure$u7d$$u7d$17h6530ecb29a38665eE', symObjAddr: 0xF64, symBinAddr: 0x7568, symSize: 0x6C }
  - { offset: 0x1E9A8, size: 0x8, addend: 0x0, symName: '__ZN9zcash_uri156_$LT$impl$u20$pyo3..impl_..pyclass..PyMethods$LT$zcash_uri..Payment$GT$$u20$for$u20$pyo3..impl_..pyclass..PyClassImplCollector$LT$zcash_uri..Payment$GT$$GT$10py_methods5ITEMS36_$LT$impl$u20$zcash_uri..Payment$GT$24__pymethod___richcmp____28_$u7b$$u7b$closure$u7d$$u7d$17h630cefe2fdf01ffbE', symObjAddr: 0xFD0, symBinAddr: 0x75D4, symSize: 0x144 }
  - { offset: 0x1EA4E, size: 0x8, addend: 0x0, symName: '__ZN9zcash_uri16MemoTooLongError15type_object_raw28_$u7b$$u7b$closure$u7d$$u7d$17hfb24d8f069967a3aE', symObjAddr: 0x1114, symBinAddr: 0x7718, symSize: 0xC4 }
  - { offset: 0x1EAD4, size: 0x8, addend: 0x0, symName: '__ZN9zcash_uri16memo_from_base6428_$u7b$$u7b$closure$u7d$$u7d$17h54484665c256a0b6E', symObjAddr: 0x11EC, symBinAddr: 0x77F0, symSize: 0x28 }
  - { offset: 0x1EB27, size: 0x8, addend: 0x0, symName: '__ZN9zcash_uri16memo_from_base6428_$u7b$$u7b$closure$u7d$$u7d$17haee19e701a2d0de7E', symObjAddr: 0x1214, symBinAddr: 0x7818, symSize: 0x40 }
  - { offset: 0x1EB79, size: 0x8, addend: 0x0, symName: '__ZN9zcash_uri18InvalidBase64Error15type_object_raw28_$u7b$$u7b$closure$u7d$$u7d$17he4120bcabcd51a13E', symObjAddr: 0x1254, symBinAddr: 0x7858, symSize: 0xC4 }
  - { offset: 0x1EC04, size: 0x8, addend: 0x0, symName: '__ZN9zcash_uri18TransactionRequest14total_zatoshis28_$u7b$$u7b$closure$u7d$$u7d$17h690ca014ed05df8fE', symObjAddr: 0x132C, symBinAddr: 0x7930, symSize: 0x2C }
  - { offset: 0x1EC3B, size: 0x8, addend: 0x0, symName: '__ZN9zcash_uri18TransactionRequest6to_uri28_$u7b$$u7b$closure$u7d$$u7d$17hedc0caac582cb407E', symObjAddr: 0x1358, symBinAddr: 0x795C, symSize: 0x30 }
  - { offset: 0x1EC81, size: 0x8, addend: 0x0, symName: '__ZN9zcash_uri18TransactionRequest8from_uri28_$u7b$$u7b$closure$u7d$$u7d$17ha97f00199f998204E', symObjAddr: 0x1388, symBinAddr: 0x798C, symSize: 0x78 }
  - { offset: 0x1ECF1, size: 0x8, addend: 0x0, symName: '__ZN9zcash_uri18TransactionRequest8payments28_$u7b$$u7b$closure$u7d$$u7d$17h72bfdf5703b186a8E', symObjAddr: 0x1400, symBinAddr: 0x7A04, symSize: 0x98 }
  - { offset: 0x1ED61, size: 0x8, addend: 0x0, symName: '__ZN9zcash_uri18TransactionRequest9total_zec28_$u7b$$u7b$closure$u7d$$u7d$17ha0a4df1cad831e45E', symObjAddr: 0x1498, symBinAddr: 0x7A9C, symSize: 0x24 }
  - { offset: 0x1ED9F, size: 0x8, addend: 0x0, symName: '__ZN9zcash_uri18TransactionRequest9total_zec28_$u7b$$u7b$closure$u7d$$u7d$28_$u7b$$u7b$closure$u7d$$u7d$17h0305e31258a59b24E', symObjAddr: 0x14BC, symBinAddr: 0x7AC0, symSize: 0x24 }
  - { offset: 0x1EDF3, size: 0x8, addend: 0x0, symName: '__ZN9zcash_uri19InvalidAddressError15type_object_raw28_$u7b$$u7b$closure$u7d$$u7d$17h9d38925085f6c8c3E', symObjAddr: 0x14E0, symBinAddr: 0x7AE4, symSize: 0xC4 }
  - { offset: 0x1EE7E, size: 0x8, addend: 0x0, symName: '__ZN9zcash_uri19InvalidPaymentError15type_object_raw28_$u7b$$u7b$closure$u7d$$u7d$17h7e728674084ae877E', symObjAddr: 0x15B8, symBinAddr: 0x7BBC, symSize: 0xC4 }
  - { offset: 0x1EF27, size: 0x8, addend: 0x0, symName: '__ZN9zcash_uri20TooManyPaymentsError15type_object_raw28_$u7b$$u7b$closure$u7d$$u7d$17hac2a07b91f4edb2fE', symObjAddr: 0x16B8, symBinAddr: 0x7CBC, symSize: 0xC4 }
  - { offset: 0x1EFB2, size: 0x8, addend: 0x0, symName: '__ZN9zcash_uri20TransparentMemoError15type_object_raw28_$u7b$$u7b$closure$u7d$$u7d$17heb68fc70fc89be7bE', symObjAddr: 0x1790, symBinAddr: 0x7D94, symSize: 0xC4 }
  - { offset: 0x1F05B, size: 0x8, addend: 0x0, symName: '__ZN9zcash_uri21RecipientMissingError15type_object_raw28_$u7b$$u7b$closure$u7d$$u7d$17hbbf5e3d9ffde59bcE', symObjAddr: 0x1890, symBinAddr: 0x7E94, symSize: 0xC4 }
  - { offset: 0x1F0E6, size: 0x8, addend: 0x0, symName: '__ZN9zcash_uri7Payment10amount_zec28_$u7b$$u7b$closure$u7d$$u7d$17he4a54f1e986fba83E', symObjAddr: 0x1968, symBinAddr: 0x7F6C, symSize: 0x24 }
  - { offset: 0x1F129, size: 0x8, addend: 0x0, symName: '__ZN9zcash_uri7Payment3new28_$u7b$$u7b$closure$u7d$$u7d$17h7480ebf60f5d10f5E', symObjAddr: 0x1A2C, symBinAddr: 0x8030, symSize: 0xA4 }
  - { offset: 0x1F1B9, size: 0x8, addend: 0x0, symName: '__ZN9zcash_uri7Payment3new28_$u7b$$u7b$closure$u7d$$u7d$17h8eeb397e5457ef77E', symObjAddr: 0x1AD0, symBinAddr: 0x80D4, symSize: 0xB0 }
  - { offset: 0x1F237, size: 0x8, addend: 0x0, symName: '__ZN9zcash_uri7Payment9memo_text28_$u7b$$u7b$closure$u7d$$u7d$17h783fbdcf501f7625E', symObjAddr: 0x1B80, symBinAddr: 0x8184, symSize: 0x44 }
  - { offset: 0x1F280, size: 0x8, addend: 0x0, symName: '__ZN9zcash_uri7Payment20__pymethod___new____28_$u7b$$u7b$closure$u7d$$u7d$17h0983317e2f07d5e0E', symObjAddr: 0x198C, symBinAddr: 0x7F90, symSize: 0x24 }
  - { offset: 0x1F2A8, size: 0x8, addend: 0x0, symName: '__ZN9zcash_uri7Payment20__pymethod___new____28_$u7b$$u7b$closure$u7d$$u7d$17h1cb76f4ddd834d28E', symObjAddr: 0x19B0, symBinAddr: 0x7FB4, symSize: 0x2C }
  - { offset: 0x1F2D0, size: 0x8, addend: 0x0, symName: '__ZN9zcash_uri7Payment20__pymethod___new____28_$u7b$$u7b$closure$u7d$$u7d$17h3a0b4c9cf677c976E', symObjAddr: 0x19DC, symBinAddr: 0x7FE0, symSize: 0x2C }
  - { offset: 0x1F2F8, size: 0x8, addend: 0x0, symName: '__ZN9zcash_uri7Payment20__pymethod___new____28_$u7b$$u7b$closure$u7d$$u7d$17h3b21bde652e540afE', symObjAddr: 0x1A08, symBinAddr: 0x800C, symSize: 0x24 }
  - { offset: 0x1F515, size: 0x8, addend: 0x0, symName: '__ZN5alloc5slice29_$LT$impl$u20$$u5b$T$u5d$$GT$7sort_by17h81b1311e6164ab7dE', symObjAddr: 0x908, symBinAddr: 0x6F0C, symSize: 0x48 }
  - { offset: 0x1F55D, size: 0x8, addend: 0x0, symName: '__ZN5alloc5slice29_$LT$impl$u20$$u5b$T$u5d$$GT$7sort_by17h82f0a484f3540345E', symObjAddr: 0x950, symBinAddr: 0x6F54, symSize: 0x48 }
  - { offset: 0x1F8A4, size: 0x8, addend: 0x0, symName: __ZN4pyo310conversion15IntoPyObjectExt17into_bound_py_any17ha1e322e367eeb222E, symObjAddr: 0x440, symBinAddr: 0x6A44, symSize: 0xB4 }
  - { offset: 0x1F934, size: 0x8, addend: 0x0, symName: __ZN4pyo310conversion15IntoPyObjectExt22into_pyobject_or_pyerr17h8412ce900bd016e2E, symObjAddr: 0x4F4, symBinAddr: 0x6AF8, symSize: 0xAC }
  - { offset: 0x1F9D0, size: 0x8, addend: 0x0, symName: __ZN4pyo311type_object10PyTypeInfo10is_type_of17h4628b321b644f380E, symObjAddr: 0x5A0, symBinAddr: 0x6BA4, symSize: 0x50 }
  - { offset: 0x1FA05, size: 0x8, addend: 0x0, symName: __ZN4pyo311type_object10PyTypeInfo10is_type_of17hacf6c0029fed874bE, symObjAddr: 0x5F0, symBinAddr: 0x6BF4, symSize: 0x50 }
  - { offset: 0x1FA3A, size: 0x8, addend: 0x0, symName: __ZN4pyo311type_object10PyTypeInfo11type_object17h00af727ffb9bb8dfE, symObjAddr: 0x640, symBinAddr: 0x6C44, symSize: 0x30 }
  - { offset: 0x1FA7A, size: 0x8, addend: 0x0, symName: __ZN4pyo311type_object10PyTypeInfo11type_object17h07b791638bdc3c27E, symObjAddr: 0x670, symBinAddr: 0x6C74, symSize: 0x30 }
  - { offset: 0x1FABA, size: 0x8, addend: 0x0, symName: __ZN4pyo311type_object10PyTypeInfo11type_object17h0c2bdb7ff5703cdbE, symObjAddr: 0x6A0, symBinAddr: 0x6CA4, symSize: 0x30 }
  - { offset: 0x1FAFA, size: 0x8, addend: 0x0, symName: __ZN4pyo311type_object10PyTypeInfo11type_object17h4672454ef0e696fcE, symObjAddr: 0x6D0, symBinAddr: 0x6CD4, symSize: 0x30 }
  - { offset: 0x1FB3A, size: 0x8, addend: 0x0, symName: __ZN4pyo311type_object10PyTypeInfo11type_object17h5c9323e46cc64629E, symObjAddr: 0x700, symBinAddr: 0x6D04, symSize: 0x30 }
  - { offset: 0x1FB7A, size: 0x8, addend: 0x0, symName: __ZN4pyo311type_object10PyTypeInfo11type_object17h7befa0569b44930eE, symObjAddr: 0x730, symBinAddr: 0x6D34, symSize: 0x30 }
  - { offset: 0x1FBBA, size: 0x8, addend: 0x0, symName: __ZN4pyo311type_object10PyTypeInfo11type_object17h906b7e3546eb0621E, symObjAddr: 0x760, symBinAddr: 0x6D64, symSize: 0x30 }
  - { offset: 0x1FBFA, size: 0x8, addend: 0x0, symName: __ZN4pyo311type_object10PyTypeInfo11type_object17h9942d2cbb0c0df36E, symObjAddr: 0x790, symBinAddr: 0x6D94, symSize: 0x30 }
  - { offset: 0x1FC3A, size: 0x8, addend: 0x0, symName: __ZN4pyo311type_object10PyTypeInfo11type_object17hb4ea804dad6b0bddE, symObjAddr: 0x7C0, symBinAddr: 0x6DC4, symSize: 0x30 }
  - { offset: 0x1FC80, size: 0x8, addend: 0x0, symName: '__ZN52_$LT$T$u20$as$u20$pyo3..type_object..PyTypeCheck$GT$10type_check17h1f501b645c9a31c7E', symObjAddr: 0x8C0, symBinAddr: 0x6EC4, symSize: 0x24 }
  - { offset: 0x1FCB5, size: 0x8, addend: 0x0, symName: '__ZN52_$LT$T$u20$as$u20$pyo3..type_object..PyTypeCheck$GT$10type_check17h779b1e19f2550cd8E', symObjAddr: 0x8E4, symBinAddr: 0x6EE8, symSize: 0x24 }
  - { offset: 0x1FCF6, size: 0x8, addend: 0x0, symName: '__ZN4pyo312pyclass_init130_$LT$impl$u20$pyo3..impl_..callback..IntoPyCallbackOutput$LT$pyo3..pyclass_init..PyClassInitializer$LT$T$GT$$GT$$u20$for$u20$U$GT$7convert17h27af9c9d5da52767E', symObjAddr: 0x7F0, symBinAddr: 0x6DF4, symSize: 0x44 }
  - { offset: 0x1FD52, size: 0x8, addend: 0x0, symName: '__ZN4pyo312pyclass_init130_$LT$impl$u20$pyo3..impl_..callback..IntoPyCallbackOutput$LT$pyo3..pyclass_init..PyClassInitializer$LT$T$GT$$GT$$u20$for$u20$U$GT$7convert17h916dfb1353480957E', symObjAddr: 0x834, symBinAddr: 0x6E38, symSize: 0x44 }
  - { offset: 0x1FEEE, size: 0x8, addend: 0x0, symName: __ZN4pyo35impl_7pyclass11PyClassImpl11dict_offset17h3ef2f0caf6474d25E, symObjAddr: 0x878, symBinAddr: 0x6E7C, symSize: 0x8 }
  - { offset: 0x1FF15, size: 0x8, addend: 0x0, symName: __ZN4pyo35impl_7pyclass11PyClassImpl11dict_offset17hec5b490b0cb37c77E, symObjAddr: 0x880, symBinAddr: 0x6E84, symSize: 0x8 }
  - { offset: 0x1FF3C, size: 0x8, addend: 0x0, symName: __ZN4pyo35impl_7pyclass11PyClassImpl15weaklist_offset17h5b8423d89a6ed7a2E, symObjAddr: 0x888, symBinAddr: 0x6E8C, symSize: 0x8 }
  - { offset: 0x1FF63, size: 0x8, addend: 0x0, symName: __ZN4pyo35impl_7pyclass11PyClassImpl15weaklist_offset17hfdeff8733e605b74E, symObjAddr: 0x890, symBinAddr: 0x6E94, symSize: 0x8 }
  - { offset: 0x20980, size: 0x8, addend: 0x0, symName: __ZN9zcash_uri10ParseError7new_err17ha5909094645b8a56E, symObjAddr: 0xB1C, symBinAddr: 0x7120, symSize: 0x14 }
  - { offset: 0x209D3, size: 0x8, addend: 0x0, symName: __ZN9zcash_uri16MemoTooLongError7new_err17h228fd947a68a9484E, symObjAddr: 0x11D8, symBinAddr: 0x77DC, symSize: 0x14 }
  - { offset: 0x209FF, size: 0x8, addend: 0x0, symName: __ZN9zcash_uri18InvalidBase64Error7new_err17h6baa50d0c45032beE, symObjAddr: 0x1318, symBinAddr: 0x791C, symSize: 0x14 }
  - { offset: 0x20A2B, size: 0x8, addend: 0x0, symName: __ZN9zcash_uri19InvalidAddressError7new_err17h705c58485ef98b4eE, symObjAddr: 0x15A4, symBinAddr: 0x7BA8, symSize: 0x14 }
  - { offset: 0x20A57, size: 0x8, addend: 0x0, symName: __ZN9zcash_uri19InvalidPaymentError7new_err17h7e352c881cced3f6E, symObjAddr: 0x167C, symBinAddr: 0x7C80, symSize: 0x14 }
  - { offset: 0x20AA1, size: 0x8, addend: 0x0, symName: __ZN9zcash_uri19InvalidPaymentError7new_err17he53c8a4edb589427E, symObjAddr: 0x1690, symBinAddr: 0x7C94, symSize: 0x28 }
  - { offset: 0x20ACC, size: 0x8, addend: 0x0, symName: __ZN9zcash_uri20TooManyPaymentsError7new_err17h26747ee63ea46fc7E, symObjAddr: 0x177C, symBinAddr: 0x7D80, symSize: 0x14 }
  - { offset: 0x20AF8, size: 0x8, addend: 0x0, symName: __ZN9zcash_uri20TransparentMemoError7new_err17ha5f3813a66fce297E, symObjAddr: 0x1854, symBinAddr: 0x7E58, symSize: 0x14 }
  - { offset: 0x20B24, size: 0x8, addend: 0x0, symName: __ZN9zcash_uri20TransparentMemoError7new_err17had5e77657511a440E, symObjAddr: 0x1868, symBinAddr: 0x7E6C, symSize: 0x28 }
  - { offset: 0x20B4F, size: 0x8, addend: 0x0, symName: __ZN9zcash_uri21RecipientMissingError7new_err17h6dee973f21953c88E, symObjAddr: 0x1954, symBinAddr: 0x7F58, symSize: 0x14 }
  - { offset: 0x2137D, size: 0x8, addend: 0x0, symName: __ZN4core9ub_checks23maybe_is_nonoverlapping7runtime17hfd38fa8bd6be0095E, symObjAddr: 0x0, symBinAddr: 0x81C8, symSize: 0xD8 }
  - { offset: 0x21502, size: 0x8, addend: 0x0, symName: __ZN4core9ub_checks23maybe_is_nonoverlapping7runtime17hfd38fa8bd6be0095E, symObjAddr: 0x0, symBinAddr: 0x81C8, symSize: 0xD8 }
  - { offset: 0x21715, size: 0x8, addend: 0x0, symName: '__ZN106_$LT$core..result..Result$LT$T$C$E$GT$$u20$as$u20$pyo3..impl_..callback..IntoPyCallbackOutput$LT$U$GT$$GT$7convert17h5ed9e6f2388c77e5E', symObjAddr: 0x0, symBinAddr: 0x82A0, symSize: 0xC4 }
  - { offset: 0x2176A, size: 0x8, addend: 0x0, symName: '__ZN136_$LT$core..result..Result$LT$V$C$E$GT$$u20$as$u20$core..iter..traits..collect..FromIterator$LT$core..result..Result$LT$A$C$E$GT$$GT$$GT$9from_iter17h9a1913991acff659E', symObjAddr: 0x170, symBinAddr: 0x8410, symSize: 0x34 }
  - { offset: 0x217C2, size: 0x8, addend: 0x0, symName: '__ZN136_$LT$core..result..Result$LT$V$C$E$GT$$u20$as$u20$core..iter..traits..collect..FromIterator$LT$core..result..Result$LT$A$C$E$GT$$GT$$GT$9from_iter28_$u7b$$u7b$closure$u7d$$u7d$17h7924109086faf9d5E', symObjAddr: 0x1A4, symBinAddr: 0x8444, symSize: 0x28 }
  - { offset: 0x2182E, size: 0x8, addend: 0x0, symName: '__ZN153_$LT$core..result..Result$LT$T$C$F$GT$$u20$as$u20$core..ops..try_trait..FromResidual$LT$core..result..Result$LT$core..convert..Infallible$C$E$GT$$GT$$GT$13from_residual17h1a8eca4712bd9872E', symObjAddr: 0x1CC, symBinAddr: 0x846C, symSize: 0x6C }
  - { offset: 0x218B4, size: 0x8, addend: 0x0, symName: '__ZN153_$LT$core..result..Result$LT$T$C$F$GT$$u20$as$u20$core..ops..try_trait..FromResidual$LT$core..result..Result$LT$core..convert..Infallible$C$E$GT$$GT$$GT$13from_residual17h1da0fdbba108596bE', symObjAddr: 0x238, symBinAddr: 0x84D8, symSize: 0x6C }
  - { offset: 0x2193A, size: 0x8, addend: 0x0, symName: '__ZN153_$LT$core..result..Result$LT$T$C$F$GT$$u20$as$u20$core..ops..try_trait..FromResidual$LT$core..result..Result$LT$core..convert..Infallible$C$E$GT$$GT$$GT$13from_residual17h26b02e7775183bdcE', symObjAddr: 0x2A4, symBinAddr: 0x8544, symSize: 0x6C }
  - { offset: 0x219C0, size: 0x8, addend: 0x0, symName: '__ZN153_$LT$core..result..Result$LT$T$C$F$GT$$u20$as$u20$core..ops..try_trait..FromResidual$LT$core..result..Result$LT$core..convert..Infallible$C$E$GT$$GT$$GT$13from_residual17h2b8ed6ecb1155c6aE', symObjAddr: 0x310, symBinAddr: 0x85B0, symSize: 0x6C }
  - { offset: 0x21A46, size: 0x8, addend: 0x0, symName: '__ZN153_$LT$core..result..Result$LT$T$C$F$GT$$u20$as$u20$core..ops..try_trait..FromResidual$LT$core..result..Result$LT$core..convert..Infallible$C$E$GT$$GT$$GT$13from_residual17h306bb6b3e5b28ecdE', symObjAddr: 0x37C, symBinAddr: 0x861C, symSize: 0x6C }
  - { offset: 0x21ACC, size: 0x8, addend: 0x0, symName: '__ZN153_$LT$core..result..Result$LT$T$C$F$GT$$u20$as$u20$core..ops..try_trait..FromResidual$LT$core..result..Result$LT$core..convert..Infallible$C$E$GT$$GT$$GT$13from_residual17h3fdeeaf9ce5341eaE', symObjAddr: 0x3E8, symBinAddr: 0x8688, symSize: 0x6C }
  - { offset: 0x21B52, size: 0x8, addend: 0x0, symName: '__ZN153_$LT$core..result..Result$LT$T$C$F$GT$$u20$as$u20$core..ops..try_trait..FromResidual$LT$core..result..Result$LT$core..convert..Infallible$C$E$GT$$GT$$GT$13from_residual17h42f0b1dd66ea98d2E', symObjAddr: 0x454, symBinAddr: 0x86F4, symSize: 0x6C }
  - { offset: 0x21BD8, size: 0x8, addend: 0x0, symName: '__ZN153_$LT$core..result..Result$LT$T$C$F$GT$$u20$as$u20$core..ops..try_trait..FromResidual$LT$core..result..Result$LT$core..convert..Infallible$C$E$GT$$GT$$GT$13from_residual17h44b625b77ebfc7c7E', symObjAddr: 0x4C0, symBinAddr: 0x8760, symSize: 0x6C }
  - { offset: 0x21C5E, size: 0x8, addend: 0x0, symName: '__ZN153_$LT$core..result..Result$LT$T$C$F$GT$$u20$as$u20$core..ops..try_trait..FromResidual$LT$core..result..Result$LT$core..convert..Infallible$C$E$GT$$GT$$GT$13from_residual17h4a6e1dc934d4d281E', symObjAddr: 0x52C, symBinAddr: 0x87CC, symSize: 0x64 }
  - { offset: 0x21CC6, size: 0x8, addend: 0x0, symName: '__ZN153_$LT$core..result..Result$LT$T$C$F$GT$$u20$as$u20$core..ops..try_trait..FromResidual$LT$core..result..Result$LT$core..convert..Infallible$C$E$GT$$GT$$GT$13from_residual17h5bdf608b33647ee6E', symObjAddr: 0x590, symBinAddr: 0x8830, symSize: 0x6C }
  - { offset: 0x21D4C, size: 0x8, addend: 0x0, symName: '__ZN153_$LT$core..result..Result$LT$T$C$F$GT$$u20$as$u20$core..ops..try_trait..FromResidual$LT$core..result..Result$LT$core..convert..Infallible$C$E$GT$$GT$$GT$13from_residual17h8d919610a689f4fdE', symObjAddr: 0x5FC, symBinAddr: 0x889C, symSize: 0x64 }
  - { offset: 0x21DB4, size: 0x8, addend: 0x0, symName: '__ZN153_$LT$core..result..Result$LT$T$C$F$GT$$u20$as$u20$core..ops..try_trait..FromResidual$LT$core..result..Result$LT$core..convert..Infallible$C$E$GT$$GT$$GT$13from_residual17h96abb8b577adf645E', symObjAddr: 0x660, symBinAddr: 0x8900, symSize: 0x6C }
  - { offset: 0x21E3A, size: 0x8, addend: 0x0, symName: '__ZN153_$LT$core..result..Result$LT$T$C$F$GT$$u20$as$u20$core..ops..try_trait..FromResidual$LT$core..result..Result$LT$core..convert..Infallible$C$E$GT$$GT$$GT$13from_residual17hc9957fbfa4b88413E', symObjAddr: 0x6CC, symBinAddr: 0x896C, symSize: 0x6C }
  - { offset: 0x21EC0, size: 0x8, addend: 0x0, symName: '__ZN153_$LT$core..result..Result$LT$T$C$F$GT$$u20$as$u20$core..ops..try_trait..FromResidual$LT$core..result..Result$LT$core..convert..Infallible$C$E$GT$$GT$$GT$13from_residual17hdc1b0d9038172067E', symObjAddr: 0x738, symBinAddr: 0x89D8, symSize: 0x6C }
  - { offset: 0x21F46, size: 0x8, addend: 0x0, symName: '__ZN153_$LT$core..result..Result$LT$T$C$F$GT$$u20$as$u20$core..ops..try_trait..FromResidual$LT$core..result..Result$LT$core..convert..Infallible$C$E$GT$$GT$$GT$13from_residual17hf3aa16b03ceeb014E', symObjAddr: 0x7A4, symBinAddr: 0x8A44, symSize: 0x6C }
  - { offset: 0x22D00, size: 0x8, addend: 0x0, symName: '__ZN4core6result23Result$LT$$RF$T$C$E$GT$6cloned28_$u7b$$u7b$closure$u7d$$u7d$17hdaa477e14555e5feE', symObjAddr: 0x27D4, symBinAddr: 0xAA74, symSize: 0x24 }
  - { offset: 0x22D4B, size: 0x8, addend: 0x0, symName: '__ZN4core6result23Result$LT$$RF$T$C$E$GT$6cloned28_$u7b$$u7b$closure$u7d$$u7d$17heb923dcdca064e73E', symObjAddr: 0x27F8, symBinAddr: 0xAA98, symSize: 0x24 }
  - { offset: 0x247B7, size: 0x8, addend: 0x0, symName: '__ZN79_$LT$core..result..Result$LT$T$C$E$GT$$u20$as$u20$core..ops..try_trait..Try$GT$11from_output17he43cdda487df2d98E', symObjAddr: 0x281C, symBinAddr: 0xAABC, symSize: 0x18 }
  - { offset: 0x247F7, size: 0x8, addend: 0x0, symName: '__ZN79_$LT$core..result..Result$LT$T$C$E$GT$$u20$as$u20$core..ops..try_trait..Try$GT$6branch17h5ca11e14110a4244E', symObjAddr: 0x2834, symBinAddr: 0xAAD4, symSize: 0xC0 }
  - { offset: 0x24876, size: 0x8, addend: 0x0, symName: '__ZN79_$LT$core..result..Result$LT$T$C$E$GT$$u20$as$u20$core..ops..try_trait..Try$GT$6branch17h687408128debd30cE', symObjAddr: 0x28F4, symBinAddr: 0xAB94, symSize: 0xA0 }
  - { offset: 0x248F3, size: 0x8, addend: 0x0, symName: '__ZN79_$LT$core..result..Result$LT$T$C$E$GT$$u20$as$u20$core..ops..try_trait..Try$GT$6branch17h6a9dc7a5ed010f9aE', symObjAddr: 0x2994, symBinAddr: 0xAC34, symSize: 0xA0 }
  - { offset: 0x24970, size: 0x8, addend: 0x0, symName: '__ZN79_$LT$core..result..Result$LT$T$C$E$GT$$u20$as$u20$core..ops..try_trait..Try$GT$6branch17h71de5199a107fd1fE', symObjAddr: 0x2A34, symBinAddr: 0xACD4, symSize: 0xA0 }
  - { offset: 0x249ED, size: 0x8, addend: 0x0, symName: '__ZN79_$LT$core..result..Result$LT$T$C$E$GT$$u20$as$u20$core..ops..try_trait..Try$GT$6branch17h73d9ed94c84ce3b3E', symObjAddr: 0x2AD4, symBinAddr: 0xAD74, symSize: 0xAC }
  - { offset: 0x24A6A, size: 0x8, addend: 0x0, symName: '__ZN79_$LT$core..result..Result$LT$T$C$E$GT$$u20$as$u20$core..ops..try_trait..Try$GT$6branch17h7b954843ba6586ceE', symObjAddr: 0x2B80, symBinAddr: 0xAE20, symSize: 0xA0 }
  - { offset: 0x24AE7, size: 0x8, addend: 0x0, symName: '__ZN79_$LT$core..result..Result$LT$T$C$E$GT$$u20$as$u20$core..ops..try_trait..Try$GT$6branch17h802abad40cec6a57E', symObjAddr: 0x2C20, symBinAddr: 0xAEC0, symSize: 0xB4 }
  - { offset: 0x24B65, size: 0x8, addend: 0x0, symName: '__ZN79_$LT$core..result..Result$LT$T$C$E$GT$$u20$as$u20$core..ops..try_trait..Try$GT$6branch17h83d1b3d382dca0a8E', symObjAddr: 0x2CD4, symBinAddr: 0xAF74, symSize: 0xA0 }
  - { offset: 0x24BE2, size: 0x8, addend: 0x0, symName: '__ZN79_$LT$core..result..Result$LT$T$C$E$GT$$u20$as$u20$core..ops..try_trait..Try$GT$6branch17h9051efab24f81f2fE', symObjAddr: 0x2D74, symBinAddr: 0xB014, symSize: 0xA0 }
  - { offset: 0x24C5F, size: 0x8, addend: 0x0, symName: '__ZN79_$LT$core..result..Result$LT$T$C$E$GT$$u20$as$u20$core..ops..try_trait..Try$GT$6branch17h9bc43f63dfaef7d6E', symObjAddr: 0x2E14, symBinAddr: 0xB0B4, symSize: 0xAC }
  - { offset: 0x24CDC, size: 0x8, addend: 0x0, symName: '__ZN79_$LT$core..result..Result$LT$T$C$E$GT$$u20$as$u20$core..ops..try_trait..Try$GT$6branch17ha364372bb4ab4070E', symObjAddr: 0x2EC0, symBinAddr: 0xB160, symSize: 0x88 }
  - { offset: 0x24D5A, size: 0x8, addend: 0x0, symName: '__ZN79_$LT$core..result..Result$LT$T$C$E$GT$$u20$as$u20$core..ops..try_trait..Try$GT$6branch17had42027dd9e844bfE', symObjAddr: 0x2F48, symBinAddr: 0xB1E8, symSize: 0xC8 }
  - { offset: 0x24DD9, size: 0x8, addend: 0x0, symName: '__ZN79_$LT$core..result..Result$LT$T$C$E$GT$$u20$as$u20$core..ops..try_trait..Try$GT$6branch17hb15d9473a971d881E', symObjAddr: 0x3010, symBinAddr: 0xB2B0, symSize: 0xA0 }
  - { offset: 0x24E56, size: 0x8, addend: 0x0, symName: '__ZN79_$LT$core..result..Result$LT$T$C$E$GT$$u20$as$u20$core..ops..try_trait..Try$GT$6branch17hb2c0c7194c82feb9E', symObjAddr: 0x30B0, symBinAddr: 0xB350, symSize: 0xAC }
  - { offset: 0x24ED3, size: 0x8, addend: 0x0, symName: '__ZN79_$LT$core..result..Result$LT$T$C$E$GT$$u20$as$u20$core..ops..try_trait..Try$GT$6branch17hb40732ddba48ff75E', symObjAddr: 0x315C, symBinAddr: 0xB3FC, symSize: 0x90 }
  - { offset: 0x24F50, size: 0x8, addend: 0x0, symName: '__ZN79_$LT$core..result..Result$LT$T$C$E$GT$$u20$as$u20$core..ops..try_trait..Try$GT$6branch17hb68dd39992e3638dE', symObjAddr: 0x31EC, symBinAddr: 0xB48C, symSize: 0xB4 }
  - { offset: 0x24FCE, size: 0x8, addend: 0x0, symName: '__ZN79_$LT$core..result..Result$LT$T$C$E$GT$$u20$as$u20$core..ops..try_trait..Try$GT$6branch17hbffcc4ef52a76eceE', symObjAddr: 0x32A0, symBinAddr: 0xB540, symSize: 0x88 }
  - { offset: 0x2504C, size: 0x8, addend: 0x0, symName: '__ZN79_$LT$core..result..Result$LT$T$C$E$GT$$u20$as$u20$core..ops..try_trait..Try$GT$6branch17hc3ba353b47eff7f5E', symObjAddr: 0x3328, symBinAddr: 0xB5C8, symSize: 0xCC }
  - { offset: 0x250CA, size: 0x8, addend: 0x0, symName: '__ZN79_$LT$core..result..Result$LT$T$C$E$GT$$u20$as$u20$core..ops..try_trait..Try$GT$6branch17hc7cbba05dc32d592E', symObjAddr: 0x33F4, symBinAddr: 0xB694, symSize: 0xB4 }
  - { offset: 0x25148, size: 0x8, addend: 0x0, symName: '__ZN79_$LT$core..result..Result$LT$T$C$E$GT$$u20$as$u20$core..ops..try_trait..Try$GT$6branch17hcf36f24ddb3f6aadE', symObjAddr: 0x34A8, symBinAddr: 0xB748, symSize: 0xA0 }
  - { offset: 0x251C5, size: 0x8, addend: 0x0, symName: '__ZN79_$LT$core..result..Result$LT$T$C$E$GT$$u20$as$u20$core..ops..try_trait..Try$GT$6branch17hd59cad981410be35E', symObjAddr: 0x3548, symBinAddr: 0xB7E8, symSize: 0xB4 }
  - { offset: 0x25243, size: 0x8, addend: 0x0, symName: '__ZN79_$LT$core..result..Result$LT$T$C$E$GT$$u20$as$u20$core..ops..try_trait..Try$GT$6branch17hda20c75dcc6612ccE', symObjAddr: 0x35FC, symBinAddr: 0xB89C, symSize: 0xB4 }
  - { offset: 0x252C1, size: 0x8, addend: 0x0, symName: '__ZN79_$LT$core..result..Result$LT$T$C$E$GT$$u20$as$u20$core..ops..try_trait..Try$GT$6branch17hdeadaac6baabcedaE', symObjAddr: 0x36B0, symBinAddr: 0xB950, symSize: 0xA0 }
  - { offset: 0x2533E, size: 0x8, addend: 0x0, symName: '__ZN79_$LT$core..result..Result$LT$T$C$E$GT$$u20$as$u20$core..ops..try_trait..Try$GT$6branch17he30a885b7467ccdeE', symObjAddr: 0x3750, symBinAddr: 0xB9F0, symSize: 0xB4 }
  - { offset: 0x253BC, size: 0x8, addend: 0x0, symName: '__ZN79_$LT$core..result..Result$LT$T$C$E$GT$$u20$as$u20$core..ops..try_trait..Try$GT$6branch17hec815be31e869526E', symObjAddr: 0x3804, symBinAddr: 0xBAA4, symSize: 0xA0 }
  - { offset: 0x25439, size: 0x8, addend: 0x0, symName: '__ZN79_$LT$core..result..Result$LT$T$C$E$GT$$u20$as$u20$core..ops..try_trait..Try$GT$6branch17hee1b272c361203d4E', symObjAddr: 0x38A4, symBinAddr: 0xBB44, symSize: 0xA0 }
  - { offset: 0x28B45, size: 0x8, addend: 0x0, symName: '__ZN106_$LT$core..result..Result$LT$T$C$E$GT$$u20$as$u20$pyo3..impl_..callback..IntoPyCallbackOutput$LT$U$GT$$GT$7convert17h5ed9e6f2388c77e5E', symObjAddr: 0x0, symBinAddr: 0x82A0, symSize: 0xC4 }
  - { offset: 0x28BE1, size: 0x8, addend: 0x0, symName: '__ZN106_$LT$core..result..Result$LT$T$C$E$GT$$u20$as$u20$pyo3..impl_..callback..IntoPyCallbackOutput$LT$U$GT$$GT$7convert17hf26c1215f4f13372E', symObjAddr: 0xC4, symBinAddr: 0x8364, symSize: 0xAC }
  - { offset: 0x29CDD, size: 0x8, addend: 0x0, symName: '__ZN4core6result19Result$LT$T$C$E$GT$14unwrap_or_else17h0ba9e22be20b157dE', symObjAddr: 0x810, symBinAddr: 0x8AB0, symSize: 0x90 }
  - { offset: 0x29D95, size: 0x8, addend: 0x0, symName: '__ZN4core6result19Result$LT$T$C$E$GT$14unwrap_or_else17h448bb45dd131b361E', symObjAddr: 0x8A0, symBinAddr: 0x8B40, symSize: 0x88 }
  - { offset: 0x29E1F, size: 0x8, addend: 0x0, symName: '__ZN4core6result19Result$LT$T$C$E$GT$14unwrap_or_else17h9fa878891237e1f9E', symObjAddr: 0x928, symBinAddr: 0x8BC8, symSize: 0x90 }
  - { offset: 0x29EA9, size: 0x8, addend: 0x0, symName: '__ZN4core6result19Result$LT$T$C$E$GT$2ok17h6e76273e18759d42E', symObjAddr: 0x9B8, symBinAddr: 0x8C58, symSize: 0x60 }
  - { offset: 0x29F04, size: 0x8, addend: 0x0, symName: '__ZN4core6result19Result$LT$T$C$E$GT$3map17h057b2ea3aa67d377E', symObjAddr: 0xA18, symBinAddr: 0x8CB8, symSize: 0xA8 }
  - { offset: 0x2A9C1, size: 0x8, addend: 0x0, symName: '__ZN4core6result19Result$LT$T$C$E$GT$3map17h05a122065178cdf6E', symObjAddr: 0xAC0, symBinAddr: 0x8D60, symSize: 0x4C }
  - { offset: 0x2AA6B, size: 0x8, addend: 0x0, symName: '__ZN4core6result19Result$LT$T$C$E$GT$3map17h0c0f911213a79dd0E', symObjAddr: 0xB0C, symBinAddr: 0x8DAC, symSize: 0x90 }
  - { offset: 0x2AB16, size: 0x8, addend: 0x0, symName: '__ZN4core6result19Result$LT$T$C$E$GT$3map17h0c1959df51622741E', symObjAddr: 0xB9C, symBinAddr: 0x8E3C, symSize: 0x38 }
  - { offset: 0x2AC28, size: 0x8, addend: 0x0, symName: '__ZN4core6result19Result$LT$T$C$E$GT$3map17h0e51dcb8510d8db5E', symObjAddr: 0xBD4, symBinAddr: 0x8E74, symSize: 0x4C }
  - { offset: 0x2ACDF, size: 0x8, addend: 0x0, symName: '__ZN4core6result19Result$LT$T$C$E$GT$3map17h1498a86794cad0e0E', symObjAddr: 0xC20, symBinAddr: 0x8EC0, symSize: 0x38 }
  - { offset: 0x2AD53, size: 0x8, addend: 0x0, symName: '__ZN4core6result19Result$LT$T$C$E$GT$3map17h18ba5a90db7a0134E', symObjAddr: 0xC58, symBinAddr: 0x8EF8, symSize: 0x90 }
  - { offset: 0x2AE00, size: 0x8, addend: 0x0, symName: '__ZN4core6result19Result$LT$T$C$E$GT$3map17h1b281fc97119e125E', symObjAddr: 0xCE8, symBinAddr: 0x8F88, symSize: 0x88 }
  - { offset: 0x2AE9A, size: 0x8, addend: 0x0, symName: '__ZN4core6result19Result$LT$T$C$E$GT$3map17h339e99d680939e44E', symObjAddr: 0xD70, symBinAddr: 0x9010, symSize: 0x9C }
  - { offset: 0x2AF45, size: 0x8, addend: 0x0, symName: '__ZN4core6result19Result$LT$T$C$E$GT$3map17h363d92d9bc9da482E', symObjAddr: 0xE0C, symBinAddr: 0x90AC, symSize: 0x90 }
  - { offset: 0x2AFF0, size: 0x8, addend: 0x0, symName: '__ZN4core6result19Result$LT$T$C$E$GT$3map17h374d9e0f0063ddd0E', symObjAddr: 0xE9C, symBinAddr: 0x913C, symSize: 0x38 }
  - { offset: 0x2B07C, size: 0x8, addend: 0x0, symName: '__ZN4core6result19Result$LT$T$C$E$GT$3map17h3bf6db2d7c4d0c00E', symObjAddr: 0xED4, symBinAddr: 0x9174, symSize: 0x94 }
  - { offset: 0x2B127, size: 0x8, addend: 0x0, symName: '__ZN4core6result19Result$LT$T$C$E$GT$3map17h7f344856f5dd7202E', symObjAddr: 0xF68, symBinAddr: 0x9208, symSize: 0x38 }
  - { offset: 0x2B1B3, size: 0x8, addend: 0x0, symName: '__ZN4core6result19Result$LT$T$C$E$GT$3map17h8477fb4ffe6af05aE', symObjAddr: 0xFA0, symBinAddr: 0x9240, symSize: 0x38 }
  - { offset: 0x2B227, size: 0x8, addend: 0x0, symName: '__ZN4core6result19Result$LT$T$C$E$GT$3map17h8c71290190bcd826E', symObjAddr: 0xFD8, symBinAddr: 0x9278, symSize: 0x90 }
  - { offset: 0x2B2BA, size: 0x8, addend: 0x0, symName: '__ZN4core6result19Result$LT$T$C$E$GT$3map17h96ab6ba788064ea1E', symObjAddr: 0x1068, symBinAddr: 0x9308, symSize: 0x38 }
  - { offset: 0x2B346, size: 0x8, addend: 0x0, symName: '__ZN4core6result19Result$LT$T$C$E$GT$3map17h9bac2c7a68513ab0E', symObjAddr: 0x10A0, symBinAddr: 0x9340, symSize: 0x90 }
  - { offset: 0x2B3F1, size: 0x8, addend: 0x0, symName: '__ZN4core6result19Result$LT$T$C$E$GT$3map17hba299ccfb9138762E', symObjAddr: 0x1130, symBinAddr: 0x93D0, symSize: 0x90 }
  - { offset: 0x2B4EE, size: 0x8, addend: 0x0, symName: '__ZN4core6result19Result$LT$T$C$E$GT$3map17hbb2992aa98815c05E', symObjAddr: 0x11C0, symBinAddr: 0x9460, symSize: 0x94 }
  - { offset: 0x2B581, size: 0x8, addend: 0x0, symName: '__ZN4core6result19Result$LT$T$C$E$GT$3map17hda7e2e29a82bce7dE', symObjAddr: 0x1254, symBinAddr: 0x94F4, symSize: 0x90 }
  - { offset: 0x2B62C, size: 0x8, addend: 0x0, symName: '__ZN4core6result19Result$LT$T$C$E$GT$3map17hdc420861e4d52110E', symObjAddr: 0x12E4, symBinAddr: 0x9584, symSize: 0x38 }
  - { offset: 0x2B6AD, size: 0x8, addend: 0x0, symName: '__ZN4core6result19Result$LT$T$C$E$GT$3map17he41cd2ab4709316eE', symObjAddr: 0x131C, symBinAddr: 0x95BC, symSize: 0x88 }
  - { offset: 0x2B740, size: 0x8, addend: 0x0, symName: '__ZN4core6result19Result$LT$T$C$E$GT$3map17hf52443d995744709E', symObjAddr: 0x13A4, symBinAddr: 0x9644, symSize: 0x90 }
  - { offset: 0x2B7EB, size: 0x8, addend: 0x0, symName: '__ZN4core6result19Result$LT$T$C$E$GT$3map17hf7f9d0ccb75fcee2E', symObjAddr: 0x1434, symBinAddr: 0x96D4, symSize: 0xBC }
  - { offset: 0x2B8B1, size: 0x8, addend: 0x0, symName: '__ZN4core6result19Result$LT$T$C$E$GT$6is_err17hb4e9a636794b2e95E', symObjAddr: 0x14F0, symBinAddr: 0x9790, symSize: 0x20 }
  - { offset: 0x2B91C, size: 0x8, addend: 0x0, symName: '__ZN4core6result19Result$LT$T$C$E$GT$7map_err17h032c9e23faa36289E', symObjAddr: 0x1510, symBinAddr: 0x97B0, symSize: 0xCC }
  - { offset: 0x2B9C8, size: 0x8, addend: 0x0, symName: '__ZN4core6result19Result$LT$T$C$E$GT$7map_err17h1244f6a4aa23145bE', symObjAddr: 0x15DC, symBinAddr: 0x987C, symSize: 0x30 }
  - { offset: 0x2BA4B, size: 0x8, addend: 0x0, symName: '__ZN4core6result19Result$LT$T$C$E$GT$7map_err17h2ad9b11695946b71E', symObjAddr: 0x160C, symBinAddr: 0x98AC, symSize: 0xA0 }
  - { offset: 0x2BAF9, size: 0x8, addend: 0x0, symName: '__ZN4core6result19Result$LT$T$C$E$GT$7map_err17h3e94eb9ac23120dcE', symObjAddr: 0x16AC, symBinAddr: 0x994C, symSize: 0x9C }
  - { offset: 0x2BBA4, size: 0x8, addend: 0x0, symName: '__ZN4core6result19Result$LT$T$C$E$GT$7map_err17h48b57e3a2470a9eeE', symObjAddr: 0x1748, symBinAddr: 0x99E8, symSize: 0xB0 }
  - { offset: 0x2BC37, size: 0x8, addend: 0x0, symName: '__ZN4core6result19Result$LT$T$C$E$GT$7map_err17h4a02442c80e09f2fE', symObjAddr: 0x17F8, symBinAddr: 0x9A98, symSize: 0xB0 }
  - { offset: 0x2BCD7, size: 0x8, addend: 0x0, symName: '__ZN4core6result19Result$LT$T$C$E$GT$7map_err17h56713da269c7900cE', symObjAddr: 0x18A8, symBinAddr: 0x9B48, symSize: 0xA0 }
  - { offset: 0x2BD6A, size: 0x8, addend: 0x0, symName: '__ZN4core6result19Result$LT$T$C$E$GT$7map_err17h58e5aef8e0c40badE', symObjAddr: 0x1948, symBinAddr: 0x9BE8, symSize: 0xCC }
  - { offset: 0x2BDFE, size: 0x8, addend: 0x0, symName: '__ZN4core6result19Result$LT$T$C$E$GT$7map_err17h6654a2961199d22eE', symObjAddr: 0x1A14, symBinAddr: 0x9CB4, symSize: 0xB8 }
  - { offset: 0x2C2B4, size: 0x8, addend: 0x0, symName: '__ZN4core6result19Result$LT$T$C$E$GT$7map_err17h79207ead8d560e55E', symObjAddr: 0x1ACC, symBinAddr: 0x9D6C, symSize: 0xC8 }
  - { offset: 0x2C348, size: 0x8, addend: 0x0, symName: '__ZN4core6result19Result$LT$T$C$E$GT$7map_err17h86b21f91e66edfd2E', symObjAddr: 0x1B94, symBinAddr: 0x9E34, symSize: 0xC4 }
  - { offset: 0x2C3DB, size: 0x8, addend: 0x0, symName: '__ZN4core6result19Result$LT$T$C$E$GT$7map_err17h8e4bba570474c889E', symObjAddr: 0x1C58, symBinAddr: 0x9EF8, symSize: 0xC4 }
  - { offset: 0x2C821, size: 0x8, addend: 0x0, symName: '__ZN4core6result19Result$LT$T$C$E$GT$7map_err17h8f6f462130ff4b45E', symObjAddr: 0x1D1C, symBinAddr: 0x9FBC, symSize: 0xC8 }
  - { offset: 0x2C8B4, size: 0x8, addend: 0x0, symName: '__ZN4core6result19Result$LT$T$C$E$GT$7map_err17h8fc3561d768958d9E', symObjAddr: 0x1DE4, symBinAddr: 0xA084, symSize: 0xCC }
  - { offset: 0x2C948, size: 0x8, addend: 0x0, symName: '__ZN4core6result19Result$LT$T$C$E$GT$7map_err17h8fedcb4ab755e4fdE', symObjAddr: 0x1EB0, symBinAddr: 0xA150, symSize: 0x7C }
  - { offset: 0x2C9F2, size: 0x8, addend: 0x0, symName: '__ZN4core6result19Result$LT$T$C$E$GT$7map_err17hc1820f7b3428977eE', symObjAddr: 0x1F2C, symBinAddr: 0xA1CC, symSize: 0x84 }
  - { offset: 0x2CA84, size: 0x8, addend: 0x0, symName: '__ZN4core6result19Result$LT$T$C$E$GT$7map_err17hc998544e3b827ab1E', symObjAddr: 0x1FB0, symBinAddr: 0xA250, symSize: 0x84 }
  - { offset: 0x2CB16, size: 0x8, addend: 0x0, symName: '__ZN4core6result19Result$LT$T$C$E$GT$7map_err17hdcdde5e3f05d5842E', symObjAddr: 0x2034, symBinAddr: 0xA2D4, symSize: 0xC8 }
  - { offset: 0x2CBAA, size: 0x8, addend: 0x0, symName: '__ZN4core6result19Result$LT$T$C$E$GT$7map_err17he0096788450ca918E', symObjAddr: 0x20FC, symBinAddr: 0xA39C, symSize: 0x9C }
  - { offset: 0x2CC9C, size: 0x8, addend: 0x0, symName: '__ZN4core6result19Result$LT$T$C$E$GT$7map_err17he02e1ad632cbc9e2E', symObjAddr: 0x2198, symBinAddr: 0xA438, symSize: 0x48 }
  - { offset: 0x2CD8F, size: 0x8, addend: 0x0, symName: '__ZN4core6result19Result$LT$T$C$E$GT$7map_err17hf8109c51fc66667fE', symObjAddr: 0x21E0, symBinAddr: 0xA480, symSize: 0xDC }
  - { offset: 0x2CE23, size: 0x8, addend: 0x0, symName: '__ZN4core6result19Result$LT$T$C$E$GT$8and_then17h0d461d48a6e7b511E', symObjAddr: 0x22BC, symBinAddr: 0xA55C, symSize: 0x9C }
  - { offset: 0x2CEB6, size: 0x8, addend: 0x0, symName: '__ZN4core6result19Result$LT$T$C$E$GT$8and_then17h142333f82c032e85E', symObjAddr: 0x2358, symBinAddr: 0xA5F8, symSize: 0xB0 }
  - { offset: 0x2CF4A, size: 0x8, addend: 0x0, symName: '__ZN4core6result19Result$LT$T$C$E$GT$8and_then17h2eacabb46364a904E', symObjAddr: 0x2408, symBinAddr: 0xA6A8, symSize: 0x9C }
  - { offset: 0x2CFDD, size: 0x8, addend: 0x0, symName: '__ZN4core6result19Result$LT$T$C$E$GT$8and_then17h4303f4c8a7175f09E', symObjAddr: 0x24A4, symBinAddr: 0xA744, symSize: 0xB0 }
  - { offset: 0x2D071, size: 0x8, addend: 0x0, symName: '__ZN4core6result19Result$LT$T$C$E$GT$8and_then17h52ad311c76e50baeE', symObjAddr: 0x2554, symBinAddr: 0xA7F4, symSize: 0xB0 }
  - { offset: 0x2D105, size: 0x8, addend: 0x0, symName: '__ZN4core6result19Result$LT$T$C$E$GT$8and_then17h546c722d1b239378E', symObjAddr: 0x2604, symBinAddr: 0xA8A4, symSize: 0xB0 }
  - { offset: 0x2D199, size: 0x8, addend: 0x0, symName: '__ZN4core6result19Result$LT$T$C$E$GT$8and_then17hf23ca9823f5e163eE', symObjAddr: 0x26B4, symBinAddr: 0xA954, symSize: 0x88 }
  - { offset: 0x2D22C, size: 0x8, addend: 0x0, symName: '__ZN4core6result19Result$LT$T$C$E$GT$9unwrap_or17h752134770088b3ecE', symObjAddr: 0x273C, symBinAddr: 0xA9DC, symSize: 0x70 }
  - { offset: 0x2D28F, size: 0x8, addend: 0x0, symName: '__ZN4core6result23Result$LT$$RF$T$C$E$GT$6cloned17h8285cc6fec30b43bE', symObjAddr: 0x27AC, symBinAddr: 0xAA4C, symSize: 0x14 }
  - { offset: 0x2D2C5, size: 0x8, addend: 0x0, symName: '__ZN4core6result23Result$LT$$RF$T$C$E$GT$6cloned17h9da80904886c986eE', symObjAddr: 0x27C0, symBinAddr: 0xAA60, symSize: 0x14 }
  - { offset: 0x2D3DF, size: 0x8, addend: 0x0, symName: __ZN4pyo35types14notimplemented16PyNotImplemented3get17h3aa307f39e712b48E, symObjAddr: 0x0, symBinAddr: 0xBBE4, symSize: 0x2C }
  - { offset: 0x2EA34, size: 0x8, addend: 0x0, symName: __ZN4pyo35types14notimplemented16PyNotImplemented3get17h3aa307f39e712b48E, symObjAddr: 0x0, symBinAddr: 0xBBE4, symSize: 0x2C }
  - { offset: 0x2EA7F, size: 0x8, addend: 0x0, symName: '__ZN106_$LT$pyo3..impl_..extract_argument..NoVarargs$u20$as$u20$pyo3..impl_..extract_argument..VarargsHandler$GT$20handle_varargs_tuple17h51cad4cd8a855ceeE', symObjAddr: 0x0, symBinAddr: 0xBC10, symSize: 0xA0 }
  - { offset: 0x302F4, size: 0x8, addend: 0x0, symName: '__ZN106_$LT$pyo3..impl_..extract_argument..NoVarargs$u20$as$u20$pyo3..impl_..extract_argument..VarargsHandler$GT$20handle_varargs_tuple17h51cad4cd8a855ceeE', symObjAddr: 0x0, symBinAddr: 0xBC10, symSize: 0xA0 }
  - { offset: 0x3036D, size: 0x8, addend: 0x0, symName: '__ZN106_$LT$pyo3..impl_..extract_argument..NoVarargs$u20$as$u20$pyo3..impl_..extract_argument..VarargsHandler$GT$23handle_varargs_fastcall17h2f9585c11bc3447dE', symObjAddr: 0xA0, symBinAddr: 0xBCB0, symSize: 0xB4 }
  - { offset: 0x303E1, size: 0x8, addend: 0x0, symName: '__ZN114_$LT$pyo3..impl_..extract_argument..NoVarkeywords$u20$as$u20$pyo3..impl_..extract_argument..VarkeywordsHandler$GT$17handle_varkeyword17hbfc8e6b5db24b9aaE', symObjAddr: 0x154, symBinAddr: 0xBD64, symSize: 0x6C }
  - { offset: 0x30520, size: 0x8, addend: 0x0, symName: __ZN4pyo35impl_16extract_argument24unwrap_required_argument17hce34165eefd43339E, symObjAddr: 0x574, symBinAddr: 0xC184, symSize: 0x64 }
  - { offset: 0x30935, size: 0x8, addend: 0x0, symName: __ZN4pyo35impl_16extract_argument19FunctionDescription36find_keyword_parameter_in_positional17h4adc73f910ba316fE, symObjAddr: 0x1C0, symBinAddr: 0xBDD0, symSize: 0x5C }
  - { offset: 0x30967, size: 0x8, addend: 0x0, symName: __ZN4pyo35impl_16extract_argument19FunctionDescription38find_keyword_parameter_in_keyword_only17hf8766b79cc27df73E, symObjAddr: 0x21C, symBinAddr: 0xBE2C, symSize: 0x5C }
  - { offset: 0x3101B, size: 0x8, addend: 0x0, symName: __ZN4pyo35impl_16extract_argument19FunctionDescription44ensure_no_missing_required_keyword_arguments17h6dc327ef34c4dbd0E, symObjAddr: 0x278, symBinAddr: 0xBE88, symSize: 0x160 }
  - { offset: 0x310E7, size: 0x8, addend: 0x0, symName: __ZN4pyo35impl_16extract_argument19FunctionDescription47ensure_no_missing_required_positional_arguments17h3237c9ff09511efbE, symObjAddr: 0x3D8, symBinAddr: 0xBFE8, symSize: 0x19C }
  - { offset: 0x3127C, size: 0x8, addend: 0x0, symName: '__ZN96_$LT$pyo3..pycell..impl_..BorrowChecker$u20$as$u20$pyo3..pycell..impl_..PyClassBorrowChecker$GT$3new17hd7c45d6e491634e2E', symObjAddr: 0x0, symBinAddr: 0xC1E8, symSize: 0x40 }
  - { offset: 0x3129D, size: 0x8, addend: 0x0, symName: '__ZN96_$LT$pyo3..pycell..impl_..BorrowChecker$u20$as$u20$pyo3..pycell..impl_..PyClassBorrowChecker$GT$3new17hd7c45d6e491634e2E', symObjAddr: 0x0, symBinAddr: 0xC1E8, symSize: 0x40 }
  - { offset: 0x31358, size: 0x8, addend: 0x0, symName: '__ZN110_$LT$core..iter..adapters..enumerate..Enumerate$LT$I$GT$$u20$as$u20$core..iter..traits..iterator..Iterator$GT$4next17h280a95e1fee3be4eE', symObjAddr: 0x0, symBinAddr: 0xC228, symSize: 0xEC }
  - { offset: 0x32817, size: 0x8, addend: 0x0, symName: '__ZN110_$LT$core..iter..adapters..enumerate..Enumerate$LT$I$GT$$u20$as$u20$core..iter..traits..iterator..Iterator$GT$4next17h280a95e1fee3be4eE', symObjAddr: 0x0, symBinAddr: 0xC228, symSize: 0xEC }
  - { offset: 0x328FD, size: 0x8, addend: 0x0, symName: '__ZN110_$LT$core..iter..adapters..enumerate..Enumerate$LT$I$GT$$u20$as$u20$core..iter..traits..iterator..Iterator$GT$4next17h68217cb04325dbe1E', symObjAddr: 0xEC, symBinAddr: 0xC314, symSize: 0xE0 }
  - { offset: 0x32A79, size: 0x8, addend: 0x0, symName: '__ZN63_$LT$I$u20$as$u20$core..iter..traits..collect..IntoIterator$GT$9into_iter17hb6fd6a8795850343E', symObjAddr: 0x1CC, symBinAddr: 0xC3F4, symSize: 0x30 }
  - { offset: 0x32AB1, size: 0x8, addend: 0x0, symName: '__ZN63_$LT$I$u20$as$u20$core..iter..traits..collect..IntoIterator$GT$9into_iter17hda5b40da7fd7ebe9E', symObjAddr: 0x1FC, symBinAddr: 0xC424, symSize: 0x14 }
  - { offset: 0x3329E, size: 0x8, addend: 0x0, symName: __ZN4core4sync6atomic11AtomicUsize3new17h8dd69c15b2156f89E, symObjAddr: 0x0, symBinAddr: 0xC438, symSize: 0x18 }
  - { offset: 0x33313, size: 0x8, addend: 0x0, symName: __ZN4core4sync6atomic11AtomicUsize3new17h8dd69c15b2156f89E, symObjAddr: 0x0, symBinAddr: 0xC438, symSize: 0x18 }
  - { offset: 0x33354, size: 0x8, addend: 0x0, symName: __ZN4core5slice3raw14from_raw_parts17h2420a6bf3ec8221dE, symObjAddr: 0x0, symBinAddr: 0xC450, symSize: 0x58 }
  - { offset: 0x3338E, size: 0x8, addend: 0x0, symName: __ZN4core5slice3raw14from_raw_parts17h2420a6bf3ec8221dE, symObjAddr: 0x0, symBinAddr: 0xC450, symSize: 0x58 }
  - { offset: 0x333D1, size: 0x8, addend: 0x0, symName: __ZN4core5slice3raw14from_raw_parts17hd9b36f8b90812e08E, symObjAddr: 0x58, symBinAddr: 0xC4A8, symSize: 0x58 }
  - { offset: 0x34AF2, size: 0x8, addend: 0x0, symName: '__ZN102_$LT$pyo3..internal..get_slot..Slot$LT$74_i32$GT$$u20$as$u20$pyo3..internal..get_slot..GetSlotImpl$GT$8get_slot17hb5081f5ec97a4a0dE', symObjAddr: 0x0, symBinAddr: 0xC500, symSize: 0x74 }
  - { offset: 0x3539A, size: 0x8, addend: 0x0, symName: '__ZN102_$LT$pyo3..internal..get_slot..Slot$LT$74_i32$GT$$u20$as$u20$pyo3..internal..get_slot..GetSlotImpl$GT$8get_slot17hb5081f5ec97a4a0dE', symObjAddr: 0x0, symBinAddr: 0xC500, symSize: 0x74 }
  - { offset: 0x35F71, size: 0x8, addend: 0x0, symName: '__ZN4pyo311conversions3std6string68_$LT$impl$u20$pyo3..conversion..IntoPyObject$u20$for$u20$$RF$str$GT$13into_pyobject17hc40fc46ed8c6dde9E', symObjAddr: 0x0, symBinAddr: 0xC574, symSize: 0x28 }
  - { offset: 0x370BF, size: 0x8, addend: 0x0, symName: '__ZN4pyo311conversions3std6string68_$LT$impl$u20$pyo3..conversion..IntoPyObject$u20$for$u20$$RF$str$GT$13into_pyobject17hc40fc46ed8c6dde9E', symObjAddr: 0x0, symBinAddr: 0xC574, symSize: 0x28 }
  - { offset: 0x376DB, size: 0x8, addend: 0x0, symName: '__ZN101_$LT$$RF$zcash_uri..Payment$u20$as$u20$pyo3..impl_..extract_argument..PyFunctionArgument$LT$_$GT$$GT$7extract17h8a72538a4b3cb8e1E', symObjAddr: 0x0, symBinAddr: 0xC59C, symSize: 0x2C }
  - { offset: 0x37704, size: 0x8, addend: 0x0, symName: '__ZN72_$LT$zcash_uri..Payment$u20$as$u20$pyo3..impl_..pyclass..PyClassImpl$GT$10items_iter15INTRINSIC_ITEMS17h15b4428b1026db2dE', symObjAddr: 0x7840, symBinAddr: 0x117D48, symSize: 0x0 }
  - { offset: 0x37724, size: 0x8, addend: 0x0, symName: '__ZN72_$LT$zcash_uri..Payment$u20$as$u20$pyo3..impl_..pyclass..PyClassImpl$GT$16lazy_type_object11TYPE_OBJECT17h609b9175f0ce591aE', symObjAddr: 0x7AB8, symBinAddr: 0x1983F8, symSize: 0x0 }
  - { offset: 0x37744, size: 0x8, addend: 0x0, symName: '__ZN72_$LT$zcash_uri..Payment$u20$as$u20$pyo3..impl_..pyclass..PyClassImpl$GT$3doc3DOC17hbcad24a507b4c157E', symObjAddr: 0x7B10, symBinAddr: 0x198450, symSize: 0x0 }
  - { offset: 0x37752, size: 0x8, addend: 0x0, symName: '__ZN72_$LT$zcash_uri..Payment$u20$as$u20$pyo3..impl_..pyclass..PyClassImpl$GT$10items_iter17h8d38d816a18c3261E', symObjAddr: 0x1C4, symBinAddr: 0xC760, symSize: 0x38 }
  - { offset: 0x3778D, size: 0x8, addend: 0x0, symName: '__ZN72_$LT$zcash_uri..Payment$u20$as$u20$pyo3..impl_..pyclass..PyClassImpl$GT$16lazy_type_object17h5dbdbfbca29c560fE', symObjAddr: 0x1FC, symBinAddr: 0xC798, symSize: 0xC }
  - { offset: 0x377AA, size: 0x8, addend: 0x0, symName: '__ZN72_$LT$zcash_uri..Payment$u20$as$u20$pyo3..impl_..pyclass..PyClassImpl$GT$3doc17h3a11a34c4e39638bE', symObjAddr: 0x208, symBinAddr: 0xC7A4, symSize: 0x3C }
  - { offset: 0x37A9D, size: 0x8, addend: 0x0, symName: '__ZN83_$LT$zcash_uri..TransactionRequest$u20$as$u20$pyo3..impl_..pyclass..PyClassImpl$GT$10items_iter15INTRINSIC_ITEMS17h4bb3aaa30a68373cE', symObjAddr: 0x7860, symBinAddr: 0x117D68, symSize: 0x0 }
  - { offset: 0x37ABE, size: 0x8, addend: 0x0, symName: '__ZN83_$LT$zcash_uri..TransactionRequest$u20$as$u20$pyo3..impl_..pyclass..PyClassImpl$GT$16lazy_type_object11TYPE_OBJECT17h67909822b85d0f8dE', symObjAddr: 0x7B30, symBinAddr: 0x198470, symSize: 0x0 }
  - { offset: 0x37ADF, size: 0x8, addend: 0x0, symName: '__ZN83_$LT$zcash_uri..TransactionRequest$u20$as$u20$pyo3..impl_..pyclass..PyClassImpl$GT$3doc3DOC17h3cfe6637ebf14209E', symObjAddr: 0x7B88, symBinAddr: 0x1984C8, symSize: 0x0 }
  - { offset: 0x37AED, size: 0x8, addend: 0x0, symName: '__ZN83_$LT$zcash_uri..TransactionRequest$u20$as$u20$pyo3..impl_..pyclass..PyClassImpl$GT$10items_iter17he56789aeca8aaaa9E', symObjAddr: 0x364, symBinAddr: 0xC900, symSize: 0x38 }
  - { offset: 0x37B2A, size: 0x8, addend: 0x0, symName: '__ZN83_$LT$zcash_uri..TransactionRequest$u20$as$u20$pyo3..impl_..pyclass..PyClassImpl$GT$16lazy_type_object17h770de3fffb79d1d8E', symObjAddr: 0x39C, symBinAddr: 0xC938, symSize: 0xC }
  - { offset: 0x37B48, size: 0x8, addend: 0x0, symName: '__ZN83_$LT$zcash_uri..TransactionRequest$u20$as$u20$pyo3..impl_..pyclass..PyClassImpl$GT$3doc17hbb2e19855a9ef016E', symObjAddr: 0x3A8, symBinAddr: 0xC944, symSize: 0x3C }
  - { offset: 0x37D50, size: 0x8, addend: 0x0, symName: __ZN9zcash_uri10ParseError15type_object_raw11TYPE_OBJECT17h1751f1fd327f40f0E, symObjAddr: 0x7BA8, symBinAddr: 0x1984E8, symSize: 0x0 }
  - { offset: 0x37D76, size: 0x8, addend: 0x0, symName: __ZN9zcash_uri11Zip321Error15type_object_raw11TYPE_OBJECT17hc82963b75a6df030E, symObjAddr: 0x7BB8, symBinAddr: 0x1984F8, symSize: 0x0 }
  - { offset: 0x37D9C, size: 0x8, addend: 0x0, symName: '__ZN9zcash_uri156_$LT$impl$u20$pyo3..impl_..pyclass..PyMethods$LT$zcash_uri..Payment$GT$$u20$for$u20$pyo3..impl_..pyclass..PyClassImplCollector$LT$zcash_uri..Payment$GT$$GT$10py_methods5ITEMS17h9566f17e95065e6cE', symObjAddr: 0x6F10, symBinAddr: 0x1888D8, symSize: 0x0 }
  - { offset: 0x37DAE, size: 0x8, addend: 0x0, symName: '__ZN9zcash_uri156_$LT$impl$u20$pyo3..impl_..pyclass..PyMethods$LT$zcash_uri..Payment$GT$$u20$for$u20$pyo3..impl_..pyclass..PyClassImplCollector$LT$zcash_uri..Payment$GT$$GT$10py_methods5ITEMS10trampoline17h0641829d16c5458bE', symObjAddr: 0xB00, symBinAddr: 0xD09C, symSize: 0x4C }
  - { offset: 0x37DF6, size: 0x8, addend: 0x0, symName: '__ZN9zcash_uri156_$LT$impl$u20$pyo3..impl_..pyclass..PyMethods$LT$zcash_uri..Payment$GT$$u20$for$u20$pyo3..impl_..pyclass..PyClassImplCollector$LT$zcash_uri..Payment$GT$$GT$10py_methods5ITEMS10trampoline17hef7250be304c56f2E', symObjAddr: 0xB4C, symBinAddr: 0xD0E8, symSize: 0x3C }
  - { offset: 0x37E3C, size: 0x8, addend: 0x0, symName: __ZN9zcash_uri16MemoTooLongError15type_object_raw11TYPE_OBJECT17hc9d4bd5b2c9e0a4aE, symObjAddr: 0x7BC8, symBinAddr: 0x198508, symSize: 0x0 }
  - { offset: 0x37E63, size: 0x8, addend: 0x0, symName: '__ZN9zcash_uri178_$LT$impl$u20$pyo3..impl_..pyclass..PyMethods$LT$zcash_uri..TransactionRequest$GT$$u20$for$u20$pyo3..impl_..pyclass..PyClassImplCollector$LT$zcash_uri..TransactionRequest$GT$$GT$10py_methods5ITEMS17hafe48d6122312f47E', symObjAddr: 0x7130, symBinAddr: 0x188AF8, symSize: 0x0 }
  - { offset: 0x37E75, size: 0x8, addend: 0x0, symName: '__ZN9zcash_uri178_$LT$impl$u20$pyo3..impl_..pyclass..PyMethods$LT$zcash_uri..TransactionRequest$GT$$u20$for$u20$pyo3..impl_..pyclass..PyClassImplCollector$LT$zcash_uri..TransactionRequest$GT$$GT$10py_methods5ITEMS10trampoline17h097b1f3f6ac42a03E', symObjAddr: 0x11F4, symBinAddr: 0xD790, symSize: 0x50 }
  - { offset: 0x37ED0, size: 0x8, addend: 0x0, symName: '__ZN9zcash_uri178_$LT$impl$u20$pyo3..impl_..pyclass..PyMethods$LT$zcash_uri..TransactionRequest$GT$$u20$for$u20$pyo3..impl_..pyclass..PyClassImplCollector$LT$zcash_uri..TransactionRequest$GT$$GT$10py_methods5ITEMS10trampoline17h0fef04676c466a22E', symObjAddr: 0x1244, symBinAddr: 0xD7E0, symSize: 0x44 }
  - { offset: 0x37F0D, size: 0x8, addend: 0x0, symName: '__ZN9zcash_uri178_$LT$impl$u20$pyo3..impl_..pyclass..PyMethods$LT$zcash_uri..TransactionRequest$GT$$u20$for$u20$pyo3..impl_..pyclass..PyClassImplCollector$LT$zcash_uri..TransactionRequest$GT$$GT$10py_methods5ITEMS10trampoline17h2cf55e8bba65d4bbE', symObjAddr: 0x1288, symBinAddr: 0xD824, symSize: 0x4C }
  - { offset: 0x37F59, size: 0x8, addend: 0x0, symName: '__ZN9zcash_uri178_$LT$impl$u20$pyo3..impl_..pyclass..PyMethods$LT$zcash_uri..TransactionRequest$GT$$u20$for$u20$pyo3..impl_..pyclass..PyClassImplCollector$LT$zcash_uri..TransactionRequest$GT$$GT$10py_methods5ITEMS10trampoline17h36a47f360370c1e0E', symObjAddr: 0x12D4, symBinAddr: 0xD870, symSize: 0x44 }
  - { offset: 0x37F96, size: 0x8, addend: 0x0, symName: '__ZN9zcash_uri178_$LT$impl$u20$pyo3..impl_..pyclass..PyMethods$LT$zcash_uri..TransactionRequest$GT$$u20$for$u20$pyo3..impl_..pyclass..PyClassImplCollector$LT$zcash_uri..TransactionRequest$GT$$GT$10py_methods5ITEMS10trampoline17h3dc5b8dfedc91f20E', symObjAddr: 0x1318, symBinAddr: 0xD8B4, symSize: 0x3C }
  - { offset: 0x37FC4, size: 0x8, addend: 0x0, symName: '__ZN9zcash_uri178_$LT$impl$u20$pyo3..impl_..pyclass..PyMethods$LT$zcash_uri..TransactionRequest$GT$$u20$for$u20$pyo3..impl_..pyclass..PyClassImplCollector$LT$zcash_uri..TransactionRequest$GT$$GT$10py_methods5ITEMS10trampoline17hc5ea91e75f60a712E', symObjAddr: 0x1354, symBinAddr: 0xD8F0, symSize: 0x44 }
  - { offset: 0x38001, size: 0x8, addend: 0x0, symName: '__ZN9zcash_uri178_$LT$impl$u20$pyo3..impl_..pyclass..PyMethods$LT$zcash_uri..TransactionRequest$GT$$u20$for$u20$pyo3..impl_..pyclass..PyClassImplCollector$LT$zcash_uri..TransactionRequest$GT$$GT$10py_methods5ITEMS10trampoline17hdeacc7f820474920E', symObjAddr: 0x1398, symBinAddr: 0xD934, symSize: 0x44 }
  - { offset: 0x3803E, size: 0x8, addend: 0x0, symName: '__ZN9zcash_uri178_$LT$impl$u20$pyo3..impl_..pyclass..PyMethods$LT$zcash_uri..TransactionRequest$GT$$u20$for$u20$pyo3..impl_..pyclass..PyClassImplCollector$LT$zcash_uri..TransactionRequest$GT$$GT$10py_methods5ITEMS10trampoline17hfad643462a94c17aE', symObjAddr: 0x13DC, symBinAddr: 0xD978, symSize: 0x3C }
  - { offset: 0x38086, size: 0x8, addend: 0x0, symName: __ZN9zcash_uri18InvalidBase64Error15type_object_raw11TYPE_OBJECT17ha85d1647137e9ffaE, symObjAddr: 0x7BD8, symBinAddr: 0x198518, symSize: 0x0 }
  - { offset: 0x380AC, size: 0x8, addend: 0x0, symName: __ZN9zcash_uri19InvalidAddressError15type_object_raw11TYPE_OBJECT17hf76f24f5c81e6d85E, symObjAddr: 0x7BE8, symBinAddr: 0x198528, symSize: 0x0 }
  - { offset: 0x380D2, size: 0x8, addend: 0x0, symName: __ZN9zcash_uri19InvalidPaymentError15type_object_raw11TYPE_OBJECT17h6f65a75a8dba2efdE, symObjAddr: 0x7BF8, symBinAddr: 0x198538, symSize: 0x0 }
  - { offset: 0x380F8, size: 0x8, addend: 0x0, symName: __ZN9zcash_uri20TooManyPaymentsError15type_object_raw11TYPE_OBJECT17hb6613634273ce7bfE, symObjAddr: 0x7C08, symBinAddr: 0x198548, symSize: 0x0 }
  - { offset: 0x3811E, size: 0x8, addend: 0x0, symName: __ZN9zcash_uri20TransparentMemoError15type_object_raw11TYPE_OBJECT17hbc75f665a8e416d5E, symObjAddr: 0x7C18, symBinAddr: 0x198558, symSize: 0x0 }
  - { offset: 0x38144, size: 0x8, addend: 0x0, symName: __ZN9zcash_uri21RecipientMissingError15type_object_raw11TYPE_OBJECT17hb99a5c0a102cdeb7E, symObjAddr: 0x7C28, symBinAddr: 0x198568, symSize: 0x0 }
  - { offset: 0x38158, size: 0x8, addend: 0x0, symName: '__ZN101_$LT$$RF$zcash_uri..Payment$u20$as$u20$pyo3..impl_..extract_argument..PyFunctionArgument$LT$_$GT$$GT$7extract17h8a72538a4b3cb8e1E', symObjAddr: 0x0, symBinAddr: 0xC59C, symSize: 0x2C }
  - { offset: 0x38198, size: 0x8, addend: 0x0, symName: '__ZN61_$LT$zcash_uri..PaymentData$u20$as$u20$core..clone..Clone$GT$5clone17hd7a3c3c0387aacfbE', symObjAddr: 0x2C, symBinAddr: 0xC5C8, symSize: 0x13C }
  - { offset: 0x381CA, size: 0x8, addend: 0x0, symName: '__ZN68_$LT$zcash_uri..Payment$u20$as$u20$pyo3..type_object..PyTypeInfo$GT$15type_object_raw17h02cac07eb5f90c2eE', symObjAddr: 0x168, symBinAddr: 0xC704, symSize: 0x24 }
  - { offset: 0x38207, size: 0x8, addend: 0x0, symName: '__ZN69_$LT$zcash_uri..Payment$u20$as$u20$pyo3..conversion..IntoPyObject$GT$13into_pyobject17h9241a3272b24042cE', symObjAddr: 0x18C, symBinAddr: 0xC728, symSize: 0x1C }
  - { offset: 0x38253, size: 0x8, addend: 0x0, symName: '__ZN71_$LT$zcash_uri..ParseError$u20$as$u20$pyo3..type_object..PyTypeInfo$GT$15type_object_raw17h660f6c544efa7e64E', symObjAddr: 0x1A8, symBinAddr: 0xC744, symSize: 0x1C }
  - { offset: 0x38290, size: 0x8, addend: 0x0, symName: '__ZN72_$LT$zcash_uri..Zip321Error$u20$as$u20$pyo3..type_object..PyTypeInfo$GT$15type_object_raw17hb01ecd0f7f250922E', symObjAddr: 0x244, symBinAddr: 0xC7E0, symSize: 0x1C }
  - { offset: 0x382CD, size: 0x8, addend: 0x0, symName: '__ZN77_$LT$zcash_uri..MemoTooLongError$u20$as$u20$pyo3..type_object..PyTypeInfo$GT$15type_object_raw17h671a0cf2153eb35bE', symObjAddr: 0x260, symBinAddr: 0xC7FC, symSize: 0x1C }
  - { offset: 0x3830A, size: 0x8, addend: 0x0, symName: '__ZN79_$LT$zcash_uri..InvalidBase64Error$u20$as$u20$pyo3..type_object..PyTypeInfo$GT$15type_object_raw17h299a61784075c13eE', symObjAddr: 0x27C, symBinAddr: 0xC818, symSize: 0x1C }
  - { offset: 0x38347, size: 0x8, addend: 0x0, symName: '__ZN79_$LT$zcash_uri..TransactionRequest$u20$as$u20$pyo3..type_object..PyTypeInfo$GT$15type_object_raw17h2f0fe3f90b03a226E', symObjAddr: 0x298, symBinAddr: 0xC834, symSize: 0x24 }
  - { offset: 0x38387, size: 0x8, addend: 0x0, symName: '__ZN80_$LT$zcash_uri..InvalidAddressError$u20$as$u20$pyo3..type_object..PyTypeInfo$GT$15type_object_raw17h42526dc16bbae515E', symObjAddr: 0x2BC, symBinAddr: 0xC858, symSize: 0x1C }
  - { offset: 0x383C4, size: 0x8, addend: 0x0, symName: '__ZN80_$LT$zcash_uri..InvalidPaymentError$u20$as$u20$pyo3..type_object..PyTypeInfo$GT$15type_object_raw17hb3e1295666ff33beE', symObjAddr: 0x2D8, symBinAddr: 0xC874, symSize: 0x1C }
  - { offset: 0x38401, size: 0x8, addend: 0x0, symName: '__ZN80_$LT$zcash_uri..TransactionRequest$u20$as$u20$pyo3..conversion..IntoPyObject$GT$13into_pyobject17haa4949cf59bb5fa9E', symObjAddr: 0x2F4, symBinAddr: 0xC890, symSize: 0x1C }
  - { offset: 0x38451, size: 0x8, addend: 0x0, symName: '__ZN81_$LT$zcash_uri..TooManyPaymentsError$u20$as$u20$pyo3..type_object..PyTypeInfo$GT$15type_object_raw17h931f10b482016f71E', symObjAddr: 0x310, symBinAddr: 0xC8AC, symSize: 0x1C }
  - { offset: 0x3848E, size: 0x8, addend: 0x0, symName: '__ZN81_$LT$zcash_uri..TransparentMemoError$u20$as$u20$pyo3..type_object..PyTypeInfo$GT$15type_object_raw17h73ab2b41cd48acf0E', symObjAddr: 0x32C, symBinAddr: 0xC8C8, symSize: 0x1C }
  - { offset: 0x384CB, size: 0x8, addend: 0x0, symName: '__ZN82_$LT$zcash_uri..RecipientMissingError$u20$as$u20$pyo3..type_object..PyTypeInfo$GT$15type_object_raw17h73a3fc622f7293c8E', symObjAddr: 0x348, symBinAddr: 0xC8E4, symSize: 0x1C }
  - { offset: 0x38557, size: 0x8, addend: 0x0, symName: __ZN9zcash_uri14memo_to_base6417h380efce41f928089E, symObjAddr: 0xA00, symBinAddr: 0xCF9C, symSize: 0x100 }
  - { offset: 0x38602, size: 0x8, addend: 0x0, symName: __ZN9zcash_uri16memo_from_base6417h2feee878402a8949E, symObjAddr: 0xBFC, symBinAddr: 0xD198, symSize: 0x220 }
  - { offset: 0x38768, size: 0x8, addend: 0x0, symName: __ZN9zcash_uri16zip321_err_to_py17hf4be833afcfb7f34E, symObjAddr: 0xE1C, symBinAddr: 0xD3B8, symSize: 0x3D8 }
  - { offset: 0x38AE8, size: 0x8, addend: 0x0, symName: __ZN9zcash_uri27__pyfunction_memo_to_base6417h6e7ef2253388ab05E, symObjAddr: 0x32E0, symBinAddr: 0xF87C, symSize: 0x2E4 }
  - { offset: 0x38C6D, size: 0x8, addend: 0x0, symName: __ZN9zcash_uri29__pyfunction_memo_from_base6417hb84cf8d351130a2bE, symObjAddr: 0x35C4, symBinAddr: 0xFB60, symSize: 0x2E4 }
  - { offset: 0x38DFC, size: 0x8, addend: 0x0, symName: '__ZN9zcash_uri47_$LT$impl$u20$zcash_uri..zcash_uri..MakeDef$GT$8make_def15__pyo3_pymodule17h1038a04a59a8a3aaE', symObjAddr: 0x38A8, symBinAddr: 0xFE44, symSize: 0x38 }
  - { offset: 0x38E36, size: 0x8, addend: 0x0, symName: '__ZN9zcash_uri52_$LT$impl$u20$zcash_uri..memo_to_base64..MakeDef$GT$9_PYO3_DEF10trampoline17hc8dcac77d77a30dfE', symObjAddr: 0x38E0, symBinAddr: 0xFE7C, symSize: 0x50 }
  - { offset: 0x38E9D, size: 0x8, addend: 0x0, symName: '__ZN9zcash_uri54_$LT$impl$u20$zcash_uri..memo_from_base64..MakeDef$GT$9_PYO3_DEF10trampoline17h03e197029eec9e14E', symObjAddr: 0x3930, symBinAddr: 0xFECC, symSize: 0x50 }
  - { offset: 0x38EFA, size: 0x8, addend: 0x0, symName: __ZN9zcash_uri9zcash_uri17h4bfc1d39118a6450E, symObjAddr: 0x5738, symBinAddr: 0x11CD4, symSize: 0x75C }
  - { offset: 0x3DE32, size: 0x8, addend: 0x0, symName: __ZN9zcash_uri10ParseError15type_object_raw17h1e7989935aa16ff3E, symObjAddr: 0x3E4, symBinAddr: 0xC980, symSize: 0x2C }
  - { offset: 0x3E39B, size: 0x8, addend: 0x0, symName: __ZN9zcash_uri11PaymentData15to_rust_payment17hee3d6e6de2636baeE, symObjAddr: 0x410, symBinAddr: 0xC9AC, symSize: 0x410 }
  - { offset: 0x3E488, size: 0x8, addend: 0x0, symName: __ZN9zcash_uri11PaymentData17from_rust_payment17h86112ed1ab68ce72E, symObjAddr: 0x820, symBinAddr: 0xCDBC, symSize: 0x1B4 }
  - { offset: 0x3E4C0, size: 0x8, addend: 0x0, symName: __ZN9zcash_uri11Zip321Error15type_object_raw17hd20a9984bc7cb7b4E, symObjAddr: 0x9D4, symBinAddr: 0xCF70, symSize: 0x2C }
  - { offset: 0x3E4ED, size: 0x8, addend: 0x0, symName: '__ZN9zcash_uri156_$LT$impl$u20$pyo3..impl_..pyclass..PyMethods$LT$zcash_uri..Payment$GT$$u20$for$u20$pyo3..impl_..pyclass..PyClassImplCollector$LT$zcash_uri..Payment$GT$$GT$10py_methods5ITEMS36_$LT$impl$u20$zcash_uri..Payment$GT$24__pymethod___richcmp____17h3aa87e67f03a596cE', symObjAddr: 0xB88, symBinAddr: 0xD124, symSize: 0x48 }
  - { offset: 0x3E52E, size: 0x8, addend: 0x0, symName: __ZN9zcash_uri16MemoTooLongError15type_object_raw17h1229de16674e53c4E, symObjAddr: 0xBD0, symBinAddr: 0xD16C, symSize: 0x2C }
  - { offset: 0x3E579, size: 0x8, addend: 0x0, symName: __ZN9zcash_uri18InvalidBase64Error15type_object_raw17h7da04025bc5784bcE, symObjAddr: 0x1418, symBinAddr: 0xD9B4, symSize: 0x2C }
  - { offset: 0x3E5B3, size: 0x8, addend: 0x0, symName: __ZN9zcash_uri18TransactionRequest14total_zatoshis17ha91e2555c43170cdE, symObjAddr: 0x1444, symBinAddr: 0xD9E0, symSize: 0x228 }
  - { offset: 0x3E6AB, size: 0x8, addend: 0x0, symName: __ZN9zcash_uri18TransactionRequest19__pymethod_to_uri__17habf2c5bf3b4e2af2E, symObjAddr: 0x166C, symBinAddr: 0xDC08, symSize: 0x288 }
  - { offset: 0x3E79A, size: 0x8, addend: 0x0, symName: __ZN9zcash_uri18TransactionRequest20__pymethod___len____17h8bb902368427e719E, symObjAddr: 0x18F4, symBinAddr: 0xDE90, symSize: 0x114 }
  - { offset: 0x3E858, size: 0x8, addend: 0x0, symName: __ZN9zcash_uri18TransactionRequest20__pymethod___new____17h62240be60aff55ccE, symObjAddr: 0x1A08, symBinAddr: 0xDFA4, symSize: 0x2A0 }
  - { offset: 0x3E9D1, size: 0x8, addend: 0x0, symName: __ZN9zcash_uri18TransactionRequest21__pymethod___repr____17h4ab9a58ca610281dE, symObjAddr: 0x1CA8, symBinAddr: 0xE244, symSize: 0x160 }
  - { offset: 0x3EA8E, size: 0x8, addend: 0x0, symName: __ZN9zcash_uri18TransactionRequest21__pymethod_from_uri__17ha6523c7f5d64137dE, symObjAddr: 0x1E08, symBinAddr: 0xE3A4, symSize: 0x2E4 }
  - { offset: 0x3EC08, size: 0x8, addend: 0x0, symName: __ZN9zcash_uri18TransactionRequest21__pymethod_payments__17h561ebf1a60151b4aE, symObjAddr: 0x20EC, symBinAddr: 0xE688, symSize: 0x288 }
  - { offset: 0x3ECF7, size: 0x8, addend: 0x0, symName: __ZN9zcash_uri18TransactionRequest22__pymethod_total_zec__17h466689640412edc6E, symObjAddr: 0x2374, symBinAddr: 0xE910, symSize: 0x288 }
  - { offset: 0x3EDE6, size: 0x8, addend: 0x0, symName: __ZN9zcash_uri18TransactionRequest27__pymethod_total_zatoshis__17h5a714cd8b0efc7a4E, symObjAddr: 0x25FC, symBinAddr: 0xEB98, symSize: 0x288 }
  - { offset: 0x3EED5, size: 0x8, addend: 0x0, symName: __ZN9zcash_uri18TransactionRequest3new17haa8363a5cd548b7eE, symObjAddr: 0x2884, symBinAddr: 0xEE20, symSize: 0x4EC }
  - { offset: 0x3F006, size: 0x8, addend: 0x0, symName: __ZN9zcash_uri18TransactionRequest6to_uri17hf71c530881475acaE, symObjAddr: 0x2D70, symBinAddr: 0xF30C, symSize: 0x214 }
  - { offset: 0x3F0CA, size: 0x8, addend: 0x0, symName: __ZN9zcash_uri18TransactionRequest7__len__17he22e1ddef60dfc7bE, symObjAddr: 0x2F84, symBinAddr: 0xF520, symSize: 0x24 }
  - { offset: 0x3F0ED, size: 0x8, addend: 0x0, symName: __ZN9zcash_uri18TransactionRequest8__repr__17h9b5fcf69e243c2c9E, symObjAddr: 0x2FA8, symBinAddr: 0xF544, symSize: 0x7C }
  - { offset: 0x3F16A, size: 0x8, addend: 0x0, symName: __ZN9zcash_uri18TransactionRequest8from_uri17h3b47bc16bb4c7f1cE, symObjAddr: 0x3024, symBinAddr: 0xF5C0, symSize: 0x158 }
  - { offset: 0x3F25F, size: 0x8, addend: 0x0, symName: __ZN9zcash_uri18TransactionRequest8payments17ha583943298066940E, symObjAddr: 0x317C, symBinAddr: 0xF718, symSize: 0x4C }
  - { offset: 0x3F289, size: 0x8, addend: 0x0, symName: __ZN9zcash_uri18TransactionRequest9total_zec17hff2044564a764a69E, symObjAddr: 0x31C8, symBinAddr: 0xF764, symSize: 0x3C }
  - { offset: 0x3F2AC, size: 0x8, addend: 0x0, symName: __ZN9zcash_uri19InvalidAddressError15type_object_raw17h34bd8b62e0f03256E, symObjAddr: 0x3204, symBinAddr: 0xF7A0, symSize: 0x2C }
  - { offset: 0x3F2D9, size: 0x8, addend: 0x0, symName: __ZN9zcash_uri19InvalidPaymentError15type_object_raw17h00a82155899e922bE, symObjAddr: 0x3230, symBinAddr: 0xF7CC, symSize: 0x2C }
  - { offset: 0x3F306, size: 0x8, addend: 0x0, symName: __ZN9zcash_uri20TooManyPaymentsError15type_object_raw17hf70b8626f2b0cc58E, symObjAddr: 0x325C, symBinAddr: 0xF7F8, symSize: 0x2C }
  - { offset: 0x3F333, size: 0x8, addend: 0x0, symName: __ZN9zcash_uri20TransparentMemoError15type_object_raw17h35a04e5cfdfdc24eE, symObjAddr: 0x3288, symBinAddr: 0xF824, symSize: 0x2C }
  - { offset: 0x3F360, size: 0x8, addend: 0x0, symName: __ZN9zcash_uri21RecipientMissingError15type_object_raw17h48acbadbd41d73feE, symObjAddr: 0x32B4, symBinAddr: 0xF850, symSize: 0x2C }
  - { offset: 0x3F39A, size: 0x8, addend: 0x0, symName: __ZN9zcash_uri7Payment10amount_zec17h8469863286af974eE, symObjAddr: 0x3980, symBinAddr: 0xFF1C, symSize: 0x30 }
  - { offset: 0x3F3BC, size: 0x8, addend: 0x0, symName: __ZN9zcash_uri7Payment15amount_zatoshis17he0dcbbd663c9b215E, symObjAddr: 0x39B0, symBinAddr: 0xFF4C, symSize: 0x20 }
  - { offset: 0x3F3DE, size: 0x8, addend: 0x0, symName: __ZN9zcash_uri7Payment17recipient_address17h48e7fb4ca749923dE, symObjAddr: 0x39D0, symBinAddr: 0xFF6C, symSize: 0x24 }
  - { offset: 0x3F400, size: 0x8, addend: 0x0, symName: __ZN9zcash_uri7Payment19__pymethod___eq____17hf71839ff234d3541E, symObjAddr: 0x39F4, symBinAddr: 0xFF90, symSize: 0x204 }
  - { offset: 0x3F4AB, size: 0x8, addend: 0x0, symName: __ZN9zcash_uri7Payment20__pymethod___new____17he993102092149afbE, symObjAddr: 0x3BF8, symBinAddr: 0x10194, symSize: 0x7C4 }
  - { offset: 0x3F73D, size: 0x8, addend: 0x0, symName: __ZN9zcash_uri7Payment21__pymethod___repr____17hdb38e456f578d084E, symObjAddr: 0x43BC, symBinAddr: 0x10958, symSize: 0x160 }
  - { offset: 0x3F7F2, size: 0x8, addend: 0x0, symName: __ZN9zcash_uri7Payment21__pymethod_get_memo__17h0cb4c04d9bb8908dE, symObjAddr: 0x451C, symBinAddr: 0x10AB8, symSize: 0x124 }
  - { offset: 0x3F87D, size: 0x8, addend: 0x0, symName: __ZN9zcash_uri7Payment22__pymethod_get_label__17hd8478c39ea7937faE, symObjAddr: 0x4640, symBinAddr: 0x10BDC, symSize: 0x124 }
  - { offset: 0x3F908, size: 0x8, addend: 0x0, symName: __ZN9zcash_uri7Payment24__pymethod_get_message__17hbfc79b367f210cfcE, symObjAddr: 0x4764, symBinAddr: 0x10D00, symSize: 0x124 }
  - { offset: 0x3F993, size: 0x8, addend: 0x0, symName: __ZN9zcash_uri7Payment26__pymethod_get_memo_text__17h1e4c7669c8cd5507E, symObjAddr: 0x4888, symBinAddr: 0x10E24, symSize: 0x11C }
  - { offset: 0x3FA1E, size: 0x8, addend: 0x0, symName: __ZN9zcash_uri7Payment27__pymethod_get_amount_zec__17hd2d0994b9b314262E, symObjAddr: 0x49A4, symBinAddr: 0x10F40, symSize: 0x124 }
  - { offset: 0x3FAA9, size: 0x8, addend: 0x0, symName: __ZN9zcash_uri7Payment32__pymethod_get_amount_zatoshis__17hfccf183aee7bac7dE, symObjAddr: 0x4AC8, symBinAddr: 0x11064, symSize: 0x124 }
  - { offset: 0x3FB34, size: 0x8, addend: 0x0, symName: __ZN9zcash_uri7Payment34__pymethod_get_recipient_address__17hb842de603daab304E, symObjAddr: 0x4BEC, symBinAddr: 0x11188, symSize: 0x124 }
  - { offset: 0x3FBBF, size: 0x8, addend: 0x0, symName: __ZN9zcash_uri7Payment3new17h60091ec9deb72fd2E, symObjAddr: 0x4D10, symBinAddr: 0x112AC, symSize: 0x760 }
  - { offset: 0x3FD3E, size: 0x8, addend: 0x0, symName: __ZN9zcash_uri7Payment4memo17h929f40942722b4f7E, symObjAddr: 0x5470, symBinAddr: 0x11A0C, symSize: 0x24 }
  - { offset: 0x3FD60, size: 0x8, addend: 0x0, symName: __ZN9zcash_uri7Payment5label17hded2cad0036a9eb6E, symObjAddr: 0x5494, symBinAddr: 0x11A30, symSize: 0x24 }
  - { offset: 0x3FD89, size: 0x8, addend: 0x0, symName: __ZN9zcash_uri7Payment6__eq__17h0ba2a7af6e47dc2bE, symObjAddr: 0x54B8, symBinAddr: 0x11A54, symSize: 0xB4 }
  - { offset: 0x3FDBB, size: 0x8, addend: 0x0, symName: __ZN9zcash_uri7Payment7message17hed7b5003c0c42432E, symObjAddr: 0x556C, symBinAddr: 0x11B08, symSize: 0x24 }
  - { offset: 0x3FDDD, size: 0x8, addend: 0x0, symName: __ZN9zcash_uri7Payment8__repr__17hd484c8a7e1fb281bE, symObjAddr: 0x5590, symBinAddr: 0x11B2C, symSize: 0x178 }
  - { offset: 0x3FEBF, size: 0x8, addend: 0x0, symName: __ZN9zcash_uri7Payment9memo_text17h0a45897f917bfc1eE, symObjAddr: 0x5708, symBinAddr: 0x11CA4, symSize: 0x30 }
  - { offset: 0x40357, size: 0x8, addend: 0x0, symName: __ZN4pyo35impl_9pymethods11tp_new_impl17h997465afb66b09deE, symObjAddr: 0x0, symBinAddr: 0x12430, symSize: 0x3C }
  - { offset: 0x40391, size: 0x8, addend: 0x0, symName: '__ZN50_$LT$T$u20$as$u20$core..convert..Into$LT$U$GT$$GT$4into17h79ed2cf530ec975aE', symObjAddr: 0x78, symBinAddr: 0x124A8, symSize: 0x24 }
  - { offset: 0x41BCB, size: 0x8, addend: 0x0, symName: __ZN4pyo35impl_9pymethods11tp_new_impl17h997465afb66b09deE, symObjAddr: 0x0, symBinAddr: 0x12430, symSize: 0x3C }
  - { offset: 0x41C2D, size: 0x8, addend: 0x0, symName: __ZN4pyo35impl_9pymethods11tp_new_impl17hd820ececa0de98c8E, symObjAddr: 0x3C, symBinAddr: 0x1246C, symSize: 0x3C }
  - { offset: 0x42AFB, size: 0x8, addend: 0x0, symName: '__ZN5alloc3vec16Vec$LT$T$C$A$GT$7set_len18precondition_check17hab183687b7334724E', symObjAddr: 0x0, symBinAddr: 0x124CC, symSize: 0xAC }
  - { offset: 0x42FAD, size: 0x8, addend: 0x0, symName: '__ZN5alloc3vec16Vec$LT$T$C$A$GT$7set_len18precondition_check17hab183687b7334724E', symObjAddr: 0x0, symBinAddr: 0x124CC, symSize: 0xAC }
  - { offset: 0x43037, size: 0x8, addend: 0x0, symName: '__ZN106_$LT$core..iter..adapters..GenericShunt$LT$I$C$R$GT$$u20$as$u20$core..iter..traits..iterator..Iterator$GT$4next17hf82a40fe7ec9c5f5E', symObjAddr: 0x0, symBinAddr: 0x12578, symSize: 0xB0 }
  - { offset: 0x43128, size: 0x8, addend: 0x0, symName: __ZN4core4iter6traits8iterator8Iterator7collect17h7a85b295c91ccd2aE, symObjAddr: 0x424, symBinAddr: 0x1299C, symSize: 0x74 }
  - { offset: 0x431E9, size: 0x8, addend: 0x0, symName: '__ZN63_$LT$I$u20$as$u20$core..iter..traits..collect..IntoIterator$GT$9into_iter17ha85b5e7414773e3cE', symObjAddr: 0x628, symBinAddr: 0x12BA0, symSize: 0x30 }
  - { offset: 0x4329A, size: 0x8, addend: 0x0, symName: '__ZN106_$LT$core..iter..adapters..GenericShunt$LT$I$C$R$GT$$u20$as$u20$core..iter..traits..iterator..Iterator$GT$4next17hf82a40fe7ec9c5f5E', symObjAddr: 0x0, symBinAddr: 0x12578, symSize: 0xB0 }
  - { offset: 0x4332D, size: 0x8, addend: 0x0, symName: '__ZN106_$LT$core..iter..adapters..GenericShunt$LT$I$C$R$GT$$u20$as$u20$core..iter..traits..iterator..Iterator$GT$8try_fold17h1c78a2d8359d95d3E', symObjAddr: 0xB0, symBinAddr: 0x12628, symSize: 0xC0 }
  - { offset: 0x433F9, size: 0x8, addend: 0x0, symName: '__ZN106_$LT$core..iter..adapters..GenericShunt$LT$I$C$R$GT$$u20$as$u20$core..iter..traits..iterator..Iterator$GT$8try_fold28_$u7b$$u7b$closure$u7d$$u7d$17h198006a97be939c0E', symObjAddr: 0x170, symBinAddr: 0x126E8, symSize: 0x218 }
  - { offset: 0x434F5, size: 0x8, addend: 0x0, symName: '__ZN106_$LT$core..iter..adapters..GenericShunt$LT$I$C$R$GT$$u20$as$u20$core..iter..traits..iterator..Iterator$GT$9size_hint17h7e762831a5e83435E', symObjAddr: 0x388, symBinAddr: 0x12900, symSize: 0x9C }
  - { offset: 0x4356E, size: 0x8, addend: 0x0, symName: __ZN4core4iter8adapters11try_process17ha090a8bf5d3a111cE, symObjAddr: 0x498, symBinAddr: 0x12A10, symSize: 0x190 }
  - { offset: 0x468A9, size: 0x8, addend: 0x0, symName: __ZN4core4iter6traits8iterator8Iterator6copied17h8f8035c520cbafa9E, symObjAddr: 0x0, symBinAddr: 0x12BD0, symSize: 0x1C }
  - { offset: 0x468ED, size: 0x8, addend: 0x0, symName: __ZN4core4iter6traits8iterator8Iterator6copied17h8f8035c520cbafa9E, symObjAddr: 0x0, symBinAddr: 0x12BD0, symSize: 0x1C }
  - { offset: 0x476A2, size: 0x8, addend: 0x0, symName: '__ZN91_$LT$core..slice..iter..Iter$LT$T$GT$$u20$as$u20$core..iter..traits..iterator..Iterator$GT$4next17h2683d7d7599bdd1dE', symObjAddr: 0x6C, symBinAddr: 0x12C3C, symSize: 0xA8 }
  - { offset: 0x477DC, size: 0x8, addend: 0x0, symName: '__ZN91_$LT$core..slice..iter..Iter$LT$T$GT$$u20$as$u20$core..iter..traits..iterator..Iterator$GT$4next17hce2454a44a7963b3E', symObjAddr: 0x114, symBinAddr: 0x12CE4, symSize: 0xA8 }
  - { offset: 0x47916, size: 0x8, addend: 0x0, symName: '__ZN91_$LT$core..slice..iter..Iter$LT$T$GT$$u20$as$u20$core..iter..traits..iterator..Iterator$GT$8position17h1f6633c3c52f4ad5E', symObjAddr: 0x1BC, symBinAddr: 0x12D8C, symSize: 0x188 }
  - { offset: 0x479D4, size: 0x8, addend: 0x0, symName: '__ZN91_$LT$core..slice..iter..Iter$LT$T$GT$$u20$as$u20$core..iter..traits..iterator..Iterator$GT$8position17hdd1a4eb2a17a8df0E', symObjAddr: 0x344, symBinAddr: 0x12F14, symSize: 0x188 }
  - { offset: 0x47A92, size: 0x8, addend: 0x0, symName: '__ZN91_$LT$core..slice..iter..Iter$LT$T$GT$$u20$as$u20$core..iter..traits..iterator..Iterator$GT$9rposition17h8073b19fdf8cb1d6E', symObjAddr: 0x4CC, symBinAddr: 0x1309C, symSize: 0x160 }
  - { offset: 0x47B57, size: 0x8, addend: 0x0, symName: '__ZN91_$LT$core..slice..iter..Iter$LT$T$GT$$u20$as$u20$core..iter..traits..iterator..Iterator$GT$9rposition17h988fe3f8ae1bff63E', symObjAddr: 0x62C, symBinAddr: 0x131FC, symSize: 0x160 }
  - { offset: 0x48BAE, size: 0x8, addend: 0x0, symName: '__ZN4core5slice4iter13Iter$LT$T$GT$3new17hb83f17137e4b0d76E', symObjAddr: 0x1C, symBinAddr: 0x12BEC, symSize: 0x50 }
  - { offset: 0x48E7A, size: 0x8, addend: 0x0, symName: '__ZN128_$LT$pyo3..impl_..pyclass_init..PyNativeTypeInitializer$LT$T$GT$$u20$as$u20$pyo3..impl_..pyclass_init..PyObjectInit$LT$T$GT$$GT$15into_new_object17h1e9b143ecdb631b5E', symObjAddr: 0x0, symBinAddr: 0x1335C, symSize: 0x3C }
  - { offset: 0x4A246, size: 0x8, addend: 0x0, symName: '__ZN128_$LT$pyo3..impl_..pyclass_init..PyNativeTypeInitializer$LT$T$GT$$u20$as$u20$pyo3..impl_..pyclass_init..PyObjectInit$LT$T$GT$$GT$15into_new_object17h1e9b143ecdb631b5E', symObjAddr: 0x0, symBinAddr: 0x1335C, symSize: 0x3C }
  - { offset: 0x4A2CA, size: 0x8, addend: 0x0, symName: '__ZN128_$LT$pyo3..impl_..pyclass_init..PyNativeTypeInitializer$LT$T$GT$$u20$as$u20$pyo3..impl_..pyclass_init..PyObjectInit$LT$T$GT$$GT$17can_be_subclassed17hd2bf597ac5127ad4E', symObjAddr: 0x3C, symBinAddr: 0x13398, symSize: 0x18 }
  - { offset: 0x4AC05, size: 0x8, addend: 0x0, symName: __ZN4core4iter6traits8iterator8Iterator9enumerate17ha6d3e73d64753c1bE, symObjAddr: 0x0, symBinAddr: 0x133B0, symSize: 0x18 }
  - { offset: 0x4B401, size: 0x8, addend: 0x0, symName: __ZN4core4iter6traits8iterator8Iterator9enumerate17ha6d3e73d64753c1bE, symObjAddr: 0x0, symBinAddr: 0x133B0, symSize: 0x18 }
  - { offset: 0x4B432, size: 0x8, addend: 0x0, symName: __ZN4core4iter6traits8iterator8Iterator9enumerate17ha6d3e73d64753c1bE, symObjAddr: 0x0, symBinAddr: 0x133B0, symSize: 0x18 }
  - { offset: 0x4BEB3, size: 0x8, addend: 0x0, symName: '__ZN95_$LT$pyo3..types..list..BoundListIterator$u20$as$u20$core..iter..traits..iterator..Iterator$GT$4next28_$u7b$$u7b$closure$u7d$$u7d$17h1108eb43d18390c8E', symObjAddr: 0x110, symBinAddr: 0x134C0, symSize: 0x34 }
  - { offset: 0x4BF16, size: 0x8, addend: 0x0, symName: '__ZN4pyo35types4list17BoundListIterator21with_critical_section28_$u7b$$u7b$closure$u7d$$u7d$17h64a223085b19a7acE', symObjAddr: 0xD0, symBinAddr: 0x13480, symSize: 0x40 }
  - { offset: 0x4C56D, size: 0x8, addend: 0x0, symName: __ZN4pyo35types4list17BoundListIterator21with_critical_section17hcbb49bb10ddb6048E, symObjAddr: 0x18, symBinAddr: 0x133C8, symSize: 0xB8 }
  - { offset: 0x4C639, size: 0x8, addend: 0x0, symName: '__ZN4pyo312pyclass_init27PyClassInitializer$LT$T$GT$19create_class_object17haa3b7c9f9421d079E', symObjAddr: 0x0, symBinAddr: 0x134F4, symSize: 0x98 }
  - { offset: 0x4E4AF, size: 0x8, addend: 0x0, symName: '__ZN96_$LT$pyo3..pyclass_init..PyClassInitializer$LT$T$GT$$u20$as$u20$core..convert..From$LT$T$GT$$GT$4from17h16ad6336f92ba64dE', symObjAddr: 0x898, symBinAddr: 0x13D8C, symSize: 0x1C }
  - { offset: 0x4E4E5, size: 0x8, addend: 0x0, symName: '__ZN96_$LT$pyo3..pyclass_init..PyClassInitializer$LT$T$GT$$u20$as$u20$core..convert..From$LT$T$GT$$GT$4from17he61c7feb80abe2a1E', symObjAddr: 0x8B4, symBinAddr: 0x13DA8, symSize: 0x1C }
  - { offset: 0x4F29D, size: 0x8, addend: 0x0, symName: '__ZN4pyo312pyclass_init27PyClassInitializer$LT$T$GT$19create_class_object17haa3b7c9f9421d079E', symObjAddr: 0x0, symBinAddr: 0x134F4, symSize: 0x98 }
  - { offset: 0x4F373, size: 0x8, addend: 0x0, symName: '__ZN4pyo312pyclass_init27PyClassInitializer$LT$T$GT$19create_class_object17haf9e1c4e895ae420E', symObjAddr: 0x98, symBinAddr: 0x1358C, symSize: 0x94 }
  - { offset: 0x4F432, size: 0x8, addend: 0x0, symName: '__ZN4pyo312pyclass_init27PyClassInitializer$LT$T$GT$27create_class_object_of_type17h2480847b393f8a93E', symObjAddr: 0x12C, symBinAddr: 0x13620, symSize: 0x2BC }
  - { offset: 0x4F642, size: 0x8, addend: 0x0, symName: '__ZN4pyo312pyclass_init27PyClassInitializer$LT$T$GT$27create_class_object_of_type17h328ba06c17976241E', symObjAddr: 0x3E8, symBinAddr: 0x138DC, symSize: 0x2F4 }
  - { offset: 0x4F82A, size: 0x8, addend: 0x0, symName: '__ZN4pyo312pyclass_init27PyClassInitializer$LT$T$GT$3new17h3e2df1079646c1d8E', symObjAddr: 0x6DC, symBinAddr: 0x13BD0, symSize: 0xD4 }
  - { offset: 0x4F864, size: 0x8, addend: 0x0, symName: '__ZN4pyo312pyclass_init27PyClassInitializer$LT$T$GT$3new17h93f9e2fba08bb7f2E', symObjAddr: 0x7B0, symBinAddr: 0x13CA4, symSize: 0xE8 }
  - { offset: 0x4F8BC, size: 0x8, addend: 0x0, symName: _PyInit_zcash_uri, symObjAddr: 0x0, symBinAddr: 0x13DC4, symSize: 0x34 }
  - { offset: 0x4F8E1, size: 0x8, addend: 0x0, symName: __ZN9zcash_uri9zcash_uri9_PYO3_DEF17hedda3c4110dbefd6E, symObjAddr: 0x50, symBinAddr: 0x198578, symSize: 0x0 }
  - { offset: 0x4F8EE, size: 0x8, addend: 0x0, symName: _PyInit_zcash_uri, symObjAddr: 0x0, symBinAddr: 0x13DC4, symSize: 0x34 }
  - { offset: 0x518F9, size: 0x8, addend: 0x0, symName: '__ZN109_$LT$pyo3..types..dict..borrowed_iter..BorrowedDictIter$u20$as$u20$core..iter..traits..iterator..Iterator$GT$4next17h877208ae8e3f4913E', symObjAddr: 0x0, symBinAddr: 0x13DF8, symSize: 0xE4 }
  - { offset: 0x52A2B, size: 0x8, addend: 0x0, symName: '__ZN109_$LT$pyo3..types..dict..borrowed_iter..BorrowedDictIter$u20$as$u20$core..iter..traits..iterator..Iterator$GT$4next17h877208ae8e3f4913E', symObjAddr: 0x0, symBinAddr: 0x13DF8, symSize: 0xE4 }
  - { offset: 0x5311D, size: 0x8, addend: 0x0, symName: '__ZN97_$LT$alloc..ffi..c_str..CString$u20$as$u20$core..borrow..Borrow$LT$core..ffi..c_str..CStr$GT$$GT$6borrow17h87616594f568d678E', symObjAddr: 0x0, symBinAddr: 0x13EDC, symSize: 0x20 }
  - { offset: 0x531A3, size: 0x8, addend: 0x0, symName: '__ZN97_$LT$alloc..ffi..c_str..CString$u20$as$u20$core..borrow..Borrow$LT$core..ffi..c_str..CStr$GT$$GT$6borrow17h87616594f568d678E', symObjAddr: 0x0, symBinAddr: 0x13EDC, symSize: 0x20 }
  - { offset: 0x53328, size: 0x8, addend: 0x0, symName: '__ZN102_$LT$core..iter..adapters..zip..Zip$LT$A$C$B$GT$$u20$as$u20$core..iter..traits..iterator..Iterator$GT$4next17hbd5199bc0f2adb44E', symObjAddr: 0x0, symBinAddr: 0x13EFC, symSize: 0x24 }
  - { offset: 0x5336C, size: 0x8, addend: 0x0, symName: '__ZN102_$LT$core..iter..adapters..zip..Zip$LT$A$C$B$GT$$u20$as$u20$core..iter..traits..iterator..Iterator$GT$4next17hbd5199bc0f2adb44E', symObjAddr: 0x0, symBinAddr: 0x13EFC, symSize: 0x24 }
  - { offset: 0x533B0, size: 0x8, addend: 0x0, symName: '__ZN111_$LT$core..iter..adapters..zip..Zip$LT$A$C$B$GT$$u20$as$u20$core..iter..adapters..zip..ZipImpl$LT$A$C$B$GT$$GT$3new17hbada150f2adc624bE', symObjAddr: 0x24, symBinAddr: 0x13F20, symSize: 0x3C }
  - { offset: 0x533FC, size: 0x8, addend: 0x0, symName: '__ZN111_$LT$core..iter..adapters..zip..Zip$LT$A$C$B$GT$$u20$as$u20$core..iter..adapters..zip..ZipImpl$LT$A$C$B$GT$$GT$4next17hfd327228df2899d8E', symObjAddr: 0x60, symBinAddr: 0x13F5C, symSize: 0xE0 }
  - { offset: 0x53629, size: 0x8, addend: 0x0, symName: '__ZN63_$LT$I$u20$as$u20$core..iter..traits..collect..IntoIterator$GT$9into_iter17h16414c27bab2bd12E', symObjAddr: 0x140, symBinAddr: 0x1403C, symSize: 0x30 }
  - { offset: 0x53661, size: 0x8, addend: 0x0, symName: '__ZN63_$LT$I$u20$as$u20$core..iter..traits..collect..IntoIterator$GT$9into_iter17hb962704ca134fdb1E', symObjAddr: 0x170, symBinAddr: 0x1406C, symSize: 0x30 }
  - { offset: 0x551B3, size: 0x8, addend: 0x0, symName: '__ZN5alloc11collections5btree3fix178_$LT$impl$u20$alloc..collections..btree..node..NodeRef$LT$alloc..collections..btree..node..marker..Owned$C$K$C$V$C$alloc..collections..btree..node..marker..LeafOrInternal$GT$$GT$29fix_right_border_of_plentiful17h758d4e178cde1cdcE', symObjAddr: 0x0, symBinAddr: 0x1409C, symSize: 0x188 }
  - { offset: 0x5E6B1, size: 0x8, addend: 0x0, symName: '__ZN5alloc11collections5btree4node127NodeRef$LT$alloc..collections..btree..node..marker..Owned$C$K$C$V$C$alloc..collections..btree..node..marker..LeafOrInternal$GT$19push_internal_level28_$u7b$$u7b$closure$u7d$$u7d$17h79a1fb3fb91b5072E', symObjAddr: 0x1598, symBinAddr: 0x15634, symSize: 0x34 }
  - { offset: 0x5E70A, size: 0x8, addend: 0x0, symName: '__ZN5alloc11collections5btree4node127NodeRef$LT$alloc..collections..btree..node..marker..Owned$C$K$C$V$C$alloc..collections..btree..node..marker..LeafOrInternal$GT$19push_internal_level28_$u7b$$u7b$closure$u7d$$u7d$17hfc02a3780d5b86c5E', symObjAddr: 0x15CC, symBinAddr: 0x15668, symSize: 0x34 }
  - { offset: 0x5E78B, size: 0x8, addend: 0x0, symName: __ZN5alloc11collections5btree4node12slice_insert17h7b34cd2f69ba5ccaE, symObjAddr: 0x1600, symBinAddr: 0x1569C, symSize: 0x16C }
  - { offset: 0x5E916, size: 0x8, addend: 0x0, symName: __ZN5alloc11collections5btree4node12slice_insert17h851a860fbca83487E, symObjAddr: 0x176C, symBinAddr: 0x15808, symSize: 0x114 }
  - { offset: 0x5EA7C, size: 0x8, addend: 0x0, symName: __ZN5alloc11collections5btree4node13move_to_slice17h19532a3508a83840E, symObjAddr: 0x1880, symBinAddr: 0x1591C, symSize: 0xB0 }
  - { offset: 0x5EB28, size: 0x8, addend: 0x0, symName: __ZN5alloc11collections5btree4node13move_to_slice17h2b71ae45c886180dE, symObjAddr: 0x1930, symBinAddr: 0x159CC, symSize: 0xB0 }
  - { offset: 0x5EBD4, size: 0x8, addend: 0x0, symName: __ZN5alloc11collections5btree4node13move_to_slice17h3fd362e4a37d6b35E, symObjAddr: 0x19E0, symBinAddr: 0x15A7C, symSize: 0xB8 }
  - { offset: 0x5EC80, size: 0x8, addend: 0x0, symName: __ZN5alloc11collections5btree4node13move_to_slice17ha42ef7d217798095E, symObjAddr: 0x1A98, symBinAddr: 0x15B34, symSize: 0xB8 }
  - { offset: 0x5FC65, size: 0x8, addend: 0x0, symName: __ZN5alloc11collections5btree4node9slice_shr17h24c8223790809cd8E, symObjAddr: 0x6900, symBinAddr: 0x1A99C, symSize: 0xB4 }
  - { offset: 0x5FD27, size: 0x8, addend: 0x0, symName: __ZN5alloc11collections5btree4node9slice_shr17ha2420f1751d2d405E, symObjAddr: 0x69B4, symBinAddr: 0x1AA50, symSize: 0xB8 }
  - { offset: 0x5FDE9, size: 0x8, addend: 0x0, symName: __ZN5alloc11collections5btree4node9slice_shr17hdbf151e6f429ceadE, symObjAddr: 0x6A6C, symBinAddr: 0x1AB08, symSize: 0xB8 }
  - { offset: 0x5FEAB, size: 0x8, addend: 0x0, symName: __ZN5alloc11collections5btree4node9slice_shr17he0f3c223a46c5309E, symObjAddr: 0x6B24, symBinAddr: 0x1ABC0, symSize: 0xB4 }
  - { offset: 0x61AF4, size: 0x8, addend: 0x0, symName: '__ZN5alloc11collections5btree3fix178_$LT$impl$u20$alloc..collections..btree..node..NodeRef$LT$alloc..collections..btree..node..marker..Owned$C$K$C$V$C$alloc..collections..btree..node..marker..LeafOrInternal$GT$$GT$29fix_right_border_of_plentiful17h758d4e178cde1cdcE', symObjAddr: 0x0, symBinAddr: 0x1409C, symSize: 0x188 }
  - { offset: 0x61EC5, size: 0x8, addend: 0x0, symName: '__ZN5alloc11collections5btree3fix178_$LT$impl$u20$alloc..collections..btree..node..NodeRef$LT$alloc..collections..btree..node..marker..Owned$C$K$C$V$C$alloc..collections..btree..node..marker..LeafOrInternal$GT$$GT$29fix_right_border_of_plentiful17hf3d108c001e0a111E', symObjAddr: 0x188, symBinAddr: 0x14224, symSize: 0x188 }
  - { offset: 0x62399, size: 0x8, addend: 0x0, symName: '__ZN5alloc11collections5btree4node115NodeRef$LT$alloc..collections..btree..node..marker..Mut$C$K$C$V$C$alloc..collections..btree..node..marker..Leaf$GT$16push_with_handle17h5a1a3da0d28352fdE', symObjAddr: 0x310, symBinAddr: 0x143AC, symSize: 0x210 }
  - { offset: 0x62962, size: 0x8, addend: 0x0, symName: '__ZN5alloc11collections5btree4node115NodeRef$LT$alloc..collections..btree..node..marker..Mut$C$K$C$V$C$alloc..collections..btree..node..marker..Leaf$GT$16push_with_handle17he227eb60991e2855E', symObjAddr: 0x520, symBinAddr: 0x145BC, symSize: 0x210 }
  - { offset: 0x62D26, size: 0x8, addend: 0x0, symName: '__ZN5alloc11collections5btree4node119NodeRef$LT$alloc..collections..btree..node..marker..Mut$C$K$C$V$C$alloc..collections..btree..node..marker..Internal$GT$30correct_childrens_parent_links17h75480e264463c080E', symObjAddr: 0x730, symBinAddr: 0x147CC, symSize: 0xB4 }
  - { offset: 0x62E5D, size: 0x8, addend: 0x0, symName: '__ZN5alloc11collections5btree4node119NodeRef$LT$alloc..collections..btree..node..marker..Mut$C$K$C$V$C$alloc..collections..btree..node..marker..Internal$GT$30correct_childrens_parent_links17h8dd8ef6186c2b60eE', symObjAddr: 0x7E4, symBinAddr: 0x14880, symSize: 0xB4 }
  - { offset: 0x62FA0, size: 0x8, addend: 0x0, symName: '__ZN5alloc11collections5btree4node119NodeRef$LT$alloc..collections..btree..node..marker..Mut$C$K$C$V$C$alloc..collections..btree..node..marker..Internal$GT$30correct_childrens_parent_links17hb03a7070f3ec3d79E', symObjAddr: 0x898, symBinAddr: 0x14934, symSize: 0xB4 }
  - { offset: 0x630D7, size: 0x8, addend: 0x0, symName: '__ZN5alloc11collections5btree4node119NodeRef$LT$alloc..collections..btree..node..marker..Mut$C$K$C$V$C$alloc..collections..btree..node..marker..Internal$GT$30correct_childrens_parent_links17hcad4df8897e78c19E', symObjAddr: 0x94C, symBinAddr: 0x149E8, symSize: 0xB4 }
  - { offset: 0x63505, size: 0x8, addend: 0x0, symName: '__ZN5alloc11collections5btree4node119NodeRef$LT$alloc..collections..btree..node..marker..Mut$C$K$C$V$C$alloc..collections..btree..node..marker..Internal$GT$4push17h616ff8566fa0b6f8E', symObjAddr: 0xA00, symBinAddr: 0x14A9C, symSize: 0x308 }
  - { offset: 0x63CF2, size: 0x8, addend: 0x0, symName: '__ZN5alloc11collections5btree4node119NodeRef$LT$alloc..collections..btree..node..marker..Mut$C$K$C$V$C$alloc..collections..btree..node..marker..Internal$GT$4push17hbf4bdf7631f9538aE', symObjAddr: 0xD08, symBinAddr: 0x14DA4, symSize: 0x308 }
  - { offset: 0x641BC, size: 0x8, addend: 0x0, symName: '__ZN5alloc11collections5btree4node121NodeRef$LT$alloc..collections..btree..node..marker..Owned$C$K$C$V$C$alloc..collections..btree..node..marker..Internal$GT$12new_internal17h48752dea115b2e7eE', symObjAddr: 0x1010, symBinAddr: 0x150AC, symSize: 0x90 }
  - { offset: 0x64271, size: 0x8, addend: 0x0, symName: '__ZN5alloc11collections5btree4node121NodeRef$LT$alloc..collections..btree..node..marker..Owned$C$K$C$V$C$alloc..collections..btree..node..marker..Internal$GT$12new_internal17h9cabc2bd47ebca47E', symObjAddr: 0x10A0, symBinAddr: 0x1513C, symSize: 0x90 }
  - { offset: 0x64470, size: 0x8, addend: 0x0, symName: '__ZN5alloc11collections5btree4node121NodeRef$LT$alloc..collections..btree..node..marker..Owned$C$K$C$V$C$alloc..collections..btree..node..marker..Internal$GT$17from_new_internal17h1549d4e24c9485adE', symObjAddr: 0x1130, symBinAddr: 0x151CC, symSize: 0xAC }
  - { offset: 0x64797, size: 0x8, addend: 0x0, symName: '__ZN5alloc11collections5btree4node121NodeRef$LT$alloc..collections..btree..node..marker..Owned$C$K$C$V$C$alloc..collections..btree..node..marker..Internal$GT$17from_new_internal17h82087eef8d80addbE', symObjAddr: 0x11DC, symBinAddr: 0x15278, symSize: 0xAC }
  - { offset: 0x64AA4, size: 0x8, addend: 0x0, symName: '__ZN5alloc11collections5btree4node127NodeRef$LT$alloc..collections..btree..node..marker..Dying$C$K$C$V$C$alloc..collections..btree..node..marker..LeafOrInternal$GT$21deallocate_and_ascend17h7ae3b6c26f5bfe67E', symObjAddr: 0x1288, symBinAddr: 0x15324, symSize: 0x188 }
  - { offset: 0x64D23, size: 0x8, addend: 0x0, symName: '__ZN5alloc11collections5btree4node127NodeRef$LT$alloc..collections..btree..node..marker..Dying$C$K$C$V$C$alloc..collections..btree..node..marker..LeafOrInternal$GT$21deallocate_and_ascend17hbda63cb0c0bf08e7E', symObjAddr: 0x1410, symBinAddr: 0x154AC, symSize: 0x188 }
  - { offset: 0x64FD8, size: 0x8, addend: 0x0, symName: '__ZN5alloc11collections5btree4node171Handle$LT$alloc..collections..btree..node..NodeRef$LT$alloc..collections..btree..node..marker..Mut$C$K$C$V$C$NodeType$GT$$C$alloc..collections..btree..node..marker..KV$GT$10replace_kv17h1071391f96eabde0E', symObjAddr: 0x1B50, symBinAddr: 0x15BEC, symSize: 0xF4 }
  - { offset: 0x650DC, size: 0x8, addend: 0x0, symName: '__ZN5alloc11collections5btree4node171Handle$LT$alloc..collections..btree..node..NodeRef$LT$alloc..collections..btree..node..marker..Mut$C$K$C$V$C$NodeType$GT$$C$alloc..collections..btree..node..marker..KV$GT$10replace_kv17h6b6051a5608eb91bE', symObjAddr: 0x1C44, symBinAddr: 0x15CE0, symSize: 0xF4 }
  - { offset: 0x6522B, size: 0x8, addend: 0x0, symName: '__ZN5alloc11collections5btree4node171Handle$LT$alloc..collections..btree..node..NodeRef$LT$alloc..collections..btree..node..marker..Mut$C$K$C$V$C$NodeType$GT$$C$alloc..collections..btree..node..marker..KV$GT$12into_val_mut17h22753681038ffffeE', symObjAddr: 0x1D38, symBinAddr: 0x15DD4, symSize: 0x88 }
  - { offset: 0x6539A, size: 0x8, addend: 0x0, symName: '__ZN5alloc11collections5btree4node171Handle$LT$alloc..collections..btree..node..NodeRef$LT$alloc..collections..btree..node..marker..Mut$C$K$C$V$C$NodeType$GT$$C$alloc..collections..btree..node..marker..KV$GT$12into_val_mut17hdfb56fb75715de8bE', symObjAddr: 0x1DC0, symBinAddr: 0x15E5C, symSize: 0x88 }
  - { offset: 0x65509, size: 0x8, addend: 0x0, symName: '__ZN5alloc11collections5btree4node171Handle$LT$alloc..collections..btree..node..NodeRef$LT$alloc..collections..btree..node..marker..Mut$C$K$C$V$C$NodeType$GT$$C$alloc..collections..btree..node..marker..KV$GT$12into_val_mut17hfa50b0ec3266b5eaE', symObjAddr: 0x1E48, symBinAddr: 0x15EE4, symSize: 0x88 }
  - { offset: 0x658A2, size: 0x8, addend: 0x0, symName: '__ZN5alloc11collections5btree4node171Handle$LT$alloc..collections..btree..node..NodeRef$LT$alloc..collections..btree..node..marker..Mut$C$K$C$V$C$NodeType$GT$$C$alloc..collections..btree..node..marker..KV$GT$15split_leaf_data17h2c48991d7f81816eE', symObjAddr: 0x1ED0, symBinAddr: 0x15F6C, symSize: 0x438 }
  - { offset: 0x66344, size: 0x8, addend: 0x0, symName: '__ZN5alloc11collections5btree4node171Handle$LT$alloc..collections..btree..node..NodeRef$LT$alloc..collections..btree..node..marker..Mut$C$K$C$V$C$NodeType$GT$$C$alloc..collections..btree..node..marker..KV$GT$15split_leaf_data17h3f996c3dd2396128E', symObjAddr: 0x2308, symBinAddr: 0x163A4, symSize: 0x438 }
  - { offset: 0x66C38, size: 0x8, addend: 0x0, symName: '__ZN5alloc11collections5btree4node171Handle$LT$alloc..collections..btree..node..NodeRef$LT$alloc..collections..btree..node..marker..Mut$C$K$C$V$C$NodeType$GT$$C$alloc..collections..btree..node..marker..KV$GT$6kv_mut17h1a4d12f33a6ed63cE', symObjAddr: 0x2740, symBinAddr: 0x167DC, symSize: 0xFC }
  - { offset: 0x66ED1, size: 0x8, addend: 0x0, symName: '__ZN5alloc11collections5btree4node171Handle$LT$alloc..collections..btree..node..NodeRef$LT$alloc..collections..btree..node..marker..Mut$C$K$C$V$C$NodeType$GT$$C$alloc..collections..btree..node..marker..KV$GT$6kv_mut17ha988bc5a1f04e64cE', symObjAddr: 0x283C, symBinAddr: 0x168D8, symSize: 0xFC }
  - { offset: 0x67132, size: 0x8, addend: 0x0, symName: '__ZN5alloc11collections5btree4node171Handle$LT$alloc..collections..btree..node..NodeRef$LT$alloc..collections..btree..node..marker..Mut$C$K$C$V$C$NodeType$GT$$C$alloc..collections..btree..node..marker..KV$GT$6kv_mut17hf793080bae68a361E', symObjAddr: 0x2938, symBinAddr: 0x169D4, symSize: 0xFC }
  - { offset: 0x67391, size: 0x8, addend: 0x0, symName: '__ZN5alloc11collections5btree4node173Handle$LT$alloc..collections..btree..node..NodeRef$LT$alloc..collections..btree..node..marker..Dying$C$K$C$V$C$NodeType$GT$$C$alloc..collections..btree..node..marker..KV$GT$12drop_key_val17h0d29f98e60f60c7fE', symObjAddr: 0x2A34, symBinAddr: 0x16AD0, symSize: 0xF8 }
  - { offset: 0x675F1, size: 0x8, addend: 0x0, symName: '__ZN5alloc11collections5btree4node173Handle$LT$alloc..collections..btree..node..NodeRef$LT$alloc..collections..btree..node..marker..Dying$C$K$C$V$C$NodeType$GT$$C$alloc..collections..btree..node..marker..KV$GT$12drop_key_val17h20a16c04650a414fE', symObjAddr: 0x2B2C, symBinAddr: 0x16BC8, symSize: 0xF8 }
  - { offset: 0x678A5, size: 0x8, addend: 0x0, symName: '__ZN5alloc11collections5btree4node173Handle$LT$alloc..collections..btree..node..NodeRef$LT$alloc..collections..btree..node..marker..Dying$C$K$C$V$C$NodeType$GT$$C$alloc..collections..btree..node..marker..KV$GT$12into_key_val17h52d2a536edfeb1bbE', symObjAddr: 0x2C24, symBinAddr: 0x16CC0, symSize: 0x13C }
  - { offset: 0x67CC3, size: 0x8, addend: 0x0, symName: '__ZN5alloc11collections5btree4node173Handle$LT$alloc..collections..btree..node..NodeRef$LT$alloc..collections..btree..node..marker..Immut$C$K$C$V$C$NodeType$GT$$C$alloc..collections..btree..node..marker..KV$GT$7into_kv17h764f280325ef8932E', symObjAddr: 0x2D60, symBinAddr: 0x16DFC, symSize: 0xE8 }
  - { offset: 0x67F79, size: 0x8, addend: 0x0, symName: '__ZN5alloc11collections5btree4node180Handle$LT$alloc..collections..btree..node..NodeRef$LT$BorrowType$C$K$C$V$C$alloc..collections..btree..node..marker..Internal$GT$$C$alloc..collections..btree..node..marker..Edge$GT$7descend17h740045093c042dceE', symObjAddr: 0x2E48, symBinAddr: 0x16EE4, symSize: 0x9C }
  - { offset: 0x6812C, size: 0x8, addend: 0x0, symName: '__ZN5alloc11collections5btree4node180Handle$LT$alloc..collections..btree..node..NodeRef$LT$BorrowType$C$K$C$V$C$alloc..collections..btree..node..marker..Internal$GT$$C$alloc..collections..btree..node..marker..Edge$GT$7descend17h94152241259bac17E', symObjAddr: 0x2EE4, symBinAddr: 0x16F80, symSize: 0x9C }
  - { offset: 0x682EC, size: 0x8, addend: 0x0, symName: '__ZN5alloc11collections5btree4node180Handle$LT$alloc..collections..btree..node..NodeRef$LT$BorrowType$C$K$C$V$C$alloc..collections..btree..node..marker..Internal$GT$$C$alloc..collections..btree..node..marker..Edge$GT$7descend17ha3bc8333e003321eE', symObjAddr: 0x2F80, symBinAddr: 0x1701C, symSize: 0x9C }
  - { offset: 0x684D7, size: 0x8, addend: 0x0, symName: '__ZN5alloc11collections5btree4node180Handle$LT$alloc..collections..btree..node..NodeRef$LT$BorrowType$C$K$C$V$C$alloc..collections..btree..node..marker..Internal$GT$$C$alloc..collections..btree..node..marker..Edge$GT$7descend17hf1366fefb1300693E', symObjAddr: 0x301C, symBinAddr: 0x170B8, symSize: 0x9C }
  - { offset: 0x68697, size: 0x8, addend: 0x0, symName: '__ZN5alloc11collections5btree4node180Handle$LT$alloc..collections..btree..node..NodeRef$LT$BorrowType$C$K$C$V$C$alloc..collections..btree..node..marker..Internal$GT$$C$alloc..collections..btree..node..marker..Edge$GT$7descend17hffcd75bb9cb6c91bE', symObjAddr: 0x30B8, symBinAddr: 0x17154, symSize: 0x9C }
  - { offset: 0x6883D, size: 0x8, addend: 0x0, symName: '__ZN5alloc11collections5btree4node208Handle$LT$alloc..collections..btree..node..NodeRef$LT$alloc..collections..btree..node..marker..Mut$C$K$C$V$C$alloc..collections..btree..node..marker..Leaf$GT$$C$alloc..collections..btree..node..marker..KV$GT$5split17h94680891bd3dc4e4E', symObjAddr: 0x3154, symBinAddr: 0x171F0, symSize: 0xB4 }
  - { offset: 0x68AA2, size: 0x8, addend: 0x0, symName: '__ZN5alloc11collections5btree4node210Handle$LT$alloc..collections..btree..node..NodeRef$LT$alloc..collections..btree..node..marker..Mut$C$K$C$V$C$alloc..collections..btree..node..marker..Leaf$GT$$C$alloc..collections..btree..node..marker..Edge$GT$10insert_fit17h72449586939eb22bE', symObjAddr: 0x3208, symBinAddr: 0x172A4, symSize: 0x208 }
  - { offset: 0x68F05, size: 0x8, addend: 0x0, symName: '__ZN5alloc11collections5btree4node210Handle$LT$alloc..collections..btree..node..NodeRef$LT$alloc..collections..btree..node..marker..Mut$C$K$C$V$C$alloc..collections..btree..node..marker..Leaf$GT$$C$alloc..collections..btree..node..marker..Edge$GT$16insert_recursing17hdef24e8513d43b33E', symObjAddr: 0x3410, symBinAddr: 0x174AC, symSize: 0x538 }
  - { offset: 0x69382, size: 0x8, addend: 0x0, symName: '__ZN5alloc11collections5btree4node210Handle$LT$alloc..collections..btree..node..NodeRef$LT$alloc..collections..btree..node..marker..Mut$C$K$C$V$C$alloc..collections..btree..node..marker..Leaf$GT$$C$alloc..collections..btree..node..marker..Edge$GT$6insert17hffc8b2da46d9d1c9E', symObjAddr: 0x3948, symBinAddr: 0x179E4, symSize: 0x4EC }
  - { offset: 0x696EC, size: 0x8, addend: 0x0, symName: '__ZN5alloc11collections5btree4node212Handle$LT$alloc..collections..btree..node..NodeRef$LT$alloc..collections..btree..node..marker..Mut$C$K$C$V$C$alloc..collections..btree..node..marker..Internal$GT$$C$alloc..collections..btree..node..marker..KV$GT$22consider_for_balancing17h8aa2330f1526c039E', symObjAddr: 0x3E34, symBinAddr: 0x17ED0, symSize: 0xE4 }
  - { offset: 0x698C0, size: 0x8, addend: 0x0, symName: '__ZN5alloc11collections5btree4node212Handle$LT$alloc..collections..btree..node..NodeRef$LT$alloc..collections..btree..node..marker..Mut$C$K$C$V$C$alloc..collections..btree..node..marker..Internal$GT$$C$alloc..collections..btree..node..marker..KV$GT$22consider_for_balancing17hc2a4aa73a7c56dffE', symObjAddr: 0x3F18, symBinAddr: 0x17FB4, symSize: 0xE4 }
  - { offset: 0x69AF1, size: 0x8, addend: 0x0, symName: '__ZN5alloc11collections5btree4node212Handle$LT$alloc..collections..btree..node..NodeRef$LT$alloc..collections..btree..node..marker..Mut$C$K$C$V$C$alloc..collections..btree..node..marker..Internal$GT$$C$alloc..collections..btree..node..marker..KV$GT$5split17h1020d5234e9c169eE', symObjAddr: 0x3FFC, symBinAddr: 0x18098, symSize: 0x2AC }
  - { offset: 0x6A067, size: 0x8, addend: 0x0, symName: '__ZN5alloc11collections5btree4node214Handle$LT$alloc..collections..btree..node..NodeRef$LT$alloc..collections..btree..node..marker..Mut$C$K$C$V$C$alloc..collections..btree..node..marker..Internal$GT$$C$alloc..collections..btree..node..marker..Edge$GT$10insert_fit17h950167032bc2301cE', symObjAddr: 0x42A8, symBinAddr: 0x18344, symSize: 0x2AC }
  - { offset: 0x6A5D7, size: 0x8, addend: 0x0, symName: '__ZN5alloc11collections5btree4node214Handle$LT$alloc..collections..btree..node..NodeRef$LT$alloc..collections..btree..node..marker..Mut$C$K$C$V$C$alloc..collections..btree..node..marker..Internal$GT$$C$alloc..collections..btree..node..marker..Edge$GT$19correct_parent_link17h3daa403657b9da67E', symObjAddr: 0x4554, symBinAddr: 0x185F0, symSize: 0x9C }
  - { offset: 0x6A7D1, size: 0x8, addend: 0x0, symName: '__ZN5alloc11collections5btree4node214Handle$LT$alloc..collections..btree..node..NodeRef$LT$alloc..collections..btree..node..marker..Mut$C$K$C$V$C$alloc..collections..btree..node..marker..Internal$GT$$C$alloc..collections..btree..node..marker..Edge$GT$19correct_parent_link17h70a684790649ddd4E', symObjAddr: 0x45F0, symBinAddr: 0x1868C, symSize: 0x9C }
  - { offset: 0x6AA4E, size: 0x8, addend: 0x0, symName: '__ZN5alloc11collections5btree4node214Handle$LT$alloc..collections..btree..node..NodeRef$LT$alloc..collections..btree..node..marker..Mut$C$K$C$V$C$alloc..collections..btree..node..marker..Internal$GT$$C$alloc..collections..btree..node..marker..Edge$GT$6insert17h53f7d4375eb86e66E', symObjAddr: 0x468C, symBinAddr: 0x18728, symSize: 0x4F8 }
  - { offset: 0x6AD4B, size: 0x8, addend: 0x0, symName: '__ZN5alloc11collections5btree4node21LeafNode$LT$K$C$V$GT$3new17h292d2cc30c8fdcb6E', symObjAddr: 0x4B84, symBinAddr: 0x18C20, symSize: 0x70 }
  - { offset: 0x6AFBA, size: 0x8, addend: 0x0, symName: '__ZN5alloc11collections5btree4node21LeafNode$LT$K$C$V$GT$3new17h77cd7a876baa17afE', symObjAddr: 0x4BF4, symBinAddr: 0x18C90, symSize: 0x70 }
  - { offset: 0x6B1F3, size: 0x8, addend: 0x0, symName: '__ZN5alloc11collections5btree4node25InternalNode$LT$K$C$V$GT$3new17h6aac77aa6f1fae95E', symObjAddr: 0x4C64, symBinAddr: 0x18D00, symSize: 0x70 }
  - { offset: 0x6B40F, size: 0x8, addend: 0x0, symName: '__ZN5alloc11collections5btree4node25InternalNode$LT$K$C$V$GT$3new17haf651183cc142a0dE', symObjAddr: 0x4CD4, symBinAddr: 0x18D70, symSize: 0x70 }
  - { offset: 0x6BA8C, size: 0x8, addend: 0x0, symName: '__ZN5alloc11collections5btree4node29BalancingContext$LT$K$C$V$GT$15bulk_steal_left17h90ebaaa92845a8e6E', symObjAddr: 0x4D44, symBinAddr: 0x18DE0, symSize: 0x9D4 }
  - { offset: 0x6D288, size: 0x8, addend: 0x0, symName: '__ZN5alloc11collections5btree4node29BalancingContext$LT$K$C$V$GT$15bulk_steal_left17haa370c64db3240a7E', symObjAddr: 0x5718, symBinAddr: 0x197B4, symSize: 0x9D4 }
  - { offset: 0x6E6B4, size: 0x8, addend: 0x0, symName: '__ZN5alloc11collections5btree4node40NodeRef$LT$BorrowType$C$K$C$V$C$Type$GT$6ascend17h2d76ef37cb439020E', symObjAddr: 0x60EC, symBinAddr: 0x1A188, symSize: 0x17C }
  - { offset: 0x6E97D, size: 0x8, addend: 0x0, symName: '__ZN5alloc11collections5btree4node40NodeRef$LT$BorrowType$C$K$C$V$C$Type$GT$6ascend17hb6308f888d896e7aE', symObjAddr: 0x6268, symBinAddr: 0x1A304, symSize: 0x17C }
  - { offset: 0x6EC1F, size: 0x8, addend: 0x0, symName: '__ZN5alloc11collections5btree4node40NodeRef$LT$BorrowType$C$K$C$V$C$Type$GT$6ascend17hbaee83b8642c52b8E', symObjAddr: 0x63E4, symBinAddr: 0x1A480, symSize: 0x17C }
  - { offset: 0x6EEC1, size: 0x8, addend: 0x0, symName: '__ZN5alloc11collections5btree4node40NodeRef$LT$BorrowType$C$K$C$V$C$Type$GT$6ascend17hf55a4d2cfa65c4b7E', symObjAddr: 0x6560, symBinAddr: 0x1A5FC, symSize: 0x17C }
  - { offset: 0x6F163, size: 0x8, addend: 0x0, symName: '__ZN5alloc11collections5btree4node40NodeRef$LT$BorrowType$C$K$C$V$C$Type$GT$6ascend17hfd7882ee85508142E', symObjAddr: 0x66DC, symBinAddr: 0x1A778, symSize: 0x17C }
  - { offset: 0x6F3B8, size: 0x8, addend: 0x0, symName: '__ZN5alloc11collections5btree4node76NodeRef$LT$alloc..collections..btree..node..marker..Immut$C$K$C$V$C$Type$GT$4keys17h6213ccb4ad92fc85E', symObjAddr: 0x6858, symBinAddr: 0x1A8F4, symSize: 0xA8 }
  - { offset: 0x6F831, size: 0x8, addend: 0x0, symName: '__ZN5alloc11collections5btree6append178_$LT$impl$u20$alloc..collections..btree..node..NodeRef$LT$alloc..collections..btree..node..marker..Owned$C$K$C$V$C$alloc..collections..btree..node..marker..LeafOrInternal$GT$$GT$9bulk_push17h4b5c027b4a7d723dE', symObjAddr: 0x6BD8, symBinAddr: 0x1AC74, symSize: 0x538 }
  - { offset: 0x6FFEB, size: 0x8, addend: 0x0, symName: '__ZN5alloc11collections5btree6append178_$LT$impl$u20$alloc..collections..btree..node..NodeRef$LT$alloc..collections..btree..node..marker..Owned$C$K$C$V$C$alloc..collections..btree..node..marker..LeafOrInternal$GT$$GT$9bulk_push17h94048096062a1116E', symObjAddr: 0x7110, symBinAddr: 0x1B1AC, symSize: 0x538 }
  - { offset: 0x70603, size: 0x8, addend: 0x0, symName: '__ZN5alloc11collections5btree6search142_$LT$impl$u20$alloc..collections..btree..node..NodeRef$LT$BorrowType$C$K$C$V$C$alloc..collections..btree..node..marker..LeafOrInternal$GT$$GT$11search_tree17hbba69649631f15e1E', symObjAddr: 0x7648, symBinAddr: 0x1B6E4, symSize: 0x240 }
  - { offset: 0x708E0, size: 0x8, addend: 0x0, symName: '__ZN5alloc11collections5btree6search91_$LT$impl$u20$alloc..collections..btree..node..NodeRef$LT$BorrowType$C$K$C$V$C$Type$GT$$GT$14find_key_index17hbe6832e91b6b8e9cE', symObjAddr: 0x7888, symBinAddr: 0x1B924, symSize: 0x1D4 }
  - { offset: 0x70D43, size: 0x8, addend: 0x0, symName: '__ZN5alloc11collections5btree8navigate142_$LT$impl$u20$alloc..collections..btree..node..NodeRef$LT$BorrowType$C$K$C$V$C$alloc..collections..btree..node..marker..LeafOrInternal$GT$$GT$14last_leaf_edge17h155cf96bfd52526fE', symObjAddr: 0x7A5C, symBinAddr: 0x1BAF8, symSize: 0xEC }
  - { offset: 0x70FD2, size: 0x8, addend: 0x0, symName: '__ZN5alloc11collections5btree8navigate142_$LT$impl$u20$alloc..collections..btree..node..NodeRef$LT$BorrowType$C$K$C$V$C$alloc..collections..btree..node..marker..LeafOrInternal$GT$$GT$14last_leaf_edge17hdbb5b525d2400a81E', symObjAddr: 0x7B48, symBinAddr: 0x1BBE4, symSize: 0xEC }
  - { offset: 0x712A7, size: 0x8, addend: 0x0, symName: '__ZN5alloc11collections5btree8navigate227_$LT$impl$u20$alloc..collections..btree..node..Handle$LT$alloc..collections..btree..node..NodeRef$LT$BorrowType$C$K$C$V$C$alloc..collections..btree..node..marker..Leaf$GT$$C$alloc..collections..btree..node..marker..Edge$GT$$GT$7next_kv17h6e2a9d3014413dc2E', symObjAddr: 0x7C34, symBinAddr: 0x1BCD0, symSize: 0x194 }
  - { offset: 0x716B5, size: 0x8, addend: 0x0, symName: '__ZN5alloc11collections5btree8navigate235_$LT$impl$u20$alloc..collections..btree..node..Handle$LT$alloc..collections..btree..node..NodeRef$LT$BorrowType$C$K$C$V$C$alloc..collections..btree..node..marker..LeafOrInternal$GT$$C$alloc..collections..btree..node..marker..KV$GT$$GT$14next_leaf_edge17h1413aaa8894729ffE', symObjAddr: 0x7DC8, symBinAddr: 0x1BE64, symSize: 0x210 }
  - { offset: 0x71B39, size: 0x8, addend: 0x0, symName: '__ZN5alloc11collections5btree8navigate235_$LT$impl$u20$alloc..collections..btree..node..Handle$LT$alloc..collections..btree..node..NodeRef$LT$BorrowType$C$K$C$V$C$alloc..collections..btree..node..marker..LeafOrInternal$GT$$C$alloc..collections..btree..node..marker..KV$GT$$GT$14next_leaf_edge17h70a7ee276a9515caE', symObjAddr: 0x7FD8, symBinAddr: 0x1C074, symSize: 0x210 }
  - { offset: 0x71FBD, size: 0x8, addend: 0x0, symName: '__ZN5alloc11collections5btree8navigate235_$LT$impl$u20$alloc..collections..btree..node..Handle$LT$alloc..collections..btree..node..NodeRef$LT$BorrowType$C$K$C$V$C$alloc..collections..btree..node..marker..LeafOrInternal$GT$$C$alloc..collections..btree..node..marker..KV$GT$$GT$14next_leaf_edge17hdb4f5f5d0f8884a9E', symObjAddr: 0x81E8, symBinAddr: 0x1C284, symSize: 0x210 }
  - { offset: 0x72287, size: 0x8, addend: 0x0, symName: '__ZN5alloc11collections5btree8navigate263_$LT$impl$u20$alloc..collections..btree..node..Handle$LT$alloc..collections..btree..node..NodeRef$LT$alloc..collections..btree..node..marker..Dying$C$K$C$V$C$alloc..collections..btree..node..marker..Leaf$GT$$C$alloc..collections..btree..node..marker..Edge$GT$$GT$16deallocating_end17h02cd56473430147aE', symObjAddr: 0x83F8, symBinAddr: 0x1C494, symSize: 0xD4 }
  - { offset: 0x723AC, size: 0x8, addend: 0x0, symName: '__ZN5alloc11collections5btree8navigate263_$LT$impl$u20$alloc..collections..btree..node..Handle$LT$alloc..collections..btree..node..NodeRef$LT$alloc..collections..btree..node..marker..Dying$C$K$C$V$C$alloc..collections..btree..node..marker..Leaf$GT$$C$alloc..collections..btree..node..marker..Edge$GT$$GT$16deallocating_end17hc8b497e0dba9802bE', symObjAddr: 0x84CC, symBinAddr: 0x1C568, symSize: 0xD4 }
  - { offset: 0x72613, size: 0x8, addend: 0x0, symName: '__ZN5alloc11collections5btree8navigate263_$LT$impl$u20$alloc..collections..btree..node..Handle$LT$alloc..collections..btree..node..NodeRef$LT$alloc..collections..btree..node..marker..Dying$C$K$C$V$C$alloc..collections..btree..node..marker..Leaf$GT$$C$alloc..collections..btree..node..marker..Edge$GT$$GT$17deallocating_next17hc6c5ad8c0de608dfE', symObjAddr: 0x85A0, symBinAddr: 0x1C63C, symSize: 0x254 }
  - { offset: 0x72989, size: 0x8, addend: 0x0, symName: '__ZN5alloc11collections5btree8navigate263_$LT$impl$u20$alloc..collections..btree..node..Handle$LT$alloc..collections..btree..node..NodeRef$LT$alloc..collections..btree..node..marker..Dying$C$K$C$V$C$alloc..collections..btree..node..marker..Leaf$GT$$C$alloc..collections..btree..node..marker..Edge$GT$$GT$17deallocating_next17hea385dc014d9098dE', symObjAddr: 0x87F4, symBinAddr: 0x1C890, symSize: 0x254 }
  - { offset: 0x72B81, size: 0x8, addend: 0x0, symName: __ZN4pyo35impl_16extract_argument16extract_argument17h1324244de79407bfE, symObjAddr: 0x0, symBinAddr: 0x1CAE4, symSize: 0x144 }
  - { offset: 0x75065, size: 0x8, addend: 0x0, symName: __ZN4pyo35impl_16extract_argument16extract_argument17h1324244de79407bfE, symObjAddr: 0x0, symBinAddr: 0x1CAE4, symSize: 0x144 }
  - { offset: 0x750EB, size: 0x8, addend: 0x0, symName: __ZN4pyo35impl_16extract_argument16extract_argument17h13ac6d0a0075f52dE, symObjAddr: 0x144, symBinAddr: 0x1CC28, symSize: 0x138 }
  - { offset: 0x75170, size: 0x8, addend: 0x0, symName: __ZN4pyo35impl_16extract_argument16extract_argument17h840bb9d91611fb9aE, symObjAddr: 0x27C, symBinAddr: 0x1CD60, symSize: 0x138 }
  - { offset: 0x751F5, size: 0x8, addend: 0x0, symName: __ZN4pyo35impl_16extract_argument16extract_argument17hb1ad2245514a76ccE, symObjAddr: 0x3B4, symBinAddr: 0x1CE98, symSize: 0x150 }
  - { offset: 0x7527A, size: 0x8, addend: 0x0, symName: __ZN4pyo35impl_16extract_argument16extract_argument17hb57a3cf5c5b24706E, symObjAddr: 0x504, symBinAddr: 0x1CFE8, symSize: 0x138 }
  - { offset: 0x752FF, size: 0x8, addend: 0x0, symName: __ZN4pyo35impl_16extract_argument16extract_argument17hca8239c9514fd01aE, symObjAddr: 0x63C, symBinAddr: 0x1D120, symSize: 0x144 }
  - { offset: 0x75385, size: 0x8, addend: 0x0, symName: __ZN4pyo35impl_16extract_argument16extract_argument17hf73adc15787d096fE, symObjAddr: 0x780, symBinAddr: 0x1D264, symSize: 0x138 }
  - { offset: 0x7558B, size: 0x8, addend: 0x0, symName: '__ZN4pyo35impl_16extract_argument19FunctionDescription26extract_arguments_fastcall28_$u7b$$u7b$closure$u7d$$u7d$17haa321a921c2c182dE', symObjAddr: 0x1C84, symBinAddr: 0x1E768, symSize: 0x24 }
  - { offset: 0x755E3, size: 0x8, addend: 0x0, symName: '__ZN4pyo35impl_16extract_argument19FunctionDescription28extract_arguments_tuple_dict28_$u7b$$u7b$closure$u7d$$u7d$17hc35ef26be0d228b5E', symObjAddr: 0x2128, symBinAddr: 0x1EC0C, symSize: 0x24 }
  - { offset: 0x7563B, size: 0x8, addend: 0x0, symName: '__ZN4pyo35impl_16extract_argument19FunctionDescription36find_keyword_parameter_in_positional28_$u7b$$u7b$closure$u7d$$u7d$17ha60f4e44f5cb9414E', symObjAddr: 0x214C, symBinAddr: 0x1EC30, symSize: 0x48 }
  - { offset: 0x7569B, size: 0x8, addend: 0x0, symName: '__ZN4pyo35impl_16extract_argument19FunctionDescription38find_keyword_parameter_in_keyword_only28_$u7b$$u7b$closure$u7d$$u7d$17h6e723b6063de7985E', symObjAddr: 0x2194, symBinAddr: 0x1EC78, symSize: 0x38 }
  - { offset: 0x756DD, size: 0x8, addend: 0x0, symName: __ZN4pyo35impl_16extract_argument19extract_pyclass_ref17ha80c73b1252f3572E, symObjAddr: 0x21CC, symBinAddr: 0x1ECB0, symSize: 0xB0 }
  - { offset: 0x7573E, size: 0x8, addend: 0x0, symName: __ZN4pyo35impl_16extract_argument19extract_pyclass_ref17hf0adb3c6f7fd7386E, symObjAddr: 0x227C, symBinAddr: 0x1ED60, symSize: 0xB0 }
  - { offset: 0x7579F, size: 0x8, addend: 0x0, symName: __ZN4pyo35impl_16extract_argument25extract_optional_argument17h0b521a2e61879881E, symObjAddr: 0x232C, symBinAddr: 0x1EE10, symSize: 0xC0 }
  - { offset: 0x75813, size: 0x8, addend: 0x0, symName: __ZN4pyo35impl_16extract_argument25extract_optional_argument17h3162468549cd04a1E, symObjAddr: 0x23EC, symBinAddr: 0x1EED0, symSize: 0xCC }
  - { offset: 0x75888, size: 0x8, addend: 0x0, symName: __ZN4pyo35impl_16extract_argument25extract_optional_argument17h37665c67d5b68b4dE, symObjAddr: 0x24B8, symBinAddr: 0x1EF9C, symSize: 0xE4 }
  - { offset: 0x75901, size: 0x8, addend: 0x0, symName: '__ZN80_$LT$T$u20$as$u20$pyo3..impl_..extract_argument..PyFunctionArgument$LT$_$GT$$GT$7extract17h6b3cd77ce3746ff1E', symObjAddr: 0x259C, symBinAddr: 0x1F080, symSize: 0x28 }
  - { offset: 0x75940, size: 0x8, addend: 0x0, symName: '__ZN80_$LT$T$u20$as$u20$pyo3..impl_..extract_argument..PyFunctionArgument$LT$_$GT$$GT$7extract17h7f2960d820047715E', symObjAddr: 0x25C4, symBinAddr: 0x1F0A8, symSize: 0x28 }
  - { offset: 0x7597F, size: 0x8, addend: 0x0, symName: '__ZN80_$LT$T$u20$as$u20$pyo3..impl_..extract_argument..PyFunctionArgument$LT$_$GT$$GT$7extract17ha523eff2ff644883E', symObjAddr: 0x25EC, symBinAddr: 0x1F0D0, symSize: 0x28 }
  - { offset: 0x76684, size: 0x8, addend: 0x0, symName: __ZN4pyo35impl_16extract_argument19FunctionDescription13handle_kwargs17he314cd3e81c982fdE, symObjAddr: 0x8B8, symBinAddr: 0x1D39C, symSize: 0x6F8 }
  - { offset: 0x76899, size: 0x8, addend: 0x0, symName: __ZN4pyo35impl_16extract_argument19FunctionDescription13handle_kwargs17hee01367d881eabb6E, symObjAddr: 0xFB0, symBinAddr: 0x1DA94, symSize: 0x6FC }
  - { offset: 0x76AB2, size: 0x8, addend: 0x0, symName: __ZN4pyo35impl_16extract_argument19FunctionDescription26extract_arguments_fastcall17hfcfc95df58f9689dE, symObjAddr: 0x16AC, symBinAddr: 0x1E190, symSize: 0x5D8 }
  - { offset: 0x76DE5, size: 0x8, addend: 0x0, symName: __ZN4pyo35impl_16extract_argument19FunctionDescription28extract_arguments_tuple_dict17h0b0f3db5ae7b382eE, symObjAddr: 0x1CA8, symBinAddr: 0x1E78C, symSize: 0x480 }
  - { offset: 0x774CC, size: 0x8, addend: 0x0, symName: '__ZN100_$LT$pyo3..types..tuple..BorrowedTupleIterator$u20$as$u20$core..iter..traits..iterator..Iterator$GT$4next17h081ccfc9c14d3b8eE', symObjAddr: 0x0, symBinAddr: 0x1F0F8, symSize: 0x9C }
  - { offset: 0x785F9, size: 0x8, addend: 0x0, symName: '__ZN100_$LT$pyo3..types..tuple..BorrowedTupleIterator$u20$as$u20$core..iter..traits..iterator..Iterator$GT$4next17h081ccfc9c14d3b8eE', symObjAddr: 0x0, symBinAddr: 0x1F0F8, symSize: 0x9C }
  - { offset: 0x78CA0, size: 0x8, addend: 0x0, symName: '__ZN111_$LT$T$u20$as$u20$pyo3..impl_..callback..IntoPyCallbackOutput$LT$$BP$mut$u20$pyo3_ffi..object..PyObject$GT$$GT$7convert17h1926d35c7c8634f3E', symObjAddr: 0x0, symBinAddr: 0x1F194, symSize: 0x34 }
  - { offset: 0x78D11, size: 0x8, addend: 0x0, symName: '__ZN4core3ptr9const_ptr33_$LT$impl$u20$$BP$const$u20$T$GT$7is_null17hdca7140bf26b4b94E', symObjAddr: 0x11C, symBinAddr: 0x1F2B0, symSize: 0x18 }
  - { offset: 0x78FB1, size: 0x8, addend: 0x0, symName: '__ZN4core5slice29_$LT$impl$u20$$u5b$T$u5d$$GT$15copy_from_slice17h806b27074a08a01fE', symObjAddr: 0x134, symBinAddr: 0x1F2C8, symSize: 0xAC }
  - { offset: 0x7907C, size: 0x8, addend: 0x0, symName: '__ZN4core5slice29_$LT$impl$u20$$u5b$T$u5d$$GT$18split_at_unchecked17h67ae16053073f8daE', symObjAddr: 0x1E0, symBinAddr: 0x1F374, symSize: 0xEC }
  - { offset: 0x79208, size: 0x8, addend: 0x0, symName: '__ZN4core5slice29_$LT$impl$u20$$u5b$T$u5d$$GT$8split_at17hd7653abd2294841fE', symObjAddr: 0x2CC, symBinAddr: 0x1F460, symSize: 0xD8 }
  - { offset: 0x7B139, size: 0x8, addend: 0x0, symName: __ZN4core6option6Option4Some17hba373acbd28335ebE, symObjAddr: 0x1490, symBinAddr: 0x20624, symSize: 0x18 }
  - { offset: 0x7B16C, size: 0x8, addend: 0x0, symName: __ZN4core6option6Option4Some17hbfb63b09b76c23b1E, symObjAddr: 0x14A8, symBinAddr: 0x2063C, symSize: 0x1C }
  - { offset: 0x7B19F, size: 0x8, addend: 0x0, symName: __ZN4core6option6Option4Some17hf287a1c278d3562bE, symObjAddr: 0x14C4, symBinAddr: 0x20658, symSize: 0x14 }
  - { offset: 0x7B1D9, size: 0x8, addend: 0x0, symName: '__ZN68_$LT$core..option..Option$LT$T$GT$$u20$as$u20$core..clone..Clone$GT$5clone17h2d04812f328bdcd0E', symObjAddr: 0x1654, symBinAddr: 0x207E8, symSize: 0x84 }
  - { offset: 0x7B22E, size: 0x8, addend: 0x0, symName: '__ZN68_$LT$core..option..Option$LT$T$GT$$u20$as$u20$core..clone..Clone$GT$5clone17h33783e030b7232c1E', symObjAddr: 0x16D8, symBinAddr: 0x2086C, symSize: 0x5C }
  - { offset: 0x7B2A1, size: 0x8, addend: 0x0, symName: '__ZN68_$LT$core..option..Option$LT$T$GT$$u20$as$u20$core..clone..Clone$GT$5clone17h5ea966add01ef8abE', symObjAddr: 0x1734, symBinAddr: 0x208C8, symSize: 0x84 }
  - { offset: 0x7B2FC, size: 0x8, addend: 0x0, symName: '__ZN70_$LT$core..option..Option$LT$T$GT$$u20$as$u20$core..cmp..PartialEq$GT$2eq17h74cf953408c3277bE', symObjAddr: 0x17B8, symBinAddr: 0x2094C, symSize: 0x9C }
  - { offset: 0x7B370, size: 0x8, addend: 0x0, symName: '__ZN70_$LT$core..option..Option$LT$T$GT$$u20$as$u20$core..cmp..PartialEq$GT$2eq17h9a12c119afdc79a5E', symObjAddr: 0x1854, symBinAddr: 0x209E8, symSize: 0xB8 }
  - { offset: 0x7B3E4, size: 0x8, addend: 0x0, symName: '__ZN70_$LT$core..option..Option$LT$T$GT$$u20$as$u20$core..cmp..PartialEq$GT$2eq17hfc8fd90f3569fb61E', symObjAddr: 0x190C, symBinAddr: 0x20AA0, symSize: 0xB8 }
  - { offset: 0x7C82E, size: 0x8, addend: 0x0, symName: '__ZN111_$LT$T$u20$as$u20$pyo3..impl_..callback..IntoPyCallbackOutput$LT$$BP$mut$u20$pyo3_ffi..object..PyObject$GT$$GT$7convert17h1926d35c7c8634f3E', symObjAddr: 0x0, symBinAddr: 0x1F194, symSize: 0x34 }
  - { offset: 0x7C87C, size: 0x8, addend: 0x0, symName: '__ZN111_$LT$T$u20$as$u20$pyo3..impl_..callback..IntoPyCallbackOutput$LT$$BP$mut$u20$pyo3_ffi..object..PyObject$GT$$GT$7convert17h8d933ddeacae9935E', symObjAddr: 0x34, symBinAddr: 0x1F1C8, symSize: 0x34 }
  - { offset: 0x7C8CA, size: 0x8, addend: 0x0, symName: '__ZN111_$LT$T$u20$as$u20$pyo3..impl_..callback..IntoPyCallbackOutput$LT$$BP$mut$u20$pyo3_ffi..object..PyObject$GT$$GT$7convert17ha52be2b99f103200E', symObjAddr: 0x68, symBinAddr: 0x1F1FC, symSize: 0x2C }
  - { offset: 0x7C919, size: 0x8, addend: 0x0, symName: '__ZN111_$LT$T$u20$as$u20$pyo3..impl_..callback..IntoPyCallbackOutput$LT$$BP$mut$u20$pyo3_ffi..object..PyObject$GT$$GT$7convert17he71b82a71d6b1cc5E', symObjAddr: 0x94, symBinAddr: 0x1F228, symSize: 0x38 }
  - { offset: 0x7C967, size: 0x8, addend: 0x0, symName: '__ZN111_$LT$T$u20$as$u20$pyo3..impl_..callback..IntoPyCallbackOutput$LT$$BP$mut$u20$pyo3_ffi..object..PyObject$GT$$GT$7convert17hf0d56bf06af166ebE', symObjAddr: 0xCC, symBinAddr: 0x1F260, symSize: 0x50 }
  - { offset: 0x7CA02, size: 0x8, addend: 0x0, symName: '__ZN86_$LT$core..option..Option$LT$T$GT$$u20$as$u20$pyo3..impl_..wrap..SomeWrap$LT$T$GT$$GT$4wrap17h3d7afc45e9f700dcE', symObjAddr: 0x19C4, symBinAddr: 0x20B58, symSize: 0x14 }
  - { offset: 0x7CA37, size: 0x8, addend: 0x0, symName: '__ZN86_$LT$core..option..Option$LT$T$GT$$u20$as$u20$pyo3..impl_..wrap..SomeWrap$LT$T$GT$$GT$4wrap17h8ff0e954e0c771cdE', symObjAddr: 0x19D8, symBinAddr: 0x20B6C, symSize: 0x18 }
  - { offset: 0x7CA6C, size: 0x8, addend: 0x0, symName: '__ZN86_$LT$core..option..Option$LT$T$GT$$u20$as$u20$pyo3..impl_..wrap..SomeWrap$LT$T$GT$$GT$4wrap17he084a6e3a715bae6E', symObjAddr: 0x19F0, symBinAddr: 0x20B84, symSize: 0x14 }
  - { offset: 0x7CFFE, size: 0x8, addend: 0x0, symName: '__ZN4pyo311conversions3std6option90_$LT$impl$u20$pyo3..conversion..IntoPyObject$u20$for$u20$core..option..Option$LT$T$GT$$GT$13into_pyobject17h85c7231285f1ffbaE', symObjAddr: 0x1578, symBinAddr: 0x2070C, symSize: 0x2C }
  - { offset: 0x7D04C, size: 0x8, addend: 0x0, symName: '__ZN4pyo311conversions3std6option90_$LT$impl$u20$pyo3..conversion..IntoPyObject$u20$for$u20$core..option..Option$LT$T$GT$$GT$13into_pyobject17h8bcd4bac0767485aE', symObjAddr: 0x15A4, symBinAddr: 0x20738, symSize: 0x30 }
  - { offset: 0x7D09A, size: 0x8, addend: 0x0, symName: '__ZN4pyo311conversions3std6option90_$LT$impl$u20$pyo3..conversion..IntoPyObject$u20$for$u20$core..option..Option$LT$T$GT$$GT$13into_pyobject17ha76cfc907c391d7dE', symObjAddr: 0x15D4, symBinAddr: 0x20768, symSize: 0x30 }
  - { offset: 0x7D0E8, size: 0x8, addend: 0x0, symName: '__ZN4pyo311conversions3std6option90_$LT$impl$u20$pyo3..conversion..IntoPyObject$u20$for$u20$core..option..Option$LT$T$GT$$GT$13into_pyobject17hc566854fde6ccc37E', symObjAddr: 0x1604, symBinAddr: 0x20798, symSize: 0x2C }
  - { offset: 0x7D136, size: 0x8, addend: 0x0, symName: '__ZN4pyo311conversions3std6option90_$LT$impl$u20$pyo3..conversion..IntoPyObject$u20$for$u20$core..option..Option$LT$T$GT$$GT$13into_pyobject17hff435edbf19ad6acE', symObjAddr: 0x1630, symBinAddr: 0x207C4, symSize: 0x24 }
  - { offset: 0x7D1D5, size: 0x8, addend: 0x0, symName: __ZN4pyo310conversion15IntoPyObjectExt17into_bound_py_any17h547a619a5e2d436bE, symObjAddr: 0x14D8, symBinAddr: 0x2066C, symSize: 0x50 }
  - { offset: 0x7D245, size: 0x8, addend: 0x0, symName: __ZN4pyo310conversion15IntoPyObjectExt17into_bound_py_any17h5cc656424366eb22E, symObjAddr: 0x1528, symBinAddr: 0x206BC, symSize: 0x50 }
  - { offset: 0x7DC14, size: 0x8, addend: 0x0, symName: '__ZN4core6option15Option$LT$T$GT$10ok_or_else17h4d7dee80ccbaf474E', symObjAddr: 0x3A4, symBinAddr: 0x1F538, symSize: 0x7C }
  - { offset: 0x7E3B6, size: 0x8, addend: 0x0, symName: '__ZN4core6option15Option$LT$T$GT$10ok_or_else17h504a8059536224edE', symObjAddr: 0x420, symBinAddr: 0x1F5B4, symSize: 0xA4 }
  - { offset: 0x7E42F, size: 0x8, addend: 0x0, symName: '__ZN4core6option15Option$LT$T$GT$11map_or_else17h9118b558e7e51115E', symObjAddr: 0x4C4, symBinAddr: 0x1F658, symSize: 0x100 }
  - { offset: 0x7E4AB, size: 0x8, addend: 0x0, symName: '__ZN4core6option15Option$LT$T$GT$11map_or_else17ha2ad9e5f180a315dE', symObjAddr: 0x5C4, symBinAddr: 0x1F758, symSize: 0xE8 }
  - { offset: 0x7E544, size: 0x8, addend: 0x0, symName: '__ZN4core6option15Option$LT$T$GT$11map_or_else17hbbf7dd774206a7faE', symObjAddr: 0x6AC, symBinAddr: 0x1F840, symSize: 0xD8 }
  - { offset: 0x7E5C7, size: 0x8, addend: 0x0, symName: '__ZN4core6option15Option$LT$T$GT$11map_or_else17he962e529ee31add1E', symObjAddr: 0x784, symBinAddr: 0x1F918, symSize: 0xD8 }
  - { offset: 0x7E649, size: 0x8, addend: 0x0, symName: '__ZN4core6option15Option$LT$T$GT$11map_or_else17hee4184c4bd7b3debE', symObjAddr: 0x85C, symBinAddr: 0x1F9F0, symSize: 0xD8 }
  - { offset: 0x7E797, size: 0x8, addend: 0x0, symName: '__ZN4core6option15Option$LT$T$GT$18get_or_insert_with17h2ab57f48659ae680E', symObjAddr: 0x934, symBinAddr: 0x1FAC8, symSize: 0x14C }
  - { offset: 0x7E8DF, size: 0x8, addend: 0x0, symName: '__ZN4core6option15Option$LT$T$GT$18get_or_insert_with17h41672f4d638d03a5E', symObjAddr: 0xA80, symBinAddr: 0x1FC14, symSize: 0x14C }
  - { offset: 0x7E98C, size: 0x8, addend: 0x0, symName: '__ZN4core6option15Option$LT$T$GT$3map17h079c2ccf6ec0782bE', symObjAddr: 0xBCC, symBinAddr: 0x1FD60, symSize: 0x6C }
  - { offset: 0x7EA04, size: 0x8, addend: 0x0, symName: '__ZN4core6option15Option$LT$T$GT$3map17h3403e106f9bd6cf7E', symObjAddr: 0xC38, symBinAddr: 0x1FDCC, symSize: 0x50 }
  - { offset: 0x7EA6F, size: 0x8, addend: 0x0, symName: '__ZN4core6option15Option$LT$T$GT$3map17h3de4752a4487d541E', symObjAddr: 0xC88, symBinAddr: 0x1FE1C, symSize: 0x58 }
  - { offset: 0x7EADA, size: 0x8, addend: 0x0, symName: '__ZN4core6option15Option$LT$T$GT$3map17h4214319733099746E', symObjAddr: 0xCE0, symBinAddr: 0x1FE74, symSize: 0x5C }
  - { offset: 0x7EB5D, size: 0x8, addend: 0x0, symName: '__ZN4core6option15Option$LT$T$GT$3map17h549e2484f82798e2E', symObjAddr: 0xD3C, symBinAddr: 0x1FED0, symSize: 0x78 }
  - { offset: 0x7EBC8, size: 0x8, addend: 0x0, symName: '__ZN4core6option15Option$LT$T$GT$3map17h656833d8aab6761fE', symObjAddr: 0xDB4, symBinAddr: 0x1FF48, symSize: 0x58 }
  - { offset: 0x7EC40, size: 0x8, addend: 0x0, symName: '__ZN4core6option15Option$LT$T$GT$3map17ha424bf1dae7bcc04E', symObjAddr: 0xE0C, symBinAddr: 0x1FFA0, symSize: 0x50 }
  - { offset: 0x7ECAB, size: 0x8, addend: 0x0, symName: '__ZN4core6option15Option$LT$T$GT$3map17ha711006ccc773de4E', symObjAddr: 0xE5C, symBinAddr: 0x1FFF0, symSize: 0x58 }
  - { offset: 0x7ED16, size: 0x8, addend: 0x0, symName: '__ZN4core6option15Option$LT$T$GT$3map17hed532f6d671eae33E', symObjAddr: 0xEB4, symBinAddr: 0x20048, symSize: 0x58 }
  - { offset: 0x7EDD3, size: 0x8, addend: 0x0, symName: '__ZN4core6option15Option$LT$T$GT$4take17haf18e5d13b3f8485E', symObjAddr: 0xF0C, symBinAddr: 0x200A0, symSize: 0x40 }
  - { offset: 0x7EE37, size: 0x8, addend: 0x0, symName: '__ZN4core6option15Option$LT$T$GT$6as_ref17h8d05ba12f2e2d663E', symObjAddr: 0xF4C, symBinAddr: 0x200E0, symSize: 0x50 }
  - { offset: 0x7EE81, size: 0x8, addend: 0x0, symName: '__ZN4core6option15Option$LT$T$GT$6expect17h834e228339443298E', symObjAddr: 0xF9C, symBinAddr: 0x20130, symSize: 0x5C }
  - { offset: 0x7EEBC, size: 0x8, addend: 0x0, symName: '__ZN4core6option15Option$LT$T$GT$6expect17hbeee55e03b430bcaE', symObjAddr: 0xFF8, symBinAddr: 0x2018C, symSize: 0x5C }
  - { offset: 0x7EFD3, size: 0x8, addend: 0x0, symName: '__ZN4core6option15Option$LT$T$GT$6insert17h327541daac47e25fE', symObjAddr: 0x1054, symBinAddr: 0x201E8, symSize: 0xA8 }
  - { offset: 0x7F0D9, size: 0x8, addend: 0x0, symName: '__ZN4core6option15Option$LT$T$GT$6insert17h833055a04ed7feafE', symObjAddr: 0x10FC, symBinAddr: 0x20290, symSize: 0xA8 }
  - { offset: 0x7F16F, size: 0x8, addend: 0x0, symName: '__ZN4core6option15Option$LT$T$GT$7is_some17h27a3f71aceb7b781E', symObjAddr: 0x11A4, symBinAddr: 0x20338, symSize: 0x2C }
  - { offset: 0x7F1A8, size: 0x8, addend: 0x0, symName: '__ZN4core6option15Option$LT$T$GT$7is_some17h4b7cb18210747304E', symObjAddr: 0x11D0, symBinAddr: 0x20364, symSize: 0x28 }
  - { offset: 0x7F1E1, size: 0x8, addend: 0x0, symName: '__ZN4core6option15Option$LT$T$GT$7replace17hf6a077564fbdc210E', symObjAddr: 0x11F8, symBinAddr: 0x2038C, symSize: 0x28 }
  - { offset: 0x7F23A, size: 0x8, addend: 0x0, symName: '__ZN4core6option15Option$LT$T$GT$8and_then17h6751e8bb2fb3ca3bE', symObjAddr: 0x1220, symBinAddr: 0x203B4, symSize: 0x58 }
  - { offset: 0x7F35F, size: 0x8, addend: 0x0, symName: '__ZN4core6option15Option$LT$T$GT$8as_deref17h62c38f6599d2fdecE', symObjAddr: 0x1278, symBinAddr: 0x2040C, symSize: 0x6C }
  - { offset: 0x7F4A8, size: 0x8, addend: 0x0, symName: '__ZN4core6option15Option$LT$T$GT$8as_deref17he6e22c98a80ebbf4E', symObjAddr: 0x12E4, symBinAddr: 0x20478, symSize: 0x78 }
  - { offset: 0x7F60B, size: 0x8, addend: 0x0, symName: '__ZN4core6option15Option$LT$T$GT$8as_deref17hf6dabf74913f277dE', symObjAddr: 0x135C, symBinAddr: 0x204F0, symSize: 0x78 }
  - { offset: 0x7F6B4, size: 0x8, addend: 0x0, symName: '__ZN4core6option15Option$LT$T$GT$9unwrap_or17h31f47f0f21aee786E', symObjAddr: 0x13D4, symBinAddr: 0x20568, symSize: 0x48 }
  - { offset: 0x7F70D, size: 0x8, addend: 0x0, symName: '__ZN4core6option19Option$LT$$RF$T$GT$6cloned17h9c111a6b201f1dbbE', symObjAddr: 0x141C, symBinAddr: 0x205B0, symSize: 0x74 }
  - { offset: 0x7F78F, size: 0x8, addend: 0x0, symName: '__ZN157_$LT$$LT$alloc..vec..into_iter..IntoIter$LT$T$C$A$GT$$u20$as$u20$core..ops..drop..Drop$GT$..drop..DropGuard$LT$T$C$A$GT$$u20$as$u20$core..ops..drop..Drop$GT$4drop17h79b83a514070ce98E', symObjAddr: 0x0, symBinAddr: 0x20B98, symSize: 0x7C }
  - { offset: 0x7FE76, size: 0x8, addend: 0x0, symName: '__ZN4core3ptr100drop_in_place$LT$pyo3..pyclass_init..PyClassInitializerImpl$LT$zcash_uri..TransactionRequest$GT$$GT$17hb35cf78077309382E', symObjAddr: 0x978, symBinAddr: 0x214EC, symSize: 0x50 }
  - { offset: 0x7FEA5, size: 0x8, addend: 0x0, symName: '__ZN4core3ptr101drop_in_place$LT$core..option..Option$LT$pyo3..instance..Bound$LT$pyo3..types..any..PyAny$GT$$GT$$GT$17h30f316b6010eac9aE', symObjAddr: 0x9EC, symBinAddr: 0x2153C, symSize: 0x44 }
  - { offset: 0x7FED4, size: 0x8, addend: 0x0, symName: '__ZN4core3ptr105drop_in_place$LT$core..option..Option$LT$pyo3..pycell..PyRef$LT$zcash_uri..TransactionRequest$GT$$GT$$GT$17hc95aa514fe53e4c3E', symObjAddr: 0xAD8, symBinAddr: 0x21580, symSize: 0x44 }
  - { offset: 0x7FF03, size: 0x8, addend: 0x0, symName: '__ZN4core3ptr107drop_in_place$LT$core..iter..adapters..enumerate..Enumerate$LT$pyo3..types..list..BoundListIterator$GT$$GT$17hb353b0adf75b59cbE', symObjAddr: 0xB1C, symBinAddr: 0x215C4, symSize: 0x24 }
  - { offset: 0x7FF32, size: 0x8, addend: 0x0, symName: '__ZN4core3ptr107drop_in_place$LT$core..slice..sort..stable..merge..MergeState$LT$$LP$usize$C$zcash_uri..Payment$RP$$GT$$GT$17h337fba45773ca212E', symObjAddr: 0xB40, symBinAddr: 0x215E8, symSize: 0x24 }
  - { offset: 0x7FF61, size: 0x8, addend: 0x0, symName: '__ZN4core3ptr108drop_in_place$LT$core..result..Result$LT$$LP$$RP$$C$alloc..borrow..Cow$LT$core..ffi..c_str..CStr$GT$$GT$$GT$17h98183b663901bdf8E', symObjAddr: 0xB64, symBinAddr: 0x2160C, symSize: 0x44 }
  - { offset: 0x7FF90, size: 0x8, addend: 0x0, symName: '__ZN4core3ptr111drop_in_place$LT$core..option..Option$LT$core..option..Option$LT$$LP$usize$C$zcash_uri..Payment$RP$$GT$$GT$$GT$17haab6aab38657c833E', symObjAddr: 0xBA8, symBinAddr: 0x21650, symSize: 0x44 }
  - { offset: 0x7FFBF, size: 0x8, addend: 0x0, symName: '__ZN4core3ptr111drop_in_place$LT$core..slice..sort..shared..smallsort..CopyOnDrop$LT$$LP$usize$C$zcash_uri..Payment$RP$$GT$$GT$17ha1922d075ef3ed59E', symObjAddr: 0xBEC, symBinAddr: 0x21694, symSize: 0x24 }
  - { offset: 0x7FFEE, size: 0x8, addend: 0x0, symName: '__ZN4core3ptr111drop_in_place$LT$core..slice..sort..stable..merge..MergeState$LT$$LP$usize$C$zcash_uri..PaymentData$RP$$GT$$GT$17h15971f44835ef92fE', symObjAddr: 0xC10, symBinAddr: 0x216B8, symSize: 0x24 }
  - { offset: 0x8001D, size: 0x8, addend: 0x0, symName: '__ZN4core3ptr115drop_in_place$LT$core..option..Option$LT$core..option..Option$LT$$LP$usize$C$zcash_uri..PaymentData$RP$$GT$$GT$$GT$17h65e8b9cae3b6c7d3E', symObjAddr: 0xC58, symBinAddr: 0x216DC, symSize: 0x44 }
  - { offset: 0x8004C, size: 0x8, addend: 0x0, symName: '__ZN4core3ptr115drop_in_place$LT$core..slice..sort..shared..smallsort..CopyOnDrop$LT$$LP$usize$C$zcash_uri..PaymentData$RP$$GT$$GT$17haa9c6ca15d344286E', symObjAddr: 0xC9C, symBinAddr: 0x21720, symSize: 0x24 }
  - { offset: 0x8007B, size: 0x8, addend: 0x0, symName: '__ZN4core3ptr121drop_in_place$LT$core..option..Option$LT$core..result..Result$LT$core..convert..Infallible$C$pyo3..err..PyErr$GT$$GT$$GT$17h0c784fdd803c73feE', symObjAddr: 0xCC0, symBinAddr: 0x21744, symSize: 0x40 }
  - { offset: 0x800AA, size: 0x8, addend: 0x0, symName: '__ZN4core3ptr124drop_in_place$LT$pyo3..err..PyErr..new$LT$zcash_uri..ParseError$C$alloc..string..String$GT$..$u7b$$u7b$closure$u7d$$u7d$$GT$17ha86728adb3f902a1E', symObjAddr: 0xD24, symBinAddr: 0x21784, symSize: 0x24 }
  - { offset: 0x800D9, size: 0x8, addend: 0x0, symName: '__ZN4core3ptr125drop_in_place$LT$alloc..boxed..Box$LT$alloc..collections..btree..node..LeafNode$LT$usize$C$zcash_uri..PaymentData$GT$$GT$$GT$17h175987bf5e059925E', symObjAddr: 0xD74, symBinAddr: 0x217A8, symSize: 0x2C }
  - { offset: 0x80108, size: 0x8, addend: 0x0, symName: '__ZN4core3ptr129drop_in_place$LT$alloc..boxed..Box$LT$alloc..collections..btree..node..InternalNode$LT$usize$C$zcash_uri..PaymentData$GT$$GT$$GT$17h2422af2f70cabedeE', symObjAddr: 0xDC4, symBinAddr: 0x217D4, symSize: 0x2C }
  - { offset: 0x80137, size: 0x8, addend: 0x0, symName: '__ZN4core3ptr130drop_in_place$LT$pyo3..err..PyErr..new$LT$zcash_uri..MemoTooLongError$C$alloc..string..String$GT$..$u7b$$u7b$closure$u7d$$u7d$$GT$17h39a478595c77e2baE', symObjAddr: 0xDF0, symBinAddr: 0x21800, symSize: 0x24 }
  - { offset: 0x80166, size: 0x8, addend: 0x0, symName: '__ZN4core3ptr132drop_in_place$LT$pyo3..err..PyErr..new$LT$zcash_uri..InvalidBase64Error$C$alloc..string..String$GT$..$u7b$$u7b$closure$u7d$$u7d$$GT$17h8ea9ec669dba74ebE', symObjAddr: 0xE14, symBinAddr: 0x21824, symSize: 0x24 }
  - { offset: 0x80195, size: 0x8, addend: 0x0, symName: '__ZN4core3ptr133drop_in_place$LT$pyo3..err..PyErr..new$LT$zcash_uri..InvalidAddressError$C$alloc..string..String$GT$..$u7b$$u7b$closure$u7d$$u7d$$GT$17h8204baad210a5771E', symObjAddr: 0xE38, symBinAddr: 0x21848, symSize: 0x24 }
  - { offset: 0x801C4, size: 0x8, addend: 0x0, symName: '__ZN4core3ptr133drop_in_place$LT$pyo3..err..PyErr..new$LT$zcash_uri..InvalidPaymentError$C$alloc..string..String$GT$..$u7b$$u7b$closure$u7d$$u7d$$GT$17h2029114ed6ae79a0E', symObjAddr: 0xE5C, symBinAddr: 0x2186C, symSize: 0x24 }
  - { offset: 0x801F3, size: 0x8, addend: 0x0, symName: '__ZN4core3ptr134drop_in_place$LT$pyo3..err..PyErr..new$LT$zcash_uri..TooManyPaymentsError$C$alloc..string..String$GT$..$u7b$$u7b$closure$u7d$$u7d$$GT$17h18cc5baeaf4f1354E', symObjAddr: 0xE80, symBinAddr: 0x21890, symSize: 0x24 }
  - { offset: 0x80222, size: 0x8, addend: 0x0, symName: '__ZN4core3ptr134drop_in_place$LT$pyo3..err..PyErr..new$LT$zcash_uri..TransparentMemoError$C$alloc..string..String$GT$..$u7b$$u7b$closure$u7d$$u7d$$GT$17hf86a83d6de2d01b6E', symObjAddr: 0xEA4, symBinAddr: 0x218B4, symSize: 0x24 }
  - { offset: 0x80251, size: 0x8, addend: 0x0, symName: '__ZN4core3ptr135drop_in_place$LT$pyo3..err..PyErr..new$LT$zcash_uri..RecipientMissingError$C$alloc..string..String$GT$..$u7b$$u7b$closure$u7d$$u7d$$GT$17h3916c1e0a5c21b68E', symObjAddr: 0xEC8, symBinAddr: 0x218D8, symSize: 0x24 }
  - { offset: 0x80280, size: 0x8, addend: 0x0, symName: '__ZN4core3ptr142drop_in_place$LT$core..iter..adapters..peekable..Peekable$LT$alloc..vec..into_iter..IntoIter$LT$$LP$usize$C$zcash_uri..Payment$RP$$GT$$GT$$GT$17he568597a446bbffeE', symObjAddr: 0xEEC, symBinAddr: 0x218FC, symSize: 0x5C }
  - { offset: 0x802AF, size: 0x8, addend: 0x0, symName: '__ZN4core3ptr142drop_in_place$LT$core..result..Result$LT$alloc..collections..btree..map..BTreeMap$LT$usize$C$zcash_uri..Payment$GT$$C$pyo3..err..PyErr$GT$$GT$17hc1d52ad8f444cf94E', symObjAddr: 0xF48, symBinAddr: 0x21958, symSize: 0x50 }
  - { offset: 0x802DE, size: 0x8, addend: 0x0, symName: '__ZN4core3ptr146drop_in_place$LT$core..iter..adapters..peekable..Peekable$LT$alloc..vec..into_iter..IntoIter$LT$$LP$usize$C$zcash_uri..PaymentData$RP$$GT$$GT$$GT$17hd6fd2344a7ab7be9E', symObjAddr: 0xF98, symBinAddr: 0x219A8, symSize: 0x5C }
  - { offset: 0x8030D, size: 0x8, addend: 0x0, symName: '__ZN4core3ptr151drop_in_place$LT$alloc..collections..btree..node..SplitResult$LT$usize$C$zcash_uri..PaymentData$C$alloc..collections..btree..node..marker..Leaf$GT$$GT$17h3d6d5d2b11a47672E', symObjAddr: 0xFF4, symBinAddr: 0x21A04, symSize: 0x24 }
  - { offset: 0x8033C, size: 0x8, addend: 0x0, symName: '__ZN4core3ptr155drop_in_place$LT$alloc..collections..btree..node..SplitResult$LT$usize$C$zcash_uri..PaymentData$C$alloc..collections..btree..node..marker..Internal$GT$$GT$17h5b7bb72326d4e642E', symObjAddr: 0x1018, symBinAddr: 0x21A28, symSize: 0x24 }
  - { offset: 0x8036B, size: 0x8, addend: 0x0, symName: '__ZN4core3ptr188drop_in_place$LT$$LT$alloc..vec..into_iter..IntoIter$LT$T$C$A$GT$$u20$as$u20$core..ops..drop..Drop$GT$..drop..DropGuard$LT$$LP$usize$C$zcash_uri..Payment$RP$$C$alloc..alloc..Global$GT$$GT$17h0a5bcaaeac6e9a34E', symObjAddr: 0x103C, symBinAddr: 0x21A4C, symSize: 0x24 }
  - { offset: 0x8039A, size: 0x8, addend: 0x0, symName: '__ZN4core3ptr192drop_in_place$LT$$LT$alloc..vec..into_iter..IntoIter$LT$T$C$A$GT$$u20$as$u20$core..ops..drop..Drop$GT$..drop..DropGuard$LT$$LP$usize$C$zcash_uri..PaymentData$RP$$C$alloc..alloc..Global$GT$$GT$17h9803a8ddbd33036fE', symObjAddr: 0x1060, symBinAddr: 0x21A70, symSize: 0x24 }
  - { offset: 0x803C9, size: 0x8, addend: 0x0, symName: '__ZN4core3ptr192drop_in_place$LT$alloc..collections..btree..dedup_sorted_iter..DedupSortedIter$LT$usize$C$zcash_uri..Payment$C$alloc..vec..into_iter..IntoIter$LT$$LP$usize$C$zcash_uri..Payment$RP$$GT$$GT$$GT$17hcb14b676512ff703E', symObjAddr: 0x1084, symBinAddr: 0x21A94, symSize: 0x24 }
  - { offset: 0x803F8, size: 0x8, addend: 0x0, symName: '__ZN4core3ptr193drop_in_place$LT$$LT$alloc..collections..btree..map..IntoIter$LT$K$C$V$C$A$GT$$u20$as$u20$core..ops..drop..Drop$GT$..drop..DropGuard$LT$usize$C$zcash_uri..Payment$C$alloc..alloc..Global$GT$$GT$17hc4a7fde296421743E', symObjAddr: 0x10A8, symBinAddr: 0x21AB8, symSize: 0x24 }
  - { offset: 0x80427, size: 0x8, addend: 0x0, symName: '__ZN4core3ptr197drop_in_place$LT$$LT$alloc..collections..btree..map..IntoIter$LT$K$C$V$C$A$GT$$u20$as$u20$core..ops..drop..Drop$GT$..drop..DropGuard$LT$usize$C$zcash_uri..PaymentData$C$alloc..alloc..Global$GT$$GT$17h80c3756dbac6634aE', symObjAddr: 0x10CC, symBinAddr: 0x21ADC, symSize: 0x24 }
  - { offset: 0x80456, size: 0x8, addend: 0x0, symName: '__ZN4core3ptr200drop_in_place$LT$alloc..collections..btree..dedup_sorted_iter..DedupSortedIter$LT$usize$C$zcash_uri..PaymentData$C$alloc..vec..into_iter..IntoIter$LT$$LP$usize$C$zcash_uri..PaymentData$RP$$GT$$GT$$GT$17h1676f3395347614fE', symObjAddr: 0x10F0, symBinAddr: 0x21B00, symSize: 0x24 }
  - { offset: 0x80485, size: 0x8, addend: 0x0, symName: '__ZN4core3ptr276drop_in_place$LT$alloc..collections..btree..node..Handle$LT$alloc..collections..btree..node..NodeRef$LT$alloc..collections..btree..node..marker..Dying$C$K$C$V$C$NodeType$GT$$C$alloc..collections..btree..node..marker..KV$GT$..drop_key_val..Dropper$LT$zcash_uri..Payment$GT$$GT$17h0dfdc0508e6e7cd5E', symObjAddr: 0x1114, symBinAddr: 0x21B24, symSize: 0x24 }
  - { offset: 0x804B4, size: 0x8, addend: 0x0, symName: '__ZN4core3ptr280drop_in_place$LT$alloc..collections..btree..node..Handle$LT$alloc..collections..btree..node..NodeRef$LT$alloc..collections..btree..node..marker..Dying$C$K$C$V$C$NodeType$GT$$C$alloc..collections..btree..node..marker..KV$GT$..drop_key_val..Dropper$LT$zcash_uri..PaymentData$GT$$GT$17hb69af5dfe95e9bb7E', symObjAddr: 0x1138, symBinAddr: 0x21B48, symSize: 0x24 }
  - { offset: 0x804E3, size: 0x8, addend: 0x0, symName: '__ZN4core3ptr39drop_in_place$LT$zcash_uri..Payment$GT$17h6bddf343330fab6fE', symObjAddr: 0x115C, symBinAddr: 0x21B6C, symSize: 0x24 }
  - { offset: 0x80512, size: 0x8, addend: 0x0, symName: '__ZN4core3ptr43drop_in_place$LT$zcash_uri..PaymentData$GT$17hc8f4196712343ddbE', symObjAddr: 0x1180, symBinAddr: 0x21B90, symSize: 0xC4 }
  - { offset: 0x80541, size: 0x8, addend: 0x0, symName: '__ZN4core3ptr50drop_in_place$LT$zcash_uri..TransactionRequest$GT$17h1ebb6cffdc9ccac7E', symObjAddr: 0x1244, symBinAddr: 0x21C54, symSize: 0x24 }
  - { offset: 0x80570, size: 0x8, addend: 0x0, symName: '__ZN4core3ptr55drop_in_place$LT$$LP$usize$C$zcash_uri..Payment$RP$$GT$17ha5231c091d0456dbE', symObjAddr: 0x128C, symBinAddr: 0x21C78, symSize: 0x24 }
  - { offset: 0x8059F, size: 0x8, addend: 0x0, symName: '__ZN4core3ptr57drop_in_place$LT$pyo3..types..list..BoundListIterator$GT$17h76e1498e5309f76cE', symObjAddr: 0x12B0, symBinAddr: 0x21C9C, symSize: 0x24 }
  - { offset: 0x805CE, size: 0x8, addend: 0x0, symName: '__ZN4core3ptr59drop_in_place$LT$$LP$usize$C$zcash_uri..PaymentData$RP$$GT$17hab0187da10326efeE', symObjAddr: 0x12D4, symBinAddr: 0x21CC0, symSize: 0x24 }
  - { offset: 0x805FD, size: 0x8, addend: 0x0, symName: '__ZN4core3ptr65drop_in_place$LT$$u5b$$LP$usize$C$zcash_uri..Payment$RP$$u5d$$GT$17h4fbc12bfad88033cE', symObjAddr: 0x131C, symBinAddr: 0x21CE4, symSize: 0xC4 }
  - { offset: 0x8062C, size: 0x8, addend: 0x0, symName: '__ZN4core3ptr65drop_in_place$LT$pyo3..instance..Py$LT$zcash_uri..Payment$GT$$GT$17h32cfc19f2e4f1055E', symObjAddr: 0x143C, symBinAddr: 0x21DA8, symSize: 0x2C }
  - { offset: 0x8065B, size: 0x8, addend: 0x0, symName: '__ZN4core3ptr66drop_in_place$LT$pyo3..pycell..PyRef$LT$zcash_uri..Payment$GT$$GT$17h0aad33b7b2035f61E', symObjAddr: 0x1468, symBinAddr: 0x21DD4, symSize: 0x5C }
  - { offset: 0x8068A, size: 0x8, addend: 0x0, symName: '__ZN4core3ptr68drop_in_place$LT$pyo3..instance..Bound$LT$zcash_uri..Payment$GT$$GT$17h940b1d1e951d7670E', symObjAddr: 0x14C4, symBinAddr: 0x21E30, symSize: 0x24 }
  - { offset: 0x806B9, size: 0x8, addend: 0x0, symName: '__ZN4core3ptr69drop_in_place$LT$$u5b$$LP$usize$C$zcash_uri..PaymentData$RP$$u5d$$GT$17hb20fffadb0df3b5cE', symObjAddr: 0x14E8, symBinAddr: 0x21E54, symSize: 0xC4 }
  - { offset: 0x806E8, size: 0x8, addend: 0x0, symName: '__ZN4core3ptr69drop_in_place$LT$alloc..borrow..Cow$LT$core..ffi..c_str..CStr$GT$$GT$17h3a0a94fda4ae4dcfE', symObjAddr: 0x15AC, symBinAddr: 0x21F18, symSize: 0x40 }
  - { offset: 0x80717, size: 0x8, addend: 0x0, symName: '__ZN4core3ptr69drop_in_place$LT$core..cell..UnsafeCell$LT$zcash_uri..Payment$GT$$GT$17h16efcb07da233a25E', symObjAddr: 0x15EC, symBinAddr: 0x21F58, symSize: 0x24 }
  - { offset: 0x80746, size: 0x8, addend: 0x0, symName: '__ZN4core3ptr71drop_in_place$LT$core..option..Option$LT$zcash_uri..PaymentData$GT$$GT$17ha3f6951af848ceedE', symObjAddr: 0x1610, symBinAddr: 0x21F7C, symSize: 0x44 }
  - { offset: 0x80775, size: 0x8, addend: 0x0, symName: '__ZN4core3ptr73drop_in_place$LT$core..result..Result$LT$usize$C$pyo3..err..PyErr$GT$$GT$17h2a3a7f8b024f0621E', symObjAddr: 0x1678, symBinAddr: 0x21FC0, symSize: 0x40 }
  - { offset: 0x807A4, size: 0x8, addend: 0x0, symName: '__ZN4core3ptr74drop_in_place$LT$core..option..Option$LT$alloc..vec..Vec$LT$u8$GT$$GT$$GT$17h0a42cd3c5ae72658E', symObjAddr: 0x16B8, symBinAddr: 0x22000, symSize: 0x48 }
  - { offset: 0x807D3, size: 0x8, addend: 0x0, symName: '__ZN4core3ptr76drop_in_place$LT$pyo3..instance..Py$LT$zcash_uri..TransactionRequest$GT$$GT$17h5c8ed33fbe46f5e7E', symObjAddr: 0x1700, symBinAddr: 0x22048, symSize: 0x2C }
  - { offset: 0x80802, size: 0x8, addend: 0x0, symName: '__ZN4core3ptr77drop_in_place$LT$pyo3..pycell..PyRef$LT$zcash_uri..TransactionRequest$GT$$GT$17h8ed14458dc69bb2bE', symObjAddr: 0x172C, symBinAddr: 0x22074, symSize: 0x5C }
  - { offset: 0x80831, size: 0x8, addend: 0x0, symName: '__ZN4core3ptr78drop_in_place$LT$alloc..vec..Vec$LT$$LP$usize$C$zcash_uri..Payment$RP$$GT$$GT$17hd9a6d76d33ef43d0E', symObjAddr: 0x1788, symBinAddr: 0x220D0, symSize: 0x5C }
  - { offset: 0x80860, size: 0x8, addend: 0x0, symName: '__ZN4core3ptr79drop_in_place$LT$pyo3..instance..Bound$LT$zcash_uri..TransactionRequest$GT$$GT$17h4646ef3ef5c76303E', symObjAddr: 0x17E4, symBinAddr: 0x2212C, symSize: 0x24 }
  - { offset: 0x8088F, size: 0x8, addend: 0x0, symName: '__ZN4core3ptr80drop_in_place$LT$core..cell..UnsafeCell$LT$zcash_uri..TransactionRequest$GT$$GT$17ha31cfa75dfee3d2aE', symObjAddr: 0x1808, symBinAddr: 0x22150, symSize: 0x24 }
  - { offset: 0x808BE, size: 0x8, addend: 0x0, symName: '__ZN4core3ptr80drop_in_place$LT$core..ops..control_flow..ControlFlow$LT$zip321..Payment$GT$$GT$17h1fa13c326727cc4dE', symObjAddr: 0x182C, symBinAddr: 0x22174, symSize: 0x48 }
  - { offset: 0x808ED, size: 0x8, addend: 0x0, symName: '__ZN4core3ptr82drop_in_place$LT$alloc..vec..Vec$LT$$LP$usize$C$zcash_uri..PaymentData$RP$$GT$$GT$17h6d866aa2425f575cE', symObjAddr: 0x1904, symBinAddr: 0x221BC, symSize: 0x5C }
  - { offset: 0x8091C, size: 0x8, addend: 0x0, symName: '__ZN4core3ptr83drop_in_place$LT$core..option..Option$LT$$LP$usize$C$zcash_uri..Payment$RP$$GT$$GT$17hbfb8246643ee464cE', symObjAddr: 0x1960, symBinAddr: 0x22218, symSize: 0x44 }
  - { offset: 0x8094B, size: 0x8, addend: 0x0, symName: '__ZN4core3ptr85drop_in_place$LT$alloc..raw_vec..RawVec$LT$$LP$usize$C$zcash_uri..Payment$RP$$GT$$GT$17hcfaef104d4a66a8eE', symObjAddr: 0x19A4, symBinAddr: 0x2225C, symSize: 0x24 }
  - { offset: 0x8097A, size: 0x8, addend: 0x0, symName: '__ZN4core3ptr85drop_in_place$LT$pyo3..pyclass_init..PyClassInitializer$LT$zcash_uri..Payment$GT$$GT$17h6861f26247e2e10aE', symObjAddr: 0x19C8, symBinAddr: 0x22280, symSize: 0x24 }
  - { offset: 0x809A9, size: 0x8, addend: 0x0, symName: '__ZN4core3ptr86drop_in_place$LT$core..result..Result$LT$zcash_uri..Payment$C$pyo3..err..PyErr$GT$$GT$17h8d967cd71d72db94E', symObjAddr: 0x19EC, symBinAddr: 0x222A4, symSize: 0x58 }
  - { offset: 0x809D8, size: 0x8, addend: 0x0, symName: '__ZN4core3ptr87drop_in_place$LT$core..option..Option$LT$$LP$usize$C$zcash_uri..PaymentData$RP$$GT$$GT$17h51b0c2d50258c073E', symObjAddr: 0x1A44, symBinAddr: 0x222FC, symSize: 0x44 }
  - { offset: 0x80A07, size: 0x8, addend: 0x0, symName: '__ZN4core3ptr89drop_in_place$LT$alloc..raw_vec..RawVec$LT$$LP$usize$C$zcash_uri..PaymentData$RP$$GT$$GT$17hb76efebe94e86513E', symObjAddr: 0x1A88, symBinAddr: 0x22340, symSize: 0x24 }
  - { offset: 0x80A36, size: 0x8, addend: 0x0, symName: '__ZN4core3ptr89drop_in_place$LT$core..result..Result$LT$alloc..string..String$C$pyo3..err..PyErr$GT$$GT$17h84ec28b72d12dd13E', symObjAddr: 0x1AAC, symBinAddr: 0x22364, symSize: 0x50 }
  - { offset: 0x80A65, size: 0x8, addend: 0x0, symName: '__ZN4core3ptr89drop_in_place$LT$pyo3..pyclass_init..PyClassInitializerImpl$LT$zcash_uri..Payment$GT$$GT$17h377bbbd64ca0d964E', symObjAddr: 0x1AFC, symBinAddr: 0x223B4, symSize: 0x54 }
  - { offset: 0x80A94, size: 0x8, addend: 0x0, symName: '__ZN4core3ptr90drop_in_place$LT$core..result..Result$LT$$RF$zcash_uri..Payment$C$pyo3..err..PyErr$GT$$GT$17h4052db131216654dE', symObjAddr: 0x1B50, symBinAddr: 0x22408, symSize: 0x40 }
  - { offset: 0x80AC3, size: 0x8, addend: 0x0, symName: '__ZN4core3ptr93drop_in_place$LT$core..result..Result$LT$alloc..vec..Vec$LT$u8$GT$$C$pyo3..err..PyErr$GT$$GT$17h922bfb173400be0fE', symObjAddr: 0x1B90, symBinAddr: 0x22448, symSize: 0x50 }
  - { offset: 0x80AF2, size: 0x8, addend: 0x0, symName: '__ZN4core3ptr93drop_in_place$LT$core..result..Result$LT$core..convert..Infallible$C$pyo3..err..PyErr$GT$$GT$17hbfd7f7d761615bceE', symObjAddr: 0x1BE0, symBinAddr: 0x22498, symSize: 0x30 }
  - { offset: 0x80B21, size: 0x8, addend: 0x0, symName: '__ZN4core3ptr94drop_in_place$LT$alloc..vec..into_iter..IntoIter$LT$$LP$usize$C$zcash_uri..Payment$RP$$GT$$GT$17hbbbca12b9e8fd57cE', symObjAddr: 0x1C10, symBinAddr: 0x224C8, symSize: 0x24 }
  - { offset: 0x80B50, size: 0x8, addend: 0x0, symName: '__ZN4core3ptr94drop_in_place$LT$core..option..Option$LT$pyo3..pycell..PyRef$LT$zcash_uri..Payment$GT$$GT$$GT$17hd00b2e550143ba6eE', symObjAddr: 0x1C34, symBinAddr: 0x224EC, symSize: 0x44 }
  - { offset: 0x80B7F, size: 0x8, addend: 0x0, symName: '__ZN4core3ptr95drop_in_place$LT$alloc..collections..btree..map..BTreeMap$LT$usize$C$zcash_uri..Payment$GT$$GT$17h3a90b0ce350f8155E', symObjAddr: 0x1C78, symBinAddr: 0x22530, symSize: 0x24 }
  - { offset: 0x80BAE, size: 0x8, addend: 0x0, symName: '__ZN4core3ptr95drop_in_place$LT$alloc..collections..btree..map..IntoIter$LT$usize$C$zcash_uri..Payment$GT$$GT$17h121efa9e5b8e27d1E', symObjAddr: 0x1C9C, symBinAddr: 0x22554, symSize: 0x24 }
  - { offset: 0x80BDD, size: 0x8, addend: 0x0, symName: '__ZN4core3ptr96drop_in_place$LT$pyo3..pyclass_init..PyClassInitializer$LT$zcash_uri..TransactionRequest$GT$$GT$17h8e01a2c97bdc2e66E', symObjAddr: 0x1CE4, symBinAddr: 0x22578, symSize: 0x24 }
  - { offset: 0x80C0C, size: 0x8, addend: 0x0, symName: '__ZN4core3ptr97drop_in_place$LT$core..option..Option$LT$alloc..borrow..Cow$LT$core..ffi..c_str..CStr$GT$$GT$$GT$17hf29f7c3ab7a9e827E', symObjAddr: 0x1D08, symBinAddr: 0x2259C, symSize: 0x44 }
  - { offset: 0x80C3B, size: 0x8, addend: 0x0, symName: '__ZN4core3ptr97drop_in_place$LT$core..result..Result$LT$zcash_uri..TransactionRequest$C$pyo3..err..PyErr$GT$$GT$17ha4474383d1d4148aE', symObjAddr: 0x1D4C, symBinAddr: 0x225E0, symSize: 0x50 }
  - { offset: 0x80C6A, size: 0x8, addend: 0x0, symName: '__ZN4core3ptr98drop_in_place$LT$alloc..vec..into_iter..IntoIter$LT$$LP$usize$C$zcash_uri..PaymentData$RP$$GT$$GT$17hf4c92b7bf875139eE', symObjAddr: 0x1D9C, symBinAddr: 0x22630, symSize: 0x24 }
  - { offset: 0x80C99, size: 0x8, addend: 0x0, symName: '__ZN4core3ptr99drop_in_place$LT$alloc..collections..btree..map..BTreeMap$LT$usize$C$zcash_uri..PaymentData$GT$$GT$17h367ccd0bb7a73446E', symObjAddr: 0x1DC0, symBinAddr: 0x22654, symSize: 0x24 }
  - { offset: 0x80CC8, size: 0x8, addend: 0x0, symName: '__ZN4core3ptr99drop_in_place$LT$alloc..collections..btree..map..IntoIter$LT$usize$C$zcash_uri..PaymentData$GT$$GT$17h6df2d59085d57ff1E', symObjAddr: 0x1DE4, symBinAddr: 0x22678, symSize: 0x24 }
  - { offset: 0x80CF7, size: 0x8, addend: 0x0, symName: '__ZN4core3ptr99drop_in_place$LT$core..result..Result$LT$core..option..Option$LT$f64$GT$$C$pyo3..err..PyErr$GT$$GT$17ha4aa6b895f9c3d8cE', symObjAddr: 0x1E08, symBinAddr: 0x2269C, symSize: 0x40 }
  - { offset: 0x80D26, size: 0x8, addend: 0x0, symName: '__ZN4core3ptr99drop_in_place$LT$core..result..Result$LT$core..option..Option$LT$u64$GT$$C$pyo3..err..PyErr$GT$$GT$17h55fa4e71776462c6E', symObjAddr: 0x1E48, symBinAddr: 0x226DC, symSize: 0x40 }
  - { offset: 0x8292E, size: 0x8, addend: 0x0, symName: __ZN4core3ops8function5FnMut8call_mut17hbe9e547bad37ff26E, symObjAddr: 0x218, symBinAddr: 0x20DB0, symSize: 0x48 }
  - { offset: 0x82978, size: 0x8, addend: 0x0, symName: '__ZN4core3ops8function6FnOnce40call_once$u7b$$u7b$vtable.shim$u7d$$u7d$17h14e9b834c95bccbcE', symObjAddr: 0x260, symBinAddr: 0x20DF8, symSize: 0x20 }
  - { offset: 0x829BC, size: 0x8, addend: 0x0, symName: '__ZN4core3ops8function6FnOnce40call_once$u7b$$u7b$vtable.shim$u7d$$u7d$17h16fe9094dff39f5fE', symObjAddr: 0x280, symBinAddr: 0x20E18, symSize: 0x24 }
  - { offset: 0x82A00, size: 0x8, addend: 0x0, symName: '__ZN4core3ops8function6FnOnce40call_once$u7b$$u7b$vtable.shim$u7d$$u7d$17h2a018b5586ec0d2eE', symObjAddr: 0x2A4, symBinAddr: 0x20E3C, symSize: 0x24 }
  - { offset: 0x82A44, size: 0x8, addend: 0x0, symName: '__ZN4core3ops8function6FnOnce40call_once$u7b$$u7b$vtable.shim$u7d$$u7d$17h52dad8a14ca9768bE', symObjAddr: 0x2C8, symBinAddr: 0x20E60, symSize: 0x24 }
  - { offset: 0x82A88, size: 0x8, addend: 0x0, symName: '__ZN4core3ops8function6FnOnce40call_once$u7b$$u7b$vtable.shim$u7d$$u7d$17h746e68fc39de3a96E', symObjAddr: 0x2EC, symBinAddr: 0x20E84, symSize: 0x24 }
  - { offset: 0x82ACC, size: 0x8, addend: 0x0, symName: '__ZN4core3ops8function6FnOnce40call_once$u7b$$u7b$vtable.shim$u7d$$u7d$17h7d31f69a7187a3b4E', symObjAddr: 0x310, symBinAddr: 0x20EA8, symSize: 0x24 }
  - { offset: 0x82B10, size: 0x8, addend: 0x0, symName: '__ZN4core3ops8function6FnOnce40call_once$u7b$$u7b$vtable.shim$u7d$$u7d$17hbd2eaaa04571220bE', symObjAddr: 0x334, symBinAddr: 0x20ECC, symSize: 0x24 }
  - { offset: 0x82B54, size: 0x8, addend: 0x0, symName: '__ZN4core3ops8function6FnOnce40call_once$u7b$$u7b$vtable.shim$u7d$$u7d$17hc28902c924f00e38E', symObjAddr: 0x358, symBinAddr: 0x20EF0, symSize: 0x24 }
  - { offset: 0x82B98, size: 0x8, addend: 0x0, symName: '__ZN4core3ops8function6FnOnce40call_once$u7b$$u7b$vtable.shim$u7d$$u7d$17hcb2fafc7edfe03e2E', symObjAddr: 0x37C, symBinAddr: 0x20F14, symSize: 0x30 }
  - { offset: 0x82BD8, size: 0x8, addend: 0x0, symName: '__ZN4core3ops8function6FnOnce40call_once$u7b$$u7b$vtable.shim$u7d$$u7d$17hecf66351cc03638cE', symObjAddr: 0x3AC, symBinAddr: 0x20F44, symSize: 0x24 }
  - { offset: 0x82C1C, size: 0x8, addend: 0x0, symName: '__ZN4core3ops8function6FnOnce40call_once$u7b$$u7b$vtable.shim$u7d$$u7d$17hf07a7de15593f28dE', symObjAddr: 0x3D0, symBinAddr: 0x20F68, symSize: 0x30 }
  - { offset: 0x82C60, size: 0x8, addend: 0x0, symName: '__ZN4core3ops8function6FnOnce40call_once$u7b$$u7b$vtable.shim$u7d$$u7d$17hfabd43cfb7f0fbe8E', symObjAddr: 0x400, symBinAddr: 0x20F98, symSize: 0x30 }
  - { offset: 0x82CA4, size: 0x8, addend: 0x0, symName: __ZN4core3ops8function6FnOnce9call_once17h2178886fe88323c5E, symObjAddr: 0x430, symBinAddr: 0x20FC8, symSize: 0x3C }
  - { offset: 0x82CE8, size: 0x8, addend: 0x0, symName: __ZN4core3ops8function6FnOnce9call_once17h2ff128264447bcf4E, symObjAddr: 0x490, symBinAddr: 0x21004, symSize: 0x24 }
  - { offset: 0x82D2C, size: 0x8, addend: 0x0, symName: __ZN4core3ops8function6FnOnce9call_once17h376671fe045ce68fE, symObjAddr: 0x4B4, symBinAddr: 0x21028, symSize: 0x24 }
  - { offset: 0x82D70, size: 0x8, addend: 0x0, symName: __ZN4core3ops8function6FnOnce9call_once17h3cbd2456e8021114E, symObjAddr: 0x4D8, symBinAddr: 0x2104C, symSize: 0x24 }
  - { offset: 0x82DB4, size: 0x8, addend: 0x0, symName: __ZN4core3ops8function6FnOnce9call_once17h47dc848c460df6caE, symObjAddr: 0x4FC, symBinAddr: 0x21070, symSize: 0x3C }
  - { offset: 0x82DF8, size: 0x8, addend: 0x0, symName: __ZN4core3ops8function6FnOnce9call_once17h4c4607a9775a7db3E, symObjAddr: 0x538, symBinAddr: 0x210AC, symSize: 0x24 }
  - { offset: 0x82E3C, size: 0x8, addend: 0x0, symName: __ZN4core3ops8function6FnOnce9call_once17h7bd16f99ffb95060E, symObjAddr: 0x55C, symBinAddr: 0x210D0, symSize: 0x40 }
  - { offset: 0x82E80, size: 0x8, addend: 0x0, symName: __ZN4core3ops8function6FnOnce9call_once17h7d646bcc9e1341f2E, symObjAddr: 0x59C, symBinAddr: 0x21110, symSize: 0x44 }
  - { offset: 0x82EC4, size: 0x8, addend: 0x0, symName: __ZN4core3ops8function6FnOnce9call_once17h83224b427df4bfdbE, symObjAddr: 0x5E0, symBinAddr: 0x21154, symSize: 0x24 }
  - { offset: 0x82F08, size: 0x8, addend: 0x0, symName: __ZN4core3ops8function6FnOnce9call_once17h89a4487bdb61fd1eE, symObjAddr: 0x604, symBinAddr: 0x21178, symSize: 0x34 }
  - { offset: 0x82F4C, size: 0x8, addend: 0x0, symName: __ZN4core3ops8function6FnOnce9call_once17h89c1b16074f5dab1E, symObjAddr: 0x638, symBinAddr: 0x211AC, symSize: 0x54 }
  - { offset: 0x82F90, size: 0x8, addend: 0x0, symName: __ZN4core3ops8function6FnOnce9call_once17h8a91098a7d5f1ff5E, symObjAddr: 0x68C, symBinAddr: 0x21200, symSize: 0x48 }
  - { offset: 0x82FD4, size: 0x8, addend: 0x0, symName: __ZN4core3ops8function6FnOnce9call_once17h8c36b119e09b1b81E, symObjAddr: 0x6D4, symBinAddr: 0x21248, symSize: 0x24 }
  - { offset: 0x83018, size: 0x8, addend: 0x0, symName: __ZN4core3ops8function6FnOnce9call_once17h924878049c66c479E, symObjAddr: 0x6F8, symBinAddr: 0x2126C, symSize: 0x24 }
  - { offset: 0x8305C, size: 0x8, addend: 0x0, symName: __ZN4core3ops8function6FnOnce9call_once17h956329fa2d86b082E, symObjAddr: 0x71C, symBinAddr: 0x21290, symSize: 0x3C }
  - { offset: 0x830A0, size: 0x8, addend: 0x0, symName: __ZN4core3ops8function6FnOnce9call_once17ha408390aa135b54dE, symObjAddr: 0x758, symBinAddr: 0x212CC, symSize: 0x24 }
  - { offset: 0x830E4, size: 0x8, addend: 0x0, symName: __ZN4core3ops8function6FnOnce9call_once17ha90bb55cd7b6bf8fE, symObjAddr: 0x77C, symBinAddr: 0x212F0, symSize: 0x3C }
  - { offset: 0x83128, size: 0x8, addend: 0x0, symName: __ZN4core3ops8function6FnOnce9call_once17ha9dac8f6e9c0799cE, symObjAddr: 0x7B8, symBinAddr: 0x2132C, symSize: 0x24 }
  - { offset: 0x8316C, size: 0x8, addend: 0x0, symName: __ZN4core3ops8function6FnOnce9call_once17hac02feea946f47c5E, symObjAddr: 0x7DC, symBinAddr: 0x21350, symSize: 0x24 }
  - { offset: 0x831B0, size: 0x8, addend: 0x0, symName: __ZN4core3ops8function6FnOnce9call_once17haca3e3ea35ce883aE, symObjAddr: 0x800, symBinAddr: 0x21374, symSize: 0x24 }
  - { offset: 0x831F4, size: 0x8, addend: 0x0, symName: __ZN4core3ops8function6FnOnce9call_once17hb197ca3160527834E, symObjAddr: 0x824, symBinAddr: 0x21398, symSize: 0x24 }
  - { offset: 0x83238, size: 0x8, addend: 0x0, symName: __ZN4core3ops8function6FnOnce9call_once17hb282484cb44c391cE, symObjAddr: 0x848, symBinAddr: 0x213BC, symSize: 0x4C }
  - { offset: 0x8327C, size: 0x8, addend: 0x0, symName: __ZN4core3ops8function6FnOnce9call_once17hbdb5ac8e7b4f4fdcE, symObjAddr: 0x894, symBinAddr: 0x21408, symSize: 0x4C }
  - { offset: 0x832BC, size: 0x8, addend: 0x0, symName: __ZN4core3ops8function6FnOnce9call_once17hc440ed4120515927E, symObjAddr: 0x8E0, symBinAddr: 0x21454, symSize: 0x24 }
  - { offset: 0x83300, size: 0x8, addend: 0x0, symName: __ZN4core3ops8function6FnOnce9call_once17hdd17880eae871cc8E, symObjAddr: 0x904, symBinAddr: 0x21478, symSize: 0x24 }
  - { offset: 0x83344, size: 0x8, addend: 0x0, symName: __ZN4core3ops8function6FnOnce9call_once17hde58b8519702e741E, symObjAddr: 0x928, symBinAddr: 0x2149C, symSize: 0x24 }
  - { offset: 0x83388, size: 0x8, addend: 0x0, symName: __ZN4core3ops8function6FnOnce9call_once17hf3bce29c17e05b68E, symObjAddr: 0x94C, symBinAddr: 0x214C0, symSize: 0x2C }
  - { offset: 0x83651, size: 0x8, addend: 0x0, symName: '__ZN95_$LT$core..slice..sort..stable..merge..MergeState$LT$T$GT$$u20$as$u20$core..ops..drop..Drop$GT$4drop17h5f732bd79027c794E', symObjAddr: 0x2704, symBinAddr: 0x22DC4, symSize: 0xF4 }
  - { offset: 0x83747, size: 0x8, addend: 0x0, symName: '__ZN95_$LT$core..slice..sort..stable..merge..MergeState$LT$T$GT$$u20$as$u20$core..ops..drop..Drop$GT$4drop17h74538c5ce1c16b33E', symObjAddr: 0x27F8, symBinAddr: 0x22EB8, symSize: 0xF4 }
  - { offset: 0x838BB, size: 0x8, addend: 0x0, symName: '__ZN99_$LT$core..slice..sort..shared..smallsort..CopyOnDrop$LT$T$GT$$u20$as$u20$core..ops..drop..Drop$GT$4drop17h2389b00103cca420E', symObjAddr: 0x2AF4, symBinAddr: 0x2317C, symSize: 0x8C }
  - { offset: 0x8391C, size: 0x8, addend: 0x0, symName: '__ZN99_$LT$core..slice..sort..shared..smallsort..CopyOnDrop$LT$T$GT$$u20$as$u20$core..ops..drop..Drop$GT$4drop17ha094601de1d9dd6bE', symObjAddr: 0x2B80, symBinAddr: 0x23208, symSize: 0x8C }
  - { offset: 0x84B3B, size: 0x8, addend: 0x0, symName: '__ZN157_$LT$$LT$alloc..vec..into_iter..IntoIter$LT$T$C$A$GT$$u20$as$u20$core..ops..drop..Drop$GT$..drop..DropGuard$LT$T$C$A$GT$$u20$as$u20$core..ops..drop..Drop$GT$4drop17h79b83a514070ce98E', symObjAddr: 0x0, symBinAddr: 0x20B98, symSize: 0x7C }
  - { offset: 0x84C50, size: 0x8, addend: 0x0, symName: '__ZN157_$LT$$LT$alloc..vec..into_iter..IntoIter$LT$T$C$A$GT$$u20$as$u20$core..ops..drop..Drop$GT$..drop..DropGuard$LT$T$C$A$GT$$u20$as$u20$core..ops..drop..Drop$GT$4drop17hd2066ad433021099E', symObjAddr: 0x7C, symBinAddr: 0x20C14, symSize: 0x7C }
  - { offset: 0x84DB5, size: 0x8, addend: 0x0, symName: '__ZN86_$LT$alloc..vec..into_iter..IntoIter$LT$T$C$A$GT$$u20$as$u20$core..ops..drop..Drop$GT$4drop17hb048d885f1212df0E', symObjAddr: 0x25D4, symBinAddr: 0x22C94, symSize: 0x98 }
  - { offset: 0x84E4F, size: 0x8, addend: 0x0, symName: '__ZN86_$LT$alloc..vec..into_iter..IntoIter$LT$T$C$A$GT$$u20$as$u20$core..ops..drop..Drop$GT$4drop17he52f18e4568b14cbE', symObjAddr: 0x266C, symBinAddr: 0x22D2C, symSize: 0x98 }
  - { offset: 0x8505F, size: 0x8, addend: 0x0, symName: '__ZN70_$LT$alloc..vec..Vec$LT$T$C$A$GT$$u20$as$u20$core..ops..drop..Drop$GT$4drop17h48ced64bb70bf256E', symObjAddr: 0x1ED8, symBinAddr: 0x2276C, symSize: 0x38 }
  - { offset: 0x8510F, size: 0x8, addend: 0x0, symName: '__ZN70_$LT$alloc..vec..Vec$LT$T$C$A$GT$$u20$as$u20$core..ops..drop..Drop$GT$4drop17hc3164927ed48cd72E', symObjAddr: 0x1F10, symBinAddr: 0x227A4, symSize: 0x38 }
  - { offset: 0x85557, size: 0x8, addend: 0x0, symName: '__ZN77_$LT$alloc..raw_vec..RawVec$LT$T$C$A$GT$$u20$as$u20$core..ops..drop..Drop$GT$4drop17hc02f94a5d093e333E', symObjAddr: 0x253C, symBinAddr: 0x22C2C, symSize: 0x34 }
  - { offset: 0x85593, size: 0x8, addend: 0x0, symName: '__ZN77_$LT$alloc..raw_vec..RawVec$LT$T$C$A$GT$$u20$as$u20$core..ops..drop..Drop$GT$4drop17hfc228c415fdb0586E', symObjAddr: 0x25A0, symBinAddr: 0x22C60, symSize: 0x34 }
  - { offset: 0x85655, size: 0x8, addend: 0x0, symName: '__ZN174_$LT$$LT$alloc..collections..btree..map..IntoIter$LT$K$C$V$C$A$GT$$u20$as$u20$core..ops..drop..Drop$GT$..drop..DropGuard$LT$K$C$V$C$A$GT$$u20$as$u20$core..ops..drop..Drop$GT$4drop17h41f6ec12bea79ebcE', symObjAddr: 0xF8, symBinAddr: 0x20C90, symSize: 0x64 }
  - { offset: 0x856B8, size: 0x8, addend: 0x0, symName: '__ZN174_$LT$$LT$alloc..collections..btree..map..IntoIter$LT$K$C$V$C$A$GT$$u20$as$u20$core..ops..drop..Drop$GT$..drop..DropGuard$LT$K$C$V$C$A$GT$$u20$as$u20$core..ops..drop..Drop$GT$4drop17heb12fac68f8fbeecE', symObjAddr: 0x15C, symBinAddr: 0x20CF4, symSize: 0x64 }
  - { offset: 0x8577D, size: 0x8, addend: 0x0, symName: '__ZN99_$LT$alloc..collections..btree..map..IntoIter$LT$K$C$V$C$A$GT$$u20$as$u20$core..ops..drop..Drop$GT$4drop17h8b9111cb03b3c527E', symObjAddr: 0x29BC, symBinAddr: 0x23044, symSize: 0x9C }
  - { offset: 0x857EE, size: 0x8, addend: 0x0, symName: '__ZN99_$LT$alloc..collections..btree..map..IntoIter$LT$K$C$V$C$A$GT$$u20$as$u20$core..ops..drop..Drop$GT$4drop17he7d9512b356a8e5bE', symObjAddr: 0x2A58, symBinAddr: 0x230E0, symSize: 0x9C }
  - { offset: 0x85901, size: 0x8, addend: 0x0, symName: '__ZN99_$LT$alloc..collections..btree..map..BTreeMap$LT$K$C$V$C$A$GT$$u20$as$u20$core..ops..drop..Drop$GT$4drop17h7885a9af98da217eE', symObjAddr: 0x2924, symBinAddr: 0x22FAC, symSize: 0x4C }
  - { offset: 0x8597E, size: 0x8, addend: 0x0, symName: '__ZN99_$LT$alloc..collections..btree..map..BTreeMap$LT$K$C$V$C$A$GT$$u20$as$u20$core..ops..drop..Drop$GT$4drop17hc9ecbe39be10f2f2E', symObjAddr: 0x2970, symBinAddr: 0x22FF8, symSize: 0x4C }
  - { offset: 0x85AAD, size: 0x8, addend: 0x0, symName: '__ZN280_$LT$alloc..collections..btree..node..Handle$LT$alloc..collections..btree..node..NodeRef$LT$alloc..collections..btree..node..marker..Dying$C$K$C$V$C$NodeType$GT$$C$alloc..collections..btree..node..marker..KV$GT$..drop_key_val..Dropper$LT$T$GT$$u20$as$u20$core..ops..drop..Drop$GT$4drop17h41ec499b2c112c6dE', symObjAddr: 0x1C0, symBinAddr: 0x20D58, symSize: 0x2C }
  - { offset: 0x85AFE, size: 0x8, addend: 0x0, symName: '__ZN280_$LT$alloc..collections..btree..node..Handle$LT$alloc..collections..btree..node..NodeRef$LT$alloc..collections..btree..node..marker..Dying$C$K$C$V$C$NodeType$GT$$C$alloc..collections..btree..node..marker..KV$GT$..drop_key_val..Dropper$LT$T$GT$$u20$as$u20$core..ops..drop..Drop$GT$4drop17hb17e891ef0a9f672E', symObjAddr: 0x1EC, symBinAddr: 0x20D84, symSize: 0x2C }
  - { offset: 0x863DA, size: 0x8, addend: 0x0, symName: '__ZN72_$LT$alloc..boxed..Box$LT$T$C$A$GT$$u20$as$u20$core..ops..drop..Drop$GT$4drop17h43604edbe6e95f8eE', symObjAddr: 0x1FC4, symBinAddr: 0x22834, symSize: 0xB8 }
  - { offset: 0x86515, size: 0x8, addend: 0x0, symName: '__ZN72_$LT$alloc..boxed..Box$LT$T$C$A$GT$$u20$as$u20$core..ops..drop..Drop$GT$4drop17hcdd2f8a426f08e2eE', symObjAddr: 0x2134, symBinAddr: 0x228EC, symSize: 0xB8 }
  - { offset: 0x8692D, size: 0x8, addend: 0x0, symName: '__ZN69_$LT$pyo3..instance..Py$LT$T$GT$$u20$as$u20$core..ops..drop..Drop$GT$4drop17h319e2044e324fbcbE', symObjAddr: 0x1E88, symBinAddr: 0x2271C, symSize: 0x28 }
  - { offset: 0x86960, size: 0x8, addend: 0x0, symName: '__ZN69_$LT$pyo3..instance..Py$LT$T$GT$$u20$as$u20$core..ops..drop..Drop$GT$4drop17hf59b9bf6910c1b4aE', symObjAddr: 0x1EB0, symBinAddr: 0x22744, symSize: 0x28 }
  - { offset: 0x86999, size: 0x8, addend: 0x0, symName: '__ZN72_$LT$pyo3..instance..Bound$LT$T$GT$$u20$as$u20$core..ops..drop..Drop$GT$4drop17h0e4297128da2e75bE', symObjAddr: 0x21EC, symBinAddr: 0x229A4, symSize: 0x144 }
  - { offset: 0x869EA, size: 0x8, addend: 0x0, symName: '__ZN72_$LT$pyo3..instance..Bound$LT$T$GT$$u20$as$u20$core..ops..drop..Drop$GT$4drop17h11f4e975f0f7ad45E', symObjAddr: 0x2330, symBinAddr: 0x22AE8, symSize: 0x144 }
  - { offset: 0x86DD1, size: 0x8, addend: 0x0, symName: '__ZN70_$LT$pyo3..pycell..PyRef$LT$T$GT$$u20$as$u20$core..ops..drop..Drop$GT$4drop17hba3b40a447d650b8E', symObjAddr: 0x1F6C, symBinAddr: 0x227DC, symSize: 0x2C }
  - { offset: 0x86E04, size: 0x8, addend: 0x0, symName: '__ZN70_$LT$pyo3..pycell..PyRef$LT$T$GT$$u20$as$u20$core..ops..drop..Drop$GT$4drop17hedfc70980fd7b50aE', symObjAddr: 0x1F98, symBinAddr: 0x22808, symSize: 0x2C }
  - { offset: 0x88FC8, size: 0x8, addend: 0x0, symName: __ZN5alloc11collections5btree3mem7replace17h2d49878ba38b896bE, symObjAddr: 0x0, symBinAddr: 0x23294, symSize: 0xCC }
  - { offset: 0x89BF3, size: 0x8, addend: 0x0, symName: __ZN5alloc11collections5btree3mem7replace17h2d49878ba38b896bE, symObjAddr: 0x0, symBinAddr: 0x23294, symSize: 0xCC }
  - { offset: 0x89CE3, size: 0x8, addend: 0x0, symName: __ZN5alloc11collections5btree3mem7replace17h3e54ed34b39fad4cE, symObjAddr: 0xCC, symBinAddr: 0x23360, symSize: 0x90 }
  - { offset: 0x89DCC, size: 0x8, addend: 0x0, symName: __ZN5alloc11collections5btree3mem7replace17h63d894a1f35cb637E, symObjAddr: 0x15C, symBinAddr: 0x233F0, symSize: 0x90 }
  - { offset: 0x89EB5, size: 0x8, addend: 0x0, symName: __ZN5alloc11collections5btree3mem7replace17h6e24fc8564a68d8bE, symObjAddr: 0x1EC, symBinAddr: 0x23480, symSize: 0xC4 }
  - { offset: 0x89FA4, size: 0x8, addend: 0x0, symName: __ZN5alloc11collections5btree3mem7replace17hcf36d6a7d7daf78eE, symObjAddr: 0x2B0, symBinAddr: 0x23544, symSize: 0xCC }
  - { offset: 0x8A099, size: 0x8, addend: 0x0, symName: '__ZN5alloc11collections5btree3mem8take_mut28_$u7b$$u7b$closure$u7d$$u7d$17h00c3e7d1e99554d5E', symObjAddr: 0x37C, symBinAddr: 0x23610, symSize: 0x28 }
  - { offset: 0x8A0E6, size: 0x8, addend: 0x0, symName: '__ZN5alloc11collections5btree3mem8take_mut28_$u7b$$u7b$closure$u7d$$u7d$17ha24cc212c3a2cde8E', symObjAddr: 0x3A4, symBinAddr: 0x23638, symSize: 0x28 }
  - { offset: 0x8A4EC, size: 0x8, addend: 0x0, symName: '__ZN103_$LT$pyo3..instance..Bound$LT$pyo3..types..any..PyAny$GT$$u20$as$u20$pyo3..types..any..PyAnyMethods$GT$7is_none17h50bf4061f88a6425E', symObjAddr: 0x0, symBinAddr: 0x23660, symSize: 0x4C }
  - { offset: 0x8C015, size: 0x8, addend: 0x0, symName: '__ZN103_$LT$pyo3..instance..Bound$LT$pyo3..types..any..PyAny$GT$$u20$as$u20$pyo3..types..any..PyAnyMethods$GT$7is_none17h50bf4061f88a6425E', symObjAddr: 0x0, symBinAddr: 0x23660, symSize: 0x4C }
  - { offset: 0x8C08A, size: 0x8, addend: 0x0, symName: '__ZN119_$LT$pyo3..instance..Bound$LT$pyo3..types..typeobject..PyType$GT$$u20$as$u20$pyo3..types..typeobject..PyTypeMethods$GT$11as_type_ptr17h0ae6c84a9c11d767E', symObjAddr: 0x4C, symBinAddr: 0x236AC, symSize: 0x24 }
  - { offset: 0x8C0D7, size: 0x8, addend: 0x0, symName: '__ZN123_$LT$pyo3..instance..Bound$LT$pyo3..types..sequence..PySequence$GT$$u20$as$u20$pyo3..types..sequence..PySequenceMethods$GT$3len17haeac2b753998b343E', symObjAddr: 0x70, symBinAddr: 0x236D0, symSize: 0xBC }
  - { offset: 0x8C15F, size: 0x8, addend: 0x0, symName: '__ZN4pyo35types8iterator131_$LT$impl$u20$core..iter..traits..iterator..Iterator$u20$for$u20$pyo3..instance..Bound$LT$pyo3..types..iterator..PyIterator$GT$$GT$4next17h122f172bf2978cafE', symObjAddr: 0x12C, symBinAddr: 0x2378C, symSize: 0x30 }
  - { offset: 0x8C61F, size: 0x8, addend: 0x0, symName: '__ZN4pyo38instance36Bound$LT$pyo3..types..any..PyAny$GT$14from_owned_ptr17hfa6dd8dff5ac376cE', symObjAddr: 0x15C, symBinAddr: 0x237BC, symSize: 0x2C }
  - { offset: 0x8C667, size: 0x8, addend: 0x0, symName: '__ZN4pyo38instance39Borrowed$LT$pyo3..types..any..PyAny$GT$15from_ptr_or_opt17h1b95bf324743e696E', symObjAddr: 0x188, symBinAddr: 0x237E8, symSize: 0x2C }
  - { offset: 0x8C6A5, size: 0x8, addend: 0x0, symName: '__ZN4pyo38instance39Borrowed$LT$pyo3..types..any..PyAny$GT$18from_ptr_unchecked17h5f44b431415e4c38E', symObjAddr: 0x1B4, symBinAddr: 0x23814, symSize: 0x2C }
  - { offset: 0x8C6E3, size: 0x8, addend: 0x0, symName: '__ZN4pyo38instance39Borrowed$LT$pyo3..types..any..PyAny$GT$8from_ptr17h06ab830ab104c657E', symObjAddr: 0x1E0, symBinAddr: 0x23840, symSize: 0x34 }
  - { offset: 0x8C968, size: 0x8, addend: 0x0, symName: '__ZN4pyo35types10boolobject65_$LT$impl$u20$pyo3..conversion..IntoPyObject$u20$for$u20$bool$GT$13into_pyobject17h17a3174051abd0b0E', symObjAddr: 0x0, symBinAddr: 0x23874, symSize: 0x20 }
  - { offset: 0x8DA99, size: 0x8, addend: 0x0, symName: '__ZN4pyo35types10boolobject65_$LT$impl$u20$pyo3..conversion..IntoPyObject$u20$for$u20$bool$GT$13into_pyobject17h17a3174051abd0b0E', symObjAddr: 0x0, symBinAddr: 0x23874, symSize: 0x20 }
  - { offset: 0x8E09D, size: 0x8, addend: 0x0, symName: __ZN4pyo35types10boolobject6PyBool3new17hbf5eaecda1a8b7d5E, symObjAddr: 0x20, symBinAddr: 0x23894, symSize: 0x50 }
  - { offset: 0x8E0F6, size: 0x8, addend: 0x0, symName: '__ZN4pyo35impl_7pyclass16lazy_type_object23LazyTypeObject$LT$T$GT$11get_or_init17hab62e1786dd9916aE', symObjAddr: 0x0, symBinAddr: 0x238E4, symSize: 0x40 }
  - { offset: 0x8FDDC, size: 0x8, addend: 0x0, symName: '__ZN4pyo35impl_7pyclass16lazy_type_object23LazyTypeObject$LT$T$GT$11get_or_init28_$u7b$$u7b$closure$u7d$$u7d$17h29f6dac63807c9d5E', symObjAddr: 0x80, symBinAddr: 0x23964, symSize: 0x98 }
  - { offset: 0x8FE49, size: 0x8, addend: 0x0, symName: '__ZN4pyo35impl_7pyclass16lazy_type_object23LazyTypeObject$LT$T$GT$11get_or_init28_$u7b$$u7b$closure$u7d$$u7d$17h2ba844c5786bcbfcE', symObjAddr: 0x118, symBinAddr: 0x239FC, symSize: 0x98 }
  - { offset: 0x90D3B, size: 0x8, addend: 0x0, symName: '__ZN4pyo35impl_7pyclass16lazy_type_object23LazyTypeObject$LT$T$GT$11get_or_init17hab62e1786dd9916aE', symObjAddr: 0x0, symBinAddr: 0x238E4, symSize: 0x40 }
  - { offset: 0x90E1D, size: 0x8, addend: 0x0, symName: '__ZN4pyo35impl_7pyclass16lazy_type_object23LazyTypeObject$LT$T$GT$11get_or_init17hdc1faf1cc933c8ceE', symObjAddr: 0x40, symBinAddr: 0x23924, symSize: 0x40 }
  - { offset: 0x90E61, size: 0x8, addend: 0x0, symName: '__ZN4pyo35impl_7pyclass16lazy_type_object23LazyTypeObject$LT$T$GT$15get_or_try_init17h64ca046c80eb9b61E', symObjAddr: 0x1B0, symBinAddr: 0x23A94, symSize: 0x58 }
  - { offset: 0x90EA5, size: 0x8, addend: 0x0, symName: '__ZN4pyo35impl_7pyclass16lazy_type_object23LazyTypeObject$LT$T$GT$15get_or_try_init17h755d352755518377E', symObjAddr: 0x208, symBinAddr: 0x23AEC, symSize: 0x58 }
  - { offset: 0x90FAD, size: 0x8, addend: 0x0, symName: __ZN4pyo35types4list17BoundListIterator14next_unchecked17h204a2a33423db9ddE, symObjAddr: 0x0, symBinAddr: 0x23B44, symSize: 0x104 }
  - { offset: 0x9218A, size: 0x8, addend: 0x0, symName: '__ZN95_$LT$pyo3..types..list..BoundListIterator$u20$as$u20$core..iter..traits..iterator..Iterator$GT$4next17h65057704aebe8728E', symObjAddr: 0x104, symBinAddr: 0x23C48, symSize: 0x24 }
  - { offset: 0x927A3, size: 0x8, addend: 0x0, symName: __ZN4pyo35types4list17BoundListIterator14next_unchecked17h204a2a33423db9ddE, symObjAddr: 0x0, symBinAddr: 0x23B44, symSize: 0x104 }
  - { offset: 0x92851, size: 0x8, addend: 0x0, symName: __ZN4core5slice4sort6stable5drift10create_run17h236b9f3c6fbf406fE, symObjAddr: 0x0, symBinAddr: 0x23C6C, symSize: 0x438 }
  - { offset: 0x930E4, size: 0x8, addend: 0x0, symName: __ZN4core5slice4sort6stable5drift10create_run17h236b9f3c6fbf406fE, symObjAddr: 0x0, symBinAddr: 0x23C6C, symSize: 0x438 }
  - { offset: 0x935F5, size: 0x8, addend: 0x0, symName: __ZN4core5slice4sort6stable5drift10create_run17hbddc0f9a63a5b7f3E, symObjAddr: 0x438, symBinAddr: 0x240A4, symSize: 0x438 }
  - { offset: 0x93B06, size: 0x8, addend: 0x0, symName: __ZN4core5slice4sort6stable5drift16stable_quicksort17h75f3434194f7590aE, symObjAddr: 0x870, symBinAddr: 0x244DC, symSize: 0xB4 }
  - { offset: 0x93C40, size: 0x8, addend: 0x0, symName: __ZN4core5slice4sort6stable5drift16stable_quicksort17heebb30eb418d22d7E, symObjAddr: 0x924, symBinAddr: 0x24590, symSize: 0xB4 }
  - { offset: 0x93E65, size: 0x8, addend: 0x0, symName: __ZN4core5slice4sort6stable5drift4sort17h47fcd1abe8e77290E, symObjAddr: 0x9D8, symBinAddr: 0x24644, symSize: 0x5C4 }
  - { offset: 0x946DA, size: 0x8, addend: 0x0, symName: __ZN4core5slice4sort6stable5drift4sort17he29dc691f0ee5e5aE, symObjAddr: 0xF9C, symBinAddr: 0x24C08, symSize: 0x5C4 }
  - { offset: 0x96335, size: 0x8, addend: 0x0, symName: __ZN4core5slice4sort6shared5pivot11median3_rec17h3216ee9c0594aaddE, symObjAddr: 0x0, symBinAddr: 0x251CC, symSize: 0x1F4 }
  - { offset: 0x96719, size: 0x8, addend: 0x0, symName: __ZN4core5slice4sort6shared5pivot11median3_rec17h3216ee9c0594aaddE, symObjAddr: 0x0, symBinAddr: 0x251CC, symSize: 0x1F4 }
  - { offset: 0x96998, size: 0x8, addend: 0x0, symName: __ZN4core5slice4sort6shared5pivot11median3_rec17haa26487eb3d71a5cE, symObjAddr: 0x1F4, symBinAddr: 0x253C0, symSize: 0x1F4 }
  - { offset: 0x96B9E, size: 0x8, addend: 0x0, symName: __ZN4core5slice4sort6shared5pivot12choose_pivot17h17d6f9abf4f0fe49E, symObjAddr: 0x3E8, symBinAddr: 0x255B4, symSize: 0x244 }
  - { offset: 0x96E32, size: 0x8, addend: 0x0, symName: __ZN4core5slice4sort6shared5pivot12choose_pivot17hb2ce11b33acae43aE, symObjAddr: 0x62C, symBinAddr: 0x257F8, symSize: 0x244 }
  - { offset: 0x97465, size: 0x8, addend: 0x0, symName: '__ZN73_$LT$pyo3..types..any..PyAny$u20$as$u20$pyo3..type_object..PyTypeInfo$GT$15type_object_raw17hc061317d4cff4ef4E', symObjAddr: 0x0, symBinAddr: 0x25A3C, symSize: 0x24 }
  - { offset: 0x9849B, size: 0x8, addend: 0x0, symName: '__ZN73_$LT$pyo3..types..any..PyAny$u20$as$u20$pyo3..type_object..PyTypeInfo$GT$15type_object_raw17hc061317d4cff4ef4E', symObjAddr: 0x0, symBinAddr: 0x25A3C, symSize: 0x24 }
  - { offset: 0x989DE, size: 0x8, addend: 0x0, symName: __ZN5alloc3fmt6format17h6ad854ca04f75c24E, symObjAddr: 0x0, symBinAddr: 0x25A60, symSize: 0xD4 }
  - { offset: 0x98F79, size: 0x8, addend: 0x0, symName: __ZN5alloc3fmt6format17h6ad854ca04f75c24E, symObjAddr: 0x0, symBinAddr: 0x25A60, symSize: 0xD4 }
  - { offset: 0x990D6, size: 0x8, addend: 0x0, symName: '__ZN4core3ptr8non_null16NonNull$LT$T$GT$20offset_from_unsigned17h0f92aefb481dababE', symObjAddr: 0x0, symBinAddr: 0x25B34, symSize: 0x7C }
  - { offset: 0x99661, size: 0x8, addend: 0x0, symName: '__ZN4core3ptr8non_null16NonNull$LT$T$GT$20offset_from_unsigned17h0f92aefb481dababE', symObjAddr: 0x0, symBinAddr: 0x25B34, symSize: 0x7C }
  - { offset: 0x99789, size: 0x8, addend: 0x0, symName: '__ZN4core3ptr8non_null16NonNull$LT$T$GT$20offset_from_unsigned17hdfbbec4186699456E', symObjAddr: 0x7C, symBinAddr: 0x25BB0, symSize: 0x7C }
  - { offset: 0x9987B, size: 0x8, addend: 0x0, symName: '__ZN58_$LT$alloc..string..String$u20$as$u20$core..fmt..Debug$GT$3fmt17h541c0f1694c8f75eE', symObjAddr: 0x0, symBinAddr: 0x25C2C, symSize: 0x88 }
  - { offset: 0x9990C, size: 0x8, addend: 0x0, symName: '__ZN65_$LT$alloc..string..String$u20$as$u20$core..ops..deref..Deref$GT$5deref17hc7dc4be561bdb05eE', symObjAddr: 0x144, symBinAddr: 0x25D70, symSize: 0x24 }
  - { offset: 0x99940, size: 0x8, addend: 0x0, symName: '__ZN58_$LT$alloc..string..String$u20$as$u20$core..fmt..Debug$GT$3fmt17h541c0f1694c8f75eE', symObjAddr: 0x0, symBinAddr: 0x25C2C, symSize: 0x88 }
  - { offset: 0x99AA5, size: 0x8, addend: 0x0, symName: '__ZN62_$LT$alloc..string..String$u20$as$u20$core..cmp..PartialEq$GT$2eq17ha075fe3244f03d18E', symObjAddr: 0x118, symBinAddr: 0x25D44, symSize: 0x2C }
  - { offset: 0x99AE8, size: 0x8, addend: 0x0, symName: '__ZN76_$LT$alloc..string..String$u20$as$u20$core..convert..From$LT$$RF$str$GT$$GT$4from17hf5d3dcf61a924b4fE', symObjAddr: 0x168, symBinAddr: 0x25D94, symSize: 0x50 }
  - { offset: 0x9A255, size: 0x8, addend: 0x0, symName: __ZN5alloc6string6String10into_bytes17h5cd61587a2fd5c13E, symObjAddr: 0x88, symBinAddr: 0x25CB4, symSize: 0x18 }
  - { offset: 0x9A30D, size: 0x8, addend: 0x0, symName: __ZN5alloc6string6String6as_str17h094ef381a0d4bfd0E, symObjAddr: 0xA0, symBinAddr: 0x25CCC, symSize: 0x78 }
  - { offset: 0x9A4BF, size: 0x8, addend: 0x0, symName: '__ZN4pyo311conversions3std3num63_$LT$impl$u20$pyo3..conversion..IntoPyObject$u20$for$u20$u8$GT$28owned_sequence_into_pyobject17h6e3d58828a3a8944E', symObjAddr: 0x0, symBinAddr: 0x25DE4, symSize: 0x94 }
  - { offset: 0x9B92F, size: 0x8, addend: 0x0, symName: '__ZN4pyo311conversions3std3num63_$LT$impl$u20$pyo3..conversion..IntoPyObject$u20$for$u20$u8$GT$28owned_sequence_into_pyobject17h6e3d58828a3a8944E', symObjAddr: 0x0, symBinAddr: 0x25DE4, symSize: 0x94 }
  - { offset: 0x9C399, size: 0x8, addend: 0x0, symName: '__ZN5alloc7raw_vec19RawVec$LT$T$C$A$GT$8grow_one17hb0e00fe99904a1a4E', symObjAddr: 0x0, symBinAddr: 0x25E78, symSize: 0x90 }
  - { offset: 0x9CF80, size: 0x8, addend: 0x0, symName: '__ZN5alloc7raw_vec19RawVec$LT$T$C$A$GT$8grow_one17hb0e00fe99904a1a4E', symObjAddr: 0x0, symBinAddr: 0x25E78, symSize: 0x90 }
  - { offset: 0x9D032, size: 0x8, addend: 0x0, symName: '__ZN5alloc7raw_vec19RawVec$LT$T$C$A$GT$8grow_one17hbe248fe79dc17f9aE', symObjAddr: 0x90, symBinAddr: 0x25F08, symSize: 0x90 }
  - { offset: 0x9D0BD, size: 0x8, addend: 0x0, symName: __ZN5alloc5slice11stable_sort17h8a5fc3dbecd33525E, symObjAddr: 0x0, symBinAddr: 0x25F98, symSize: 0xC8 }
  - { offset: 0x9D68E, size: 0x8, addend: 0x0, symName: '__ZN5alloc5slice29_$LT$impl$u20$$u5b$T$u5d$$GT$7sort_by28_$u7b$$u7b$closure$u7d$$u7d$17h054dc8610cdc9935E', symObjAddr: 0x190, symBinAddr: 0x26128, symSize: 0x5C }
  - { offset: 0x9D708, size: 0x8, addend: 0x0, symName: '__ZN5alloc5slice29_$LT$impl$u20$$u5b$T$u5d$$GT$7sort_by28_$u7b$$u7b$closure$u7d$$u7d$17h988341ca7feaca02E', symObjAddr: 0x1EC, symBinAddr: 0x26184, symSize: 0x5C }
  - { offset: 0x9D784, size: 0x8, addend: 0x0, symName: __ZN5alloc5slice11stable_sort17h8a5fc3dbecd33525E, symObjAddr: 0x0, symBinAddr: 0x25F98, symSize: 0xC8 }
  - { offset: 0x9D839, size: 0x8, addend: 0x0, symName: __ZN5alloc5slice11stable_sort17hf065a4fda849e176E, symObjAddr: 0xC8, symBinAddr: 0x26060, symSize: 0xC8 }
  - { offset: 0x9DA23, size: 0x8, addend: 0x0, symName: '__ZN5alloc5boxed16Box$LT$T$C$A$GT$13new_uninit_in17h2a575880cd4c920aE', symObjAddr: 0x0, symBinAddr: 0x261E0, symSize: 0x98 }
  - { offset: 0x9F218, size: 0x8, addend: 0x0, symName: '__ZN5alloc5boxed16Box$LT$T$C$A$GT$13new_uninit_in17h2a575880cd4c920aE', symObjAddr: 0x0, symBinAddr: 0x261E0, symSize: 0x98 }
  - { offset: 0x9F310, size: 0x8, addend: 0x0, symName: '__ZN5alloc5boxed16Box$LT$T$C$A$GT$13new_uninit_in17h7b37848580e5d097E', symObjAddr: 0x98, symBinAddr: 0x26278, symSize: 0x98 }
  - { offset: 0x9F408, size: 0x8, addend: 0x0, symName: '__ZN5alloc5boxed16Box$LT$T$C$A$GT$13new_uninit_in17hfcd37ddfa79d2b7dE', symObjAddr: 0x130, symBinAddr: 0x26310, symSize: 0x98 }
  - { offset: 0x9F500, size: 0x8, addend: 0x0, symName: '__ZN5alloc5boxed16Box$LT$T$C$A$GT$13new_uninit_in17hfcd7c30f7a7cccdeE', symObjAddr: 0x1C8, symBinAddr: 0x263A8, symSize: 0x98 }
  - { offset: 0x9F5F8, size: 0x8, addend: 0x0, symName: '__ZN5alloc5boxed16Box$LT$T$C$A$GT$17try_new_uninit_in17h0046ed79701d6724E', symObjAddr: 0x260, symBinAddr: 0x26440, symSize: 0x13C }
  - { offset: 0x9F834, size: 0x8, addend: 0x0, symName: '__ZN5alloc5boxed16Box$LT$T$C$A$GT$17try_new_uninit_in17h37baaf6f6efbbbd5E', symObjAddr: 0x39C, symBinAddr: 0x2657C, symSize: 0x13C }
  - { offset: 0x9FA70, size: 0x8, addend: 0x0, symName: '__ZN5alloc5boxed16Box$LT$T$C$A$GT$17try_new_uninit_in17h7bcfae4dc1024290E', symObjAddr: 0x4D8, symBinAddr: 0x266B8, symSize: 0x13C }
  - { offset: 0x9FCAC, size: 0x8, addend: 0x0, symName: '__ZN5alloc5boxed16Box$LT$T$C$A$GT$17try_new_uninit_in17hb04fc559624b6087E', symObjAddr: 0x614, symBinAddr: 0x267F4, symSize: 0x13C }
  - { offset: 0xA0649, size: 0x8, addend: 0x0, symName: '__ZN79_$LT$pyo3..exceptions..PyException$u20$as$u20$pyo3..type_object..PyTypeInfo$GT$15type_object_raw17h0339afb5dd04b8aeE', symObjAddr: 0x0, symBinAddr: 0x26930, symSize: 0x24 }
  - { offset: 0xA167A, size: 0x8, addend: 0x0, symName: '__ZN79_$LT$pyo3..exceptions..PyException$u20$as$u20$pyo3..type_object..PyTypeInfo$GT$15type_object_raw17h0339afb5dd04b8aeE', symObjAddr: 0x0, symBinAddr: 0x26930, symSize: 0x24 }
  - { offset: 0xA1BBC, size: 0x8, addend: 0x0, symName: __ZN4pyo33err5PyErr10from_state17ha67ba1c3f9baa384E, symObjAddr: 0x0, symBinAddr: 0x26954, symSize: 0x30 }
  - { offset: 0xA389C, size: 0x8, addend: 0x0, symName: __ZN4pyo33err5PyErr10from_state17ha67ba1c3f9baa384E, symObjAddr: 0x0, symBinAddr: 0x26954, symSize: 0x30 }
  - { offset: 0xA3905, size: 0x8, addend: 0x0, symName: __ZN4pyo33err5PyErr16write_unraisable17h09700051cec6b0fcE, symObjAddr: 0x30, symBinAddr: 0x26984, symSize: 0x34 }
  - { offset: 0xA3953, size: 0x8, addend: 0x0, symName: __ZN4pyo33err5PyErr7restore17h66c4b2daaa425c0dE, symObjAddr: 0x64, symBinAddr: 0x269B8, symSize: 0x38 }
  - { offset: 0xA39B0, size: 0x8, addend: 0x0, symName: __ZN4core5slice3raw14from_raw_parts18precondition_check17hde616559a6eec3abE, symObjAddr: 0x0, symBinAddr: 0x269F0, symSize: 0x1D8 }
  - { offset: 0xA3F47, size: 0x8, addend: 0x0, symName: __ZN4core5slice3raw14from_raw_parts18precondition_check17hde616559a6eec3abE, symObjAddr: 0x0, symBinAddr: 0x269F0, symSize: 0x1D8 }
  - { offset: 0xA40E5, size: 0x8, addend: 0x0, symName: __ZN4core5slice3raw18from_raw_parts_mut18precondition_check17h0fe1b0b855ab11fbE, symObjAddr: 0x1D8, symBinAddr: 0x26BC8, symSize: 0x1D8 }
  - { offset: 0xA4462, size: 0x8, addend: 0x0, symName: __ZN4core3fmt2rt8Argument11new_display17h2824017abe37c389E, symObjAddr: 0x0, symBinAddr: 0x26DA0, symSize: 0x2C }
  - { offset: 0xA494C, size: 0x8, addend: 0x0, symName: __ZN4core3fmt2rt8Argument11new_display17h2824017abe37c389E, symObjAddr: 0x0, symBinAddr: 0x26DA0, symSize: 0x2C }
  - { offset: 0xA4A3D, size: 0x8, addend: 0x0, symName: __ZN4core3fmt2rt8Argument11new_display17h8dda931e76aee056E, symObjAddr: 0x2C, symBinAddr: 0x26DCC, symSize: 0x2C }
  - { offset: 0xA4BBF, size: 0x8, addend: 0x0, symName: __ZN4core3fmt2rt8Argument9new_debug17h25a393f0db34cf91E, symObjAddr: 0x58, symBinAddr: 0x26DF8, symSize: 0x2C }
  - { offset: 0xA4F7C, size: 0x8, addend: 0x0, symName: __ZN4core3fmt2rt8Argument9new_debug17hfd7c1d4051cf0715E, symObjAddr: 0x84, symBinAddr: 0x26E24, symSize: 0x2C }
  - { offset: 0xA506C, size: 0x8, addend: 0x0, symName: __ZN4core3ptr5write17h08cf29c09bf9cbdaE, symObjAddr: 0x188, symBinAddr: 0x26E50, symSize: 0x2C }
  - { offset: 0xA50AF, size: 0x8, addend: 0x0, symName: __ZN4core3ptr5write17h86f8472c3fa6efaeE, symObjAddr: 0x1B4, symBinAddr: 0x26E7C, symSize: 0x24 }
  - { offset: 0xA5A44, size: 0x8, addend: 0x0, symName: __ZN4pyo35impl_5panic9PanicTrap3new17h834f3b071ac9b820E, symObjAddr: 0x0, symBinAddr: 0x26EA0, symSize: 0x18 }
  - { offset: 0xA5AD3, size: 0x8, addend: 0x0, symName: __ZN4pyo35impl_5panic9PanicTrap3new17h834f3b071ac9b820E, symObjAddr: 0x0, symBinAddr: 0x26EA0, symSize: 0x18 }
  - { offset: 0xA5AF5, size: 0x8, addend: 0x0, symName: __ZN4pyo35impl_5panic9PanicTrap6disarm17h8f44919e8b2394a3E, symObjAddr: 0x18, symBinAddr: 0x26EB8, symSize: 0x28 }
  - { offset: 0xA5B35, size: 0x8, addend: 0x0, symName: '__ZN106_$LT$core..ops..range..Range$LT$usize$GT$$u20$as$u20$core..slice..index..SliceIndex$LT$$u5b$T$u5d$$GT$$GT$9index_mut17h60b1a69c57d84ae7E', symObjAddr: 0x0, symBinAddr: 0x26EE0, symSize: 0xBC }
  - { offset: 0xA6651, size: 0x8, addend: 0x0, symName: '__ZN106_$LT$core..ops..range..Range$LT$usize$GT$$u20$as$u20$core..slice..index..SliceIndex$LT$$u5b$T$u5d$$GT$$GT$9index_mut17h60b1a69c57d84ae7E', symObjAddr: 0x0, symBinAddr: 0x26EE0, symSize: 0xBC }
  - { offset: 0xA67CB, size: 0x8, addend: 0x0, symName: '__ZN108_$LT$core..ops..range..RangeTo$LT$usize$GT$$u20$as$u20$core..slice..index..SliceIndex$LT$$u5b$T$u5d$$GT$$GT$9index_mut17hbdd0669867af6aecE', symObjAddr: 0xBC, symBinAddr: 0x26F9C, symSize: 0x54 }
  - { offset: 0xA684B, size: 0x8, addend: 0x0, symName: '__ZN110_$LT$core..ops..range..RangeFrom$LT$usize$GT$$u20$as$u20$core..slice..index..SliceIndex$LT$$u5b$T$u5d$$GT$$GT$5index17h3db6faed7f91b129E', symObjAddr: 0x110, symBinAddr: 0x26FF0, symSize: 0x94 }
  - { offset: 0xA694F, size: 0x8, addend: 0x0, symName: '__ZN110_$LT$core..ops..range..RangeFrom$LT$usize$GT$$u20$as$u20$core..slice..index..SliceIndex$LT$$u5b$T$u5d$$GT$$GT$9index_mut17ha8b562d28f6c5b66E', symObjAddr: 0x1A4, symBinAddr: 0x27084, symSize: 0xAC }
  - { offset: 0xA6A53, size: 0x8, addend: 0x0, symName: '__ZN110_$LT$core..ops..range..RangeFrom$LT$usize$GT$$u20$as$u20$core..slice..index..SliceIndex$LT$$u5b$T$u5d$$GT$$GT$9index_mut17hee88d6c21e4781aeE', symObjAddr: 0x250, symBinAddr: 0x27130, symSize: 0xAC }
  - { offset: 0xA7CEB, size: 0x8, addend: 0x0, symName: __ZN4core5slice4sort6stable14driftsort_main17h10ce0d63cf73f394E, symObjAddr: 0x0, symBinAddr: 0x271DC, symSize: 0x290 }
  - { offset: 0xA7E5A, size: 0x8, addend: 0x0, symName: __ZN4core5slice4sort6stable14driftsort_main17h10ce0d63cf73f394E, symObjAddr: 0x0, symBinAddr: 0x271DC, symSize: 0x290 }
  - { offset: 0xA8065, size: 0x8, addend: 0x0, symName: __ZN4core5slice4sort6stable14driftsort_main17h8dba4f239376da3cE, symObjAddr: 0x290, symBinAddr: 0x2746C, symSize: 0x290 }
  - { offset: 0xA89DA, size: 0x8, addend: 0x0, symName: '__ZN4core5slice4sort6stable27AlignedStorage$LT$T$C$_$GT$19as_uninit_slice_mut17hc52f4245142af960E', symObjAddr: 0x520, symBinAddr: 0x276FC, symSize: 0x84 }
  - { offset: 0xA8AC2, size: 0x8, addend: 0x0, symName: '__ZN4core5slice4sort6stable27AlignedStorage$LT$T$C$_$GT$19as_uninit_slice_mut17hfbe08a121da1e6b2E', symObjAddr: 0x5A4, symBinAddr: 0x27780, symSize: 0x84 }
  - { offset: 0xA8C10, size: 0x8, addend: 0x0, symName: __ZN4pyo35types4none6PyNone3get17h4b7e7158f51b456cE, symObjAddr: 0x0, symBinAddr: 0x27804, symSize: 0x2C }
  - { offset: 0xAA265, size: 0x8, addend: 0x0, symName: __ZN4pyo35types4none6PyNone3get17h4b7e7158f51b456cE, symObjAddr: 0x0, symBinAddr: 0x27804, symSize: 0x2C }
  - { offset: 0xAA2B0, size: 0x8, addend: 0x0, symName: '__ZN104_$LT$core..iter..adapters..copied..Copied$LT$I$GT$$u20$as$u20$core..iter..traits..iterator..Iterator$GT$4next17h6a38ee1de92f3645E', symObjAddr: 0x0, symBinAddr: 0x27830, symSize: 0x5C }
  - { offset: 0xAACFD, size: 0x8, addend: 0x0, symName: '__ZN104_$LT$core..iter..adapters..copied..Copied$LT$I$GT$$u20$as$u20$core..iter..traits..iterator..Iterator$GT$4next17h6a38ee1de92f3645E', symObjAddr: 0x0, symBinAddr: 0x27830, symSize: 0x5C }
  - { offset: 0xAADA2, size: 0x8, addend: 0x0, symName: '__ZN63_$LT$I$u20$as$u20$core..iter..traits..collect..IntoIterator$GT$9into_iter17h232f0d33d3e12d6cE', symObjAddr: 0x5C, symBinAddr: 0x2788C, symSize: 0x1C }
  - { offset: 0xABB8C, size: 0x8, addend: 0x0, symName: __ZN4pyo35types10typeobject6PyType22from_borrowed_type_ptr17h2ecb9357584e23ceE, symObjAddr: 0x0, symBinAddr: 0x278A8, symSize: 0x34 }
  - { offset: 0xAD1E5, size: 0x8, addend: 0x0, symName: __ZN4pyo35types10typeobject6PyType22from_borrowed_type_ptr17h2ecb9357584e23ceE, symObjAddr: 0x0, symBinAddr: 0x278A8, symSize: 0x34 }
  - { offset: 0xAD23E, size: 0x8, addend: 0x0, symName: '__ZN4core3ptr8non_null16NonNull$LT$T$GT$13new_unchecked18precondition_check17h56a8e0639a4d6dc2E', symObjAddr: 0x0, symBinAddr: 0x278DC, symSize: 0xA4 }
  - { offset: 0xAD4C0, size: 0x8, addend: 0x0, symName: '__ZN4core3ptr8non_null16NonNull$LT$T$GT$13new_unchecked18precondition_check17h56a8e0639a4d6dc2E', symObjAddr: 0x0, symBinAddr: 0x278DC, symSize: 0xA4 }
  - { offset: 0xAD76D, size: 0x8, addend: 0x0, symName: '__ZN4core4iter8adapters8peekable17Peekable$LT$I$GT$4peek28_$u7b$$u7b$closure$u7d$$u7d$17h8914aecd0aec8e46E', symObjAddr: 0x0, symBinAddr: 0x27980, symSize: 0x24 }
  - { offset: 0xAD798, size: 0x8, addend: 0x0, symName: '__ZN4core4iter8adapters8peekable17Peekable$LT$I$GT$4peek28_$u7b$$u7b$closure$u7d$$u7d$17h8914aecd0aec8e46E', symObjAddr: 0x0, symBinAddr: 0x27980, symSize: 0x24 }
  - { offset: 0xAD7CF, size: 0x8, addend: 0x0, symName: '__ZN4core4iter8adapters8peekable17Peekable$LT$I$GT$4peek28_$u7b$$u7b$closure$u7d$$u7d$17hdb2815f323a1df82E', symObjAddr: 0x24, symBinAddr: 0x279A4, symSize: 0x24 }
  - { offset: 0xADDBC, size: 0x8, addend: 0x0, symName: '__ZN4core3cmp5impls50_$LT$impl$u20$core..cmp..Ord$u20$for$u20$usize$GT$3cmp17h22f872469041d20cE', symObjAddr: 0x0, symBinAddr: 0x279C8, symSize: 0x38 }
  - { offset: 0xADDFB, size: 0x8, addend: 0x0, symName: '__ZN4core3cmp5impls50_$LT$impl$u20$core..cmp..Ord$u20$for$u20$usize$GT$3cmp17h22f872469041d20cE', symObjAddr: 0x0, symBinAddr: 0x279C8, symSize: 0x38 }
  - { offset: 0xADE3E, size: 0x8, addend: 0x0, symName: '__ZN4core3cmp5impls54_$LT$impl$u20$core..cmp..PartialEq$u20$for$u20$u64$GT$2eq17h4e58563ccf5864c2E', symObjAddr: 0x38, symBinAddr: 0x27A00, symSize: 0x2C }
  - { offset: 0xADE81, size: 0x8, addend: 0x0, symName: '__ZN4core3cmp5impls56_$LT$impl$u20$core..cmp..PartialEq$u20$for$u20$usize$GT$2ne17h0422c80ed3ae9ec8E', symObjAddr: 0x64, symBinAddr: 0x27A2C, symSize: 0x2C }
  - { offset: 0xADF16, size: 0x8, addend: 0x0, symName: '__ZN185_$LT$core..ops..control_flow..ControlFlow$LT$B$C$C$GT$$u20$as$u20$core..ops..try_trait..FromResidual$LT$core..ops..control_flow..ControlFlow$LT$B$C$core..convert..Infallible$GT$$GT$$GT$13from_residual17hc377f37b0dbca7a3E', symObjAddr: 0x0, symBinAddr: 0x27A58, symSize: 0x48 }
  - { offset: 0xADF9E, size: 0x8, addend: 0x0, symName: '__ZN185_$LT$core..ops..control_flow..ControlFlow$LT$B$C$C$GT$$u20$as$u20$core..ops..try_trait..FromResidual$LT$core..ops..control_flow..ControlFlow$LT$B$C$core..convert..Infallible$GT$$GT$$GT$13from_residual17hc377f37b0dbca7a3E', symObjAddr: 0x0, symBinAddr: 0x27A58, symSize: 0x48 }
  - { offset: 0xADFDD, size: 0x8, addend: 0x0, symName: '__ZN185_$LT$core..ops..control_flow..ControlFlow$LT$B$C$C$GT$$u20$as$u20$core..ops..try_trait..FromResidual$LT$core..ops..control_flow..ControlFlow$LT$B$C$core..convert..Infallible$GT$$GT$$GT$13from_residual17hdbefd2797610e9a1E', symObjAddr: 0x48, symBinAddr: 0x27AA0, symSize: 0x48 }
  - { offset: 0xAE027, size: 0x8, addend: 0x0, symName: __ZN4core3ops12control_flow11ControlFlow5Break17he384160cb5560bd2E, symObjAddr: 0x90, symBinAddr: 0x27AE8, symSize: 0x30 }
  - { offset: 0xAE069, size: 0x8, addend: 0x0, symName: '__ZN95_$LT$core..ops..control_flow..ControlFlow$LT$B$C$C$GT$$u20$as$u20$core..ops..try_trait..Try$GT$11from_output17h184d0019dad86f3cE', symObjAddr: 0xC0, symBinAddr: 0x27B18, symSize: 0x18 }
  - { offset: 0xAE0A7, size: 0x8, addend: 0x0, symName: '__ZN95_$LT$core..ops..control_flow..ControlFlow$LT$B$C$C$GT$$u20$as$u20$core..ops..try_trait..Try$GT$11from_output17h655001a4355af5b7E', symObjAddr: 0xD8, symBinAddr: 0x27B30, symSize: 0x18 }
  - { offset: 0xAE0E5, size: 0x8, addend: 0x0, symName: '__ZN95_$LT$core..ops..control_flow..ControlFlow$LT$B$C$C$GT$$u20$as$u20$core..ops..try_trait..Try$GT$6branch17h3f00fd9bdf27a1e7E', symObjAddr: 0xF0, symBinAddr: 0x27B48, symSize: 0x94 }
  - { offset: 0xAE15E, size: 0x8, addend: 0x0, symName: '__ZN95_$LT$core..ops..control_flow..ControlFlow$LT$B$C$C$GT$$u20$as$u20$core..ops..try_trait..Try$GT$6branch17hec0cfa97a93c1a5bE', symObjAddr: 0x184, symBinAddr: 0x27BDC, symSize: 0x94 }
  - { offset: 0xAEB1E, size: 0x8, addend: 0x0, symName: __ZN4pyo35impl_10trampoline11module_init17hfc27c82a25a98850E, symObjAddr: 0x0, symBinAddr: 0x27C70, symSize: 0x28 }
  - { offset: 0xAFFE5, size: 0x8, addend: 0x0, symName: __ZN4pyo35impl_10trampoline11module_init17hfc27c82a25a98850E, symObjAddr: 0x0, symBinAddr: 0x27C70, symSize: 0x28 }
  - { offset: 0xB0011, size: 0x8, addend: 0x0, symName: __ZN4pyo35impl_10trampoline11richcmpfunc17h775e254b89fb0987E, symObjAddr: 0x28, symBinAddr: 0x27C98, symSize: 0x50 }
  - { offset: 0xB0067, size: 0x8, addend: 0x0, symName: __ZN4pyo35impl_10trampoline22fastcall_with_keywords17ha510075bc86a219dE, symObjAddr: 0x78, symBinAddr: 0x27CE8, symSize: 0x5C }
  - { offset: 0xB00CB, size: 0x8, addend: 0x0, symName: __ZN4pyo35impl_10trampoline6noargs17h402a6182bce21b4bE, symObjAddr: 0xD4, symBinAddr: 0x27D44, symSize: 0x64 }
  - { offset: 0xB0113, size: 0x8, addend: 0x0, symName: __ZN4pyo35impl_10trampoline7dealloc17h6e27496277b99d86E, symObjAddr: 0x138, symBinAddr: 0x27DA8, symSize: 0x34 }
  - { offset: 0xB0149, size: 0x8, addend: 0x0, symName: __ZN4pyo35impl_10trampoline7lenfunc17h27dff149accdec38E, symObjAddr: 0x16C, symBinAddr: 0x27DDC, symSize: 0x30 }
  - { offset: 0xB0183, size: 0x8, addend: 0x0, symName: __ZN4pyo35impl_10trampoline7newfunc17h9de2c48b2ff6a272E, symObjAddr: 0x19C, symBinAddr: 0x27E0C, symSize: 0x50 }
  - { offset: 0xB01D9, size: 0x8, addend: 0x0, symName: __ZN4pyo35impl_10trampoline8reprfunc17h4d4c41749cefa278E, symObjAddr: 0x1EC, symBinAddr: 0x27E5C, symSize: 0x30 }
  - { offset: 0xB0C10, size: 0x8, addend: 0x0, symName: '__ZN59_$LT$alloc..alloc..Global$u20$as$u20$core..clone..Clone$GT$5clone17h797fc1ecfaf27a81E', symObjAddr: 0x0, symBinAddr: 0x27E8C, symSize: 0x10 }
  - { offset: 0xB1513, size: 0x8, addend: 0x0, symName: '__ZN59_$LT$alloc..alloc..Global$u20$as$u20$core..clone..Clone$GT$5clone17h797fc1ecfaf27a81E', symObjAddr: 0x0, symBinAddr: 0x27E8C, symSize: 0x10 }
  - { offset: 0xB1569, size: 0x8, addend: 0x0, symName: '__ZN63_$LT$alloc..alloc..Global$u20$as$u20$core..alloc..Allocator$GT$10deallocate17h808fe777c6eb0b75E', symObjAddr: 0x2B8, symBinAddr: 0x28144, symSize: 0x80 }
  - { offset: 0xB1630, size: 0x8, addend: 0x0, symName: '__ZN63_$LT$alloc..alloc..Global$u20$as$u20$core..alloc..Allocator$GT$8allocate17h406f8a27d68c4620E', symObjAddr: 0x338, symBinAddr: 0x281C4, symSize: 0x34 }
  - { offset: 0xB1693, size: 0x8, addend: 0x0, symName: __ZN5alloc5alloc15exchange_malloc17h153567c86480a762E, symObjAddr: 0x10, symBinAddr: 0x27E9C, symSize: 0xAC }
  - { offset: 0xB19AC, size: 0x8, addend: 0x0, symName: __ZN5alloc5alloc6Global10alloc_impl17hc0577f01196cdb3cE, symObjAddr: 0xBC, symBinAddr: 0x27F48, symSize: 0x1FC }
  - { offset: 0xB1D9C, size: 0x8, addend: 0x0, symName: '__ZN4pyo36pycell14PyRef$LT$T$GT$10try_borrow17h11525a27402b1fc1E', symObjAddr: 0x0, symBinAddr: 0x281F8, symSize: 0x4C }
  - { offset: 0xB36EB, size: 0x8, addend: 0x0, symName: '__ZN50_$LT$T$u20$as$u20$core..convert..Into$LT$U$GT$$GT$4into17hc4d875d504869c89E', symObjAddr: 0xE0, symBinAddr: 0x282D8, symSize: 0x1C }
  - { offset: 0xB3986, size: 0x8, addend: 0x0, symName: '__ZN4pyo36pycell14PyRef$LT$T$GT$10try_borrow28_$u7b$$u7b$closure$u7d$$u7d$17h9e31ef9dda1389b6E', symObjAddr: 0x98, symBinAddr: 0x28290, symSize: 0x24 }
  - { offset: 0xB39CA, size: 0x8, addend: 0x0, symName: '__ZN4pyo36pycell14PyRef$LT$T$GT$10try_borrow28_$u7b$$u7b$closure$u7d$$u7d$17hd1b9545864553e29E', symObjAddr: 0xBC, symBinAddr: 0x282B4, symSize: 0x24 }
  - { offset: 0xB3A15, size: 0x8, addend: 0x0, symName: '__ZN72_$LT$pyo3..pycell..PyRef$LT$T$GT$$u20$as$u20$core..ops..deref..Deref$GT$5deref17h984acdb562fbdb0aE', symObjAddr: 0x164, symBinAddr: 0x2835C, symSize: 0x74 }
  - { offset: 0xB3A4C, size: 0x8, addend: 0x0, symName: '__ZN72_$LT$pyo3..pycell..PyRef$LT$T$GT$$u20$as$u20$core..ops..deref..Deref$GT$5deref17hfd91d52948711d48E', symObjAddr: 0x1D8, symBinAddr: 0x283D0, symSize: 0x74 }
  - { offset: 0xB3E5D, size: 0x8, addend: 0x0, symName: '__ZN57_$LT$T$u20$as$u20$pyo3..conversion..FromPyObjectBound$GT$20from_py_object_bound17h6be2633d646e81a3E', symObjAddr: 0xFC, symBinAddr: 0x282F4, symSize: 0x34 }
  - { offset: 0xB3E94, size: 0x8, addend: 0x0, symName: '__ZN57_$LT$T$u20$as$u20$pyo3..conversion..FromPyObjectBound$GT$20from_py_object_bound17h9ba55ae0c6a429b7E', symObjAddr: 0x130, symBinAddr: 0x28328, symSize: 0x34 }
  - { offset: 0xB3ED1, size: 0x8, addend: 0x0, symName: '__ZN79_$LT$pyo3..pycell..PyRef$LT$T$GT$$u20$as$u20$pyo3..conversion..FromPyObject$GT$13extract_bound17h56432a42f43f5b35E', symObjAddr: 0x24C, symBinAddr: 0x28444, symSize: 0x94 }
  - { offset: 0xB3F26, size: 0x8, addend: 0x0, symName: '__ZN79_$LT$pyo3..pycell..PyRef$LT$T$GT$$u20$as$u20$pyo3..conversion..FromPyObject$GT$13extract_bound17hd1adc82005ce27f5E', symObjAddr: 0x2E0, symBinAddr: 0x284D8, symSize: 0x94 }
  - { offset: 0xB4935, size: 0x8, addend: 0x0, symName: '__ZN4pyo36pycell14PyRef$LT$T$GT$10try_borrow17h11525a27402b1fc1E', symObjAddr: 0x0, symBinAddr: 0x281F8, symSize: 0x4C }
  - { offset: 0xB498C, size: 0x8, addend: 0x0, symName: '__ZN4pyo36pycell14PyRef$LT$T$GT$10try_borrow17h6b4ebb5bc94a3af6E', symObjAddr: 0x4C, symBinAddr: 0x28244, symSize: 0x4C }
  - { offset: 0xB4C6A, size: 0x8, addend: 0x0, symName: __ZN4pyo35types8sequence16extract_sequence17h5cd390fd3a001af3E, symObjAddr: 0x0, symBinAddr: 0x2856C, symSize: 0x3A8 }
  - { offset: 0xB6233, size: 0x8, addend: 0x0, symName: __ZN4pyo35types8sequence16extract_sequence17h5cd390fd3a001af3E, symObjAddr: 0x0, symBinAddr: 0x2856C, symSize: 0x3A8 }
  - { offset: 0xB6E13, size: 0x8, addend: 0x0, symName: '__ZN57_$LT$zip321..parse..Param$u20$as$u20$core..fmt..Debug$GT$3fmt17h4da8ce7654526258E', symObjAddr: 0x0, symBinAddr: 0x28914, symSize: 0x200 }
  - { offset: 0xB7427, size: 0x8, addend: 0x0, symName: '__ZN57_$LT$zip321..parse..Param$u20$as$u20$core..fmt..Debug$GT$3fmt17h4da8ce7654526258E', symObjAddr: 0x0, symBinAddr: 0x28914, symSize: 0x200 }
  - { offset: 0xB76C8, size: 0x8, addend: 0x0, symName: __ZN4pyo310exceptions15PyOverflowError7new_err17h56bbd5f7e20f5a6aE, symObjAddr: 0x0, symBinAddr: 0x28B14, symSize: 0x1C }
  - { offset: 0xB8A6E, size: 0x8, addend: 0x0, symName: '__ZN79_$LT$pyo3..exceptions..PyException$u20$as$u20$pyo3..type_object..PyTypeInfo$GT$15type_object_raw28_$u7b$$u7b$closure$u7d$$u7d$17h19e9a38a3c1c49bbE', symObjAddr: 0x4C, symBinAddr: 0x28B60, symSize: 0x4C }
  - { offset: 0xB8CB7, size: 0x8, addend: 0x0, symName: __ZN4pyo311type_object10PyTypeInfo11type_object17ha2a07c8601990ddaE, symObjAddr: 0x1C, symBinAddr: 0x28B30, symSize: 0x30 }
  - { offset: 0xB93AE, size: 0x8, addend: 0x0, symName: __ZN4pyo310exceptions15PyOverflowError7new_err17h56bbd5f7e20f5a6aE, symObjAddr: 0x0, symBinAddr: 0x28B14, symSize: 0x1C }
  - { offset: 0xB943C, size: 0x8, addend: 0x0, symName: '__ZN4core5slice29_$LT$impl$u20$$u5b$T$u5d$$GT$7reverse7revswap17h760a85c3fdcc30acE', symObjAddr: 0x0, symBinAddr: 0x28BAC, symSize: 0x2A8 }
  - { offset: 0xB9A3B, size: 0x8, addend: 0x0, symName: '__ZN4core5slice29_$LT$impl$u20$$u5b$T$u5d$$GT$7reverse7revswap17h760a85c3fdcc30acE', symObjAddr: 0x0, symBinAddr: 0x28BAC, symSize: 0x2A8 }
  - { offset: 0xB9BAC, size: 0x8, addend: 0x0, symName: '__ZN4core5slice29_$LT$impl$u20$$u5b$T$u5d$$GT$7reverse7revswap17hfeaef1b4bf4af776E', symObjAddr: 0x2A8, symBinAddr: 0x28E54, symSize: 0x2A8 }
  - { offset: 0xBA205, size: 0x8, addend: 0x0, symName: '__ZN137_$LT$alloc..collections..btree..dedup_sorted_iter..DedupSortedIter$LT$K$C$V$C$I$GT$$u20$as$u20$core..iter..traits..iterator..Iterator$GT$4next17h011bd688997f9e36E', symObjAddr: 0x0, symBinAddr: 0x290FC, symSize: 0x228 }
  - { offset: 0xBAA41, size: 0x8, addend: 0x0, symName: '__ZN137_$LT$alloc..collections..btree..dedup_sorted_iter..DedupSortedIter$LT$K$C$V$C$I$GT$$u20$as$u20$core..iter..traits..iterator..Iterator$GT$4next17h011bd688997f9e36E', symObjAddr: 0x0, symBinAddr: 0x290FC, symSize: 0x228 }
  - { offset: 0xBABA7, size: 0x8, addend: 0x0, symName: '__ZN137_$LT$alloc..collections..btree..dedup_sorted_iter..DedupSortedIter$LT$K$C$V$C$I$GT$$u20$as$u20$core..iter..traits..iterator..Iterator$GT$4next17ha0e29a3f5f6447fbE', symObjAddr: 0x228, symBinAddr: 0x29324, symSize: 0x228 }
  - { offset: 0xBAFFE, size: 0x8, addend: 0x0, symName: '__ZN4pyo35types5float64_$LT$impl$u20$pyo3..conversion..IntoPyObject$u20$for$u20$f64$GT$13into_pyobject17hb5a21c4cb974dd54E', symObjAddr: 0x0, symBinAddr: 0x2954C, symSize: 0x20 }
  - { offset: 0xBC147, size: 0x8, addend: 0x0, symName: '__ZN4pyo35types5float64_$LT$impl$u20$pyo3..conversion..IntoPyObject$u20$for$u20$f64$GT$13into_pyobject17hb5a21c4cb974dd54E', symObjAddr: 0x0, symBinAddr: 0x2954C, symSize: 0x20 }
  - { offset: 0xBC736, size: 0x8, addend: 0x0, symName: '__ZN108_$LT$alloc..collections..btree..map..Iter$LT$K$C$V$GT$$u20$as$u20$core..iter..traits..iterator..Iterator$GT$4next17hfc7c2a5b512aeef5E', symObjAddr: 0x0, symBinAddr: 0x2956C, symSize: 0xB0 }
  - { offset: 0xBE711, size: 0x8, addend: 0x0, symName: __ZN4core4iter6traits8iterator8Iterator3map17hc84b3ed0833d5da2E, symObjAddr: 0x804, symBinAddr: 0x29D70, symSize: 0x30 }
  - { offset: 0xBE77F, size: 0x8, addend: 0x0, symName: __ZN4core4iter6traits8iterator8Iterator3map17hd0eff442dda13c28E, symObjAddr: 0x834, symBinAddr: 0x29DA0, symSize: 0x30 }
  - { offset: 0xBE7ED, size: 0x8, addend: 0x0, symName: __ZN4core4iter6traits8iterator8Iterator3map17hf6a31fc06e0689f4E, symObjAddr: 0x864, symBinAddr: 0x29DD0, symSize: 0x30 }
  - { offset: 0xBE85B, size: 0x8, addend: 0x0, symName: __ZN4core4iter6traits8iterator8Iterator8try_fold17h51c1972329df151bE, symObjAddr: 0x894, symBinAddr: 0x29E00, symSize: 0x144 }
  - { offset: 0xBE942, size: 0x8, addend: 0x0, symName: '__ZN63_$LT$I$u20$as$u20$core..iter..traits..collect..IntoIterator$GT$9into_iter17h722b9b2ee6b6348dE', symObjAddr: 0x16EC, symBinAddr: 0x2AC58, symSize: 0x30 }
  - { offset: 0xC05E2, size: 0x8, addend: 0x0, symName: '__ZN108_$LT$alloc..collections..btree..map..Iter$LT$K$C$V$GT$$u20$as$u20$core..iter..traits..iterator..Iterator$GT$4next17hfc7c2a5b512aeef5E', symObjAddr: 0x0, symBinAddr: 0x2956C, symSize: 0xB0 }
  - { offset: 0xC066A, size: 0x8, addend: 0x0, symName: '__ZN108_$LT$alloc..collections..btree..map..Iter$LT$K$C$V$GT$$u20$as$u20$core..iter..traits..iterator..Iterator$GT$9size_hint17hd98d6ca78f4cde6aE', symObjAddr: 0xB0, symBinAddr: 0x2961C, symSize: 0x2C }
  - { offset: 0xC06E1, size: 0x8, addend: 0x0, symName: '__ZN110_$LT$alloc..collections..btree..map..Values$LT$K$C$V$GT$$u20$as$u20$core..iter..traits..iterator..Iterator$GT$4next17h923abfd8383e6aafE', symObjAddr: 0xDC, symBinAddr: 0x29648, symSize: 0x64 }
  - { offset: 0xC0767, size: 0x8, addend: 0x0, symName: '__ZN110_$LT$alloc..collections..btree..map..Values$LT$K$C$V$GT$$u20$as$u20$core..iter..traits..iterator..Iterator$GT$9size_hint17h7b3e7fa1f0b5f597E', symObjAddr: 0x140, symBinAddr: 0x296AC, symSize: 0x2C }
  - { offset: 0xC0808, size: 0x8, addend: 0x0, symName: '__ZN116_$LT$alloc..collections..btree..map..IntoIter$LT$K$C$V$C$A$GT$$u20$as$u20$core..iter..traits..iterator..Iterator$GT$4next17he036f62abbbe5c2fE', symObjAddr: 0x16C, symBinAddr: 0x296D8, symSize: 0x88 }
  - { offset: 0xC096B, size: 0x8, addend: 0x0, symName: '__ZN119_$LT$alloc..collections..btree..map..BTreeMap$LT$K$C$V$C$A$GT$$u20$as$u20$core..iter..traits..collect..IntoIterator$GT$9into_iter17h7bfc55c6ddc51becE', symObjAddr: 0x1F4, symBinAddr: 0x29760, symSize: 0x190 }
  - { offset: 0xC0AE3, size: 0x8, addend: 0x0, symName: '__ZN119_$LT$alloc..collections..btree..map..BTreeMap$LT$K$C$V$C$A$GT$$u20$as$u20$core..iter..traits..collect..IntoIterator$GT$9into_iter17hcf54d40e1ce84edcE', symObjAddr: 0x384, symBinAddr: 0x298F0, symSize: 0x190 }
  - { offset: 0xC0E1B, size: 0x8, addend: 0x0, symName: '__ZN136_$LT$alloc..collections..btree..map..BTreeMap$LT$K$C$V$GT$$u20$as$u20$core..iter..traits..collect..FromIterator$LT$$LP$K$C$V$RP$$GT$$GT$9from_iter17hbfa00fd3fe0fe37aE', symObjAddr: 0x514, symBinAddr: 0x29A80, symSize: 0x13C }
  - { offset: 0xC0F8A, size: 0x8, addend: 0x0, symName: '__ZN136_$LT$alloc..collections..btree..map..BTreeMap$LT$K$C$V$GT$$u20$as$u20$core..iter..traits..collect..FromIterator$LT$$LP$K$C$V$RP$$GT$$GT$9from_iter17hcf4add2544725dc2E', symObjAddr: 0x650, symBinAddr: 0x29BBC, symSize: 0x13C }
  - { offset: 0xC10FE, size: 0x8, addend: 0x0, symName: '__ZN136_$LT$alloc..collections..btree..map..BTreeMap$LT$K$C$V$GT$$u20$as$u20$core..iter..traits..collect..FromIterator$LT$$LP$K$C$V$RP$$GT$$GT$9from_iter28_$u7b$$u7b$closure$u7d$$u7d$17h9aef62d8bba60201E', symObjAddr: 0x78C, symBinAddr: 0x29CF8, symSize: 0x3C }
  - { offset: 0xC1161, size: 0x8, addend: 0x0, symName: '__ZN136_$LT$alloc..collections..btree..map..BTreeMap$LT$K$C$V$GT$$u20$as$u20$core..iter..traits..collect..FromIterator$LT$$LP$K$C$V$RP$$GT$$GT$9from_iter28_$u7b$$u7b$closure$u7d$$u7d$17hbd9bed8653d5ca85E', symObjAddr: 0x7C8, symBinAddr: 0x29D34, symSize: 0x3C }
  - { offset: 0xC2760, size: 0x8, addend: 0x0, symName: __ZN4pyo310conversion15IntoPyObjectExt17into_bound_py_any17h9743aa5cd52e412fE, symObjAddr: 0x9D8, symBinAddr: 0x29F44, symSize: 0xB4 }
  - { offset: 0xC2806, size: 0x8, addend: 0x0, symName: '__ZN4pyo311conversions3std3map114_$LT$impl$u20$pyo3..conversion..IntoPyObject$u20$for$u20$alloc..collections..btree..map..BTreeMap$LT$K$C$V$GT$$GT$13into_pyobject17h4df4bede392f5310E', symObjAddr: 0xA8C, symBinAddr: 0x29FF8, symSize: 0x204 }
  - { offset: 0xC2BF1, size: 0x8, addend: 0x0, symName: '__ZN5alloc11collections5btree3map21BTreeMap$LT$K$C$V$GT$3new17hb55b676fb83394b6E', symObjAddr: 0xC90, symBinAddr: 0x2A1FC, symSize: 0x24 }
  - { offset: 0xC2D43, size: 0x8, addend: 0x0, symName: '__ZN5alloc11collections5btree3map25BTreeMap$LT$K$C$V$C$A$GT$27bulk_build_from_sorted_iter17h6075b65822898c71E', symObjAddr: 0xCB4, symBinAddr: 0x2A220, symSize: 0x17C }
  - { offset: 0xC2F8B, size: 0x8, addend: 0x0, symName: '__ZN5alloc11collections5btree3map25BTreeMap$LT$K$C$V$C$A$GT$27bulk_build_from_sorted_iter17h8a468cad934b9844E', symObjAddr: 0xE30, symBinAddr: 0x2A39C, symSize: 0x17C }
  - { offset: 0xC30D2, size: 0x8, addend: 0x0, symName: '__ZN5alloc11collections5btree3map25BTreeMap$LT$K$C$V$C$A$GT$3len17hfd7556c186e3d0fbE', symObjAddr: 0xFAC, symBinAddr: 0x2A518, symSize: 0x18 }
  - { offset: 0xC319B, size: 0x8, addend: 0x0, symName: '__ZN5alloc11collections5btree3map25BTreeMap$LT$K$C$V$C$A$GT$4iter17h92f8c13c02d9b07cE', symObjAddr: 0xFC4, symBinAddr: 0x2A530, symSize: 0x124 }
  - { offset: 0xC3379, size: 0x8, addend: 0x0, symName: '__ZN5alloc11collections5btree3map25BTreeMap$LT$K$C$V$C$A$GT$5entry17h723d00faba04bcd2E', symObjAddr: 0x10E8, symBinAddr: 0x2A654, symSize: 0x240 }
  - { offset: 0xC3519, size: 0x8, addend: 0x0, symName: '__ZN5alloc11collections5btree3map25BTreeMap$LT$K$C$V$C$A$GT$6insert17hd57aaa4fcfd0adc1E', symObjAddr: 0x1328, symBinAddr: 0x2A894, symSize: 0x174 }
  - { offset: 0xC369E, size: 0x8, addend: 0x0, symName: '__ZN5alloc11collections5btree3map25BTreeMap$LT$K$C$V$C$A$GT$6values17h273b337bad3a4df0E', symObjAddr: 0x149C, symBinAddr: 0x2AA08, symSize: 0x130 }
  - { offset: 0xC37A2, size: 0x8, addend: 0x0, symName: '__ZN5alloc11collections5btree3map25IntoIter$LT$K$C$V$C$A$GT$10dying_next17h8fb646cc7ea95de6E', symObjAddr: 0x15CC, symBinAddr: 0x2AB38, symSize: 0x90 }
  - { offset: 0xC37ED, size: 0x8, addend: 0x0, symName: '__ZN5alloc11collections5btree3map25IntoIter$LT$K$C$V$C$A$GT$10dying_next17h9558489620d1e73eE', symObjAddr: 0x165C, symBinAddr: 0x2ABC8, symSize: 0x90 }
  - { offset: 0xC3F29, size: 0x8, addend: 0x0, symName: '__ZN82_$LT$usize$u20$as$u20$pyo3..impl_..callback..IntoPyCallbackOutput$LT$isize$GT$$GT$7convert17h7e2dfd7728122e80E', symObjAddr: 0x0, symBinAddr: 0x2AC88, symSize: 0x2C }
  - { offset: 0xC52E3, size: 0x8, addend: 0x0, symName: '__ZN82_$LT$usize$u20$as$u20$pyo3..impl_..callback..IntoPyCallbackOutput$LT$isize$GT$$GT$7convert17h7e2dfd7728122e80E', symObjAddr: 0x0, symBinAddr: 0x2AC88, symSize: 0x2C }
  - { offset: 0xC5BFC, size: 0x8, addend: 0x0, symName: '__ZN111_$LT$T$u20$as$u20$pyo3..impl_..callback..IntoPyCallbackOutput$LT$$BP$mut$u20$pyo3_ffi..object..PyObject$GT$$GT$7convert17hb5cffe16d58ccd3fE', symObjAddr: 0x0, symBinAddr: 0x2ACB4, symSize: 0x2C }
  - { offset: 0xC70F9, size: 0x8, addend: 0x0, symName: '__ZN111_$LT$T$u20$as$u20$pyo3..impl_..callback..IntoPyCallbackOutput$LT$$BP$mut$u20$pyo3_ffi..object..PyObject$GT$$GT$7convert17hb5cffe16d58ccd3fE', symObjAddr: 0x0, symBinAddr: 0x2ACB4, symSize: 0x2C }
  - { offset: 0xC7154, size: 0x8, addend: 0x0, symName: '__ZN80_$LT$T$u20$as$u20$pyo3..impl_..extract_argument..PyFunctionArgument$LT$_$GT$$GT$7extract17h2c3331c2d50ca9b8E', symObjAddr: 0x60, symBinAddr: 0x2AD14, symSize: 0x28 }
  - { offset: 0xC71BB, size: 0x8, addend: 0x0, symName: '__ZN57_$LT$T$u20$as$u20$pyo3..conversion..FromPyObjectBound$GT$20from_py_object_bound17hfb935c7f3ec73332E', symObjAddr: 0x2C, symBinAddr: 0x2ACE0, symSize: 0x34 }
  - { offset: 0xC7C3F, size: 0x8, addend: 0x0, symName: '__ZN102_$LT$core..iter..adapters..map..Map$LT$I$C$F$GT$$u20$as$u20$core..iter..traits..iterator..Iterator$GT$4next17ha999a7606570f24eE', symObjAddr: 0x0, symBinAddr: 0x2AD3C, symSize: 0xA8 }
  - { offset: 0xC9227, size: 0x8, addend: 0x0, symName: '__ZN102_$LT$core..iter..adapters..map..Map$LT$I$C$F$GT$$u20$as$u20$core..iter..traits..iterator..Iterator$GT$4next17ha999a7606570f24eE', symObjAddr: 0x0, symBinAddr: 0x2AD3C, symSize: 0xA8 }
  - { offset: 0xC92C3, size: 0x8, addend: 0x0, symName: '__ZN102_$LT$core..iter..adapters..map..Map$LT$I$C$F$GT$$u20$as$u20$core..iter..traits..iterator..Iterator$GT$4next17ha9aee3f9fa501566E', symObjAddr: 0xA8, symBinAddr: 0x2ADE4, symSize: 0xA8 }
  - { offset: 0xC935F, size: 0x8, addend: 0x0, symName: '__ZN102_$LT$core..iter..adapters..map..Map$LT$I$C$F$GT$$u20$as$u20$core..iter..traits..iterator..Iterator$GT$8try_fold17h7c64c56f5702d90cE', symObjAddr: 0x150, symBinAddr: 0x2AE8C, symSize: 0x54 }
  - { offset: 0xC9402, size: 0x8, addend: 0x0, symName: '__ZN102_$LT$core..iter..adapters..map..Map$LT$I$C$F$GT$$u20$as$u20$core..iter..traits..iterator..Iterator$GT$9size_hint17h44dd9f3fe16f7771E', symObjAddr: 0x1A4, symBinAddr: 0x2AEE0, symSize: 0x24 }
  - { offset: 0xC9449, size: 0x8, addend: 0x0, symName: '__ZN102_$LT$core..iter..adapters..map..Map$LT$I$C$F$GT$$u20$as$u20$core..iter..traits..iterator..Iterator$GT$9size_hint17h900b537af922b690E', symObjAddr: 0x1C8, symBinAddr: 0x2AF04, symSize: 0x24 }
  - { offset: 0xC9490, size: 0x8, addend: 0x0, symName: '__ZN102_$LT$core..iter..adapters..map..Map$LT$I$C$F$GT$$u20$as$u20$core..iter..traits..iterator..Iterator$GT$9size_hint17heae6438547044b8eE', symObjAddr: 0x1EC, symBinAddr: 0x2AF28, symSize: 0x24 }
  - { offset: 0xC9558, size: 0x8, addend: 0x0, symName: '__ZN4core4iter8adapters3map12map_try_fold28_$u7b$$u7b$closure$u7d$$u7d$17h5357001199e90c69E', symObjAddr: 0x43C, symBinAddr: 0x2B178, symSize: 0xA8 }
  - { offset: 0xC96DE, size: 0x8, addend: 0x0, symName: __ZN4core4iter6traits8iterator8Iterator7collect17h0e0978140558749aE, symObjAddr: 0x210, symBinAddr: 0x2AF4C, symSize: 0x6C }
  - { offset: 0xC9774, size: 0x8, addend: 0x0, symName: __ZN4core4iter6traits8iterator8Iterator7collect17h298d2cd3314d6c95E, symObjAddr: 0x27C, symBinAddr: 0x2AFB8, symSize: 0x74 }
  - { offset: 0xC980A, size: 0x8, addend: 0x0, symName: __ZN4core4iter6traits8iterator8Iterator7collect17h796d465cfd8c878cE, symObjAddr: 0x2F0, symBinAddr: 0x2B02C, symSize: 0x6C }
  - { offset: 0xC98A0, size: 0x8, addend: 0x0, symName: __ZN4core4iter6traits8iterator8Iterator7collect17ha75ee1914b8a91adE, symObjAddr: 0x35C, symBinAddr: 0x2B098, symSize: 0x6C }
  - { offset: 0xC9936, size: 0x8, addend: 0x0, symName: __ZN4core4iter6traits8iterator8Iterator7collect17hb0dc74a3e0f3c7faE, symObjAddr: 0x3C8, symBinAddr: 0x2B104, symSize: 0x74 }
  - { offset: 0xC99D8, size: 0x8, addend: 0x0, symName: '__ZN63_$LT$I$u20$as$u20$core..iter..traits..collect..IntoIterator$GT$9into_iter17h23260cc78a6dda5dE', symObjAddr: 0x4E4, symBinAddr: 0x2B220, symSize: 0x30 }
  - { offset: 0xC9A10, size: 0x8, addend: 0x0, symName: '__ZN63_$LT$I$u20$as$u20$core..iter..traits..collect..IntoIterator$GT$9into_iter17hbf6fddc5308f6652E', symObjAddr: 0x514, symBinAddr: 0x2B250, symSize: 0x30 }
  - { offset: 0xC9A48, size: 0x8, addend: 0x0, symName: '__ZN63_$LT$I$u20$as$u20$core..iter..traits..collect..IntoIterator$GT$9into_iter17hffe25465a59ebad5E', symObjAddr: 0x544, symBinAddr: 0x2B280, symSize: 0x30 }
  - { offset: 0xCC3FB, size: 0x8, addend: 0x0, symName: '__ZN103_$LT$pyo3..instance..Bound$LT$pyo3..types..any..PyAny$GT$$u20$as$u20$pyo3..types..any..PyAnyMethods$GT$2eq28_$u7b$$u7b$closure$u7d$$u7d$17h798bba7f0d7d808aE', symObjAddr: 0x0, symBinAddr: 0x2B2B0, symSize: 0x5C }
  - { offset: 0xCD826, size: 0x8, addend: 0x0, symName: '__ZN103_$LT$pyo3..instance..Bound$LT$pyo3..types..any..PyAny$GT$$u20$as$u20$pyo3..types..any..PyAnyMethods$GT$2eq28_$u7b$$u7b$closure$u7d$$u7d$17h798bba7f0d7d808aE', symObjAddr: 0x0, symBinAddr: 0x2B2B0, symSize: 0x5C }
  - { offset: 0xCD87B, size: 0x8, addend: 0x0, symName: '__ZN73_$LT$pyo3..types..any..PyAny$u20$as$u20$pyo3..type_object..PyTypeInfo$GT$15type_object_raw28_$u7b$$u7b$closure$u7d$$u7d$17h2e370250511011eeE', symObjAddr: 0x8C, symBinAddr: 0x2B33C, symSize: 0x18 }
  - { offset: 0xCD91C, size: 0x8, addend: 0x0, symName: __ZN4pyo311type_object10PyTypeInfo11type_object17h88c4187aa2b926e4E, symObjAddr: 0x5C, symBinAddr: 0x2B30C, symSize: 0x30 }
  - { offset: 0xCE2B3, size: 0x8, addend: 0x0, symName: '__ZN87_$LT$$BP$mut$u20$pyo3_ffi..object..PyObject$u20$as$u20$pyo3..ffi_ptr_ext..FfiPtrExt$GT$12assume_owned17h18225d8764553cecE', symObjAddr: 0x0, symBinAddr: 0x2B354, symSize: 0x24 }
  - { offset: 0xCE2E8, size: 0x8, addend: 0x0, symName: __ZN8pyo3_ffi6object10Py_IS_TYPE17hb03c679c738f8713E, symObjAddr: 0x90, symBinAddr: 0x2B3E4, symSize: 0x38 }
  - { offset: 0xCE322, size: 0x8, addend: 0x0, symName: __ZN8pyo3_ffi6object17PyType_HasFeature17hcf543994e55b6d6eE, symObjAddr: 0xC8, symBinAddr: 0x2B41C, symSize: 0x8C }
  - { offset: 0xCE37D, size: 0x8, addend: 0x0, symName: __ZN8pyo3_ffi6object17Py_NotImplemented17he10ab60b68f3bc9eE, symObjAddr: 0x154, symBinAddr: 0x2B4A8, symSize: 0xC }
  - { offset: 0xCE39B, size: 0x8, addend: 0x0, symName: __ZN8pyo3_ffi6object18PyObject_TypeCheck17h5d81dcf1377043cfE, symObjAddr: 0x160, symBinAddr: 0x2B4B4, symSize: 0x70 }
  - { offset: 0xCE3D8, size: 0x8, addend: 0x0, symName: __ZN8pyo3_ffi6object19PyType_FastSubclass17h05a7c505ea43f55fE, symObjAddr: 0x1D0, symBinAddr: 0x2B524, symSize: 0x28 }
  - { offset: 0xCE415, size: 0x8, addend: 0x0, symName: __ZN8pyo3_ffi6object7Py_None17h699a029d09d00daaE, symObjAddr: 0x1F8, symBinAddr: 0x2B54C, symSize: 0xC }
  - { offset: 0xCE433, size: 0x8, addend: 0x0, symName: __ZN8pyo3_ffi6object7Py_TYPE17h27843b6a745c79ccE, symObjAddr: 0x204, symBinAddr: 0x2B558, symSize: 0x74 }
  - { offset: 0xCF558, size: 0x8, addend: 0x0, symName: '__ZN87_$LT$$BP$mut$u20$pyo3_ffi..object..PyObject$u20$as$u20$pyo3..ffi_ptr_ext..FfiPtrExt$GT$12assume_owned17h18225d8764553cecE', symObjAddr: 0x0, symBinAddr: 0x2B354, symSize: 0x24 }
  - { offset: 0xCF59D, size: 0x8, addend: 0x0, symName: '__ZN87_$LT$$BP$mut$u20$pyo3_ffi..object..PyObject$u20$as$u20$pyo3..ffi_ptr_ext..FfiPtrExt$GT$15assume_borrowed17h5196c38e4e2dea58E', symObjAddr: 0x24, symBinAddr: 0x2B378, symSize: 0x24 }
  - { offset: 0xCF5E2, size: 0x8, addend: 0x0, symName: '__ZN87_$LT$$BP$mut$u20$pyo3_ffi..object..PyObject$u20$as$u20$pyo3..ffi_ptr_ext..FfiPtrExt$GT$22assume_borrowed_or_opt17hef7a947e447abbeeE', symObjAddr: 0x48, symBinAddr: 0x2B39C, symSize: 0x24 }
  - { offset: 0xCF627, size: 0x8, addend: 0x0, symName: '__ZN87_$LT$$BP$mut$u20$pyo3_ffi..object..PyObject$u20$as$u20$pyo3..ffi_ptr_ext..FfiPtrExt$GT$25assume_borrowed_unchecked17h8e37baf311b6860aE', symObjAddr: 0x6C, symBinAddr: 0x2B3C0, symSize: 0x24 }
  - { offset: 0xCFC42, size: 0x8, addend: 0x0, symName: __ZN3std9panicking12catch_unwind7do_call17h780879c1ec2cc04dE, symObjAddr: 0x0, symBinAddr: 0x2B5CC, symSize: 0x80 }
  - { offset: 0xD1FA8, size: 0x8, addend: 0x0, symName: __ZN3std9panicking12catch_unwind7do_call17h780879c1ec2cc04dE, symObjAddr: 0x0, symBinAddr: 0x2B5CC, symSize: 0x80 }
  - { offset: 0xD208F, size: 0x8, addend: 0x0, symName: __ZN3std9panicking12catch_unwind7do_call17h7f0dc7ae1a668d63E, symObjAddr: 0x80, symBinAddr: 0x2B64C, symSize: 0x8C }
  - { offset: 0xD2176, size: 0x8, addend: 0x0, symName: __ZN3std9panicking12catch_unwind7do_call17h93d77ff6c7b80c95E, symObjAddr: 0x10C, symBinAddr: 0x2B6D8, symSize: 0x74 }
  - { offset: 0xD225D, size: 0x8, addend: 0x0, symName: __ZN3std9panicking12catch_unwind7do_call17h993959e08aac3235E, symObjAddr: 0x180, symBinAddr: 0x2B74C, symSize: 0x90 }
  - { offset: 0xD2344, size: 0x8, addend: 0x0, symName: __ZN3std9panicking12catch_unwind7do_call17hcb085c2767ace157E, symObjAddr: 0x210, symBinAddr: 0x2B7DC, symSize: 0x80 }
  - { offset: 0xD242B, size: 0x8, addend: 0x0, symName: __ZN3std9panicking12catch_unwind7do_call17he078a39777f944e2E, symObjAddr: 0x290, symBinAddr: 0x2B85C, symSize: 0x8C }
  - { offset: 0xD2512, size: 0x8, addend: 0x0, symName: __ZN3std9panicking12catch_unwind7do_call17he794b8cafccbdb94E, symObjAddr: 0x31C, symBinAddr: 0x2B8E8, symSize: 0x80 }
  - { offset: 0xD25F9, size: 0x8, addend: 0x0, symName: __ZN3std9panicking12catch_unwind7do_call17hfeb8337b9603d05eE, symObjAddr: 0x39C, symBinAddr: 0x2B968, symSize: 0x80 }
  - { offset: 0xD26E0, size: 0x8, addend: 0x0, symName: __ZN3std9panicking12catch_unwind8do_catch17h1348cc42b059dc76E, symObjAddr: 0x41C, symBinAddr: 0x2B9E8, symSize: 0x70 }
  - { offset: 0xD2775, size: 0x8, addend: 0x0, symName: __ZN3std9panicking12catch_unwind8do_catch17h1c4fa5ef7fad653dE, symObjAddr: 0x48C, symBinAddr: 0x2BA58, symSize: 0x70 }
  - { offset: 0xD280A, size: 0x8, addend: 0x0, symName: __ZN3std9panicking12catch_unwind8do_catch17h2eb79d5d4745f8b1E, symObjAddr: 0x4FC, symBinAddr: 0x2BAC8, symSize: 0x70 }
  - { offset: 0xD289F, size: 0x8, addend: 0x0, symName: __ZN3std9panicking12catch_unwind8do_catch17h3ab80e6c87ccc59fE, symObjAddr: 0x56C, symBinAddr: 0x2BB38, symSize: 0x70 }
  - { offset: 0xD2934, size: 0x8, addend: 0x0, symName: __ZN3std9panicking12catch_unwind8do_catch17h646429cccb9aaed4E, symObjAddr: 0x5DC, symBinAddr: 0x2BBA8, symSize: 0x70 }
  - { offset: 0xD29C9, size: 0x8, addend: 0x0, symName: __ZN3std9panicking12catch_unwind8do_catch17h74c796e43d1f25c9E, symObjAddr: 0x64C, symBinAddr: 0x2BC18, symSize: 0x70 }
  - { offset: 0xD2A5E, size: 0x8, addend: 0x0, symName: __ZN3std9panicking12catch_unwind8do_catch17h9d9b7b0a29f9f44cE, symObjAddr: 0x6BC, symBinAddr: 0x2BC88, symSize: 0x70 }
  - { offset: 0xD2AF3, size: 0x8, addend: 0x0, symName: __ZN3std9panicking12catch_unwind8do_catch17ha6d8cfd77512c5d7E, symObjAddr: 0x72C, symBinAddr: 0x2BCF8, symSize: 0x70 }
  - { offset: 0xD3295, size: 0x8, addend: 0x0, symName: '__ZN4core3ptr9const_ptr33_$LT$impl$u20$$BP$const$u20$T$GT$20offset_from_unsigned18precondition_check17hf465addf525970b8E', symObjAddr: 0x0, symBinAddr: 0x2BD68, symSize: 0xAC }
  - { offset: 0xD357F, size: 0x8, addend: 0x0, symName: '__ZN4core3ptr9const_ptr33_$LT$impl$u20$$BP$const$u20$T$GT$20offset_from_unsigned18precondition_check17hf465addf525970b8E', symObjAddr: 0x0, symBinAddr: 0x2BD68, symSize: 0xAC }
  - { offset: 0xD367D, size: 0x8, addend: 0x0, symName: '__ZN4core3ptr9const_ptr33_$LT$impl$u20$$BP$const$u20$T$GT$6offset18precondition_check17h8390cbd761a62f49E', symObjAddr: 0xAC, symBinAddr: 0x2BE14, symSize: 0x110 }
  - { offset: 0xD3C02, size: 0x8, addend: 0x0, symName: '__ZN111_$LT$alloc..vec..Vec$LT$T$GT$$u20$as$u20$alloc..vec..spec_from_iter_nested..SpecFromIterNested$LT$T$C$I$GT$$GT$9from_iter17h083e2e4601641e11E', symObjAddr: 0x0, symBinAddr: 0x2BF24, symSize: 0x280 }
  - { offset: 0xD6904, size: 0x8, addend: 0x0, symName: '__ZN111_$LT$alloc..vec..Vec$LT$T$GT$$u20$as$u20$alloc..vec..spec_from_iter_nested..SpecFromIterNested$LT$T$C$I$GT$$GT$9from_iter17h083e2e4601641e11E', symObjAddr: 0x0, symBinAddr: 0x2BF24, symSize: 0x280 }
  - { offset: 0xD6BBE, size: 0x8, addend: 0x0, symName: '__ZN111_$LT$alloc..vec..Vec$LT$T$GT$$u20$as$u20$alloc..vec..spec_from_iter_nested..SpecFromIterNested$LT$T$C$I$GT$$GT$9from_iter17h8e8534940064219bE', symObjAddr: 0x280, symBinAddr: 0x2C1A4, symSize: 0x288 }
  - { offset: 0xD6E78, size: 0x8, addend: 0x0, symName: '__ZN111_$LT$alloc..vec..Vec$LT$T$GT$$u20$as$u20$alloc..vec..spec_from_iter_nested..SpecFromIterNested$LT$T$C$I$GT$$GT$9from_iter17hec960c8ceacac525E', symObjAddr: 0x508, symBinAddr: 0x2C42C, symSize: 0x280 }
  - { offset: 0xD764E, size: 0x8, addend: 0x0, symName: '__ZN90_$LT$alloc..vec..Vec$LT$T$C$A$GT$$u20$as$u20$core..iter..traits..collect..IntoIterator$GT$9into_iter17h2a291359c84c2970E', symObjAddr: 0x1638, symBinAddr: 0x2D55C, symSize: 0xE4 }
  - { offset: 0xD78E0, size: 0x8, addend: 0x0, symName: '__ZN90_$LT$alloc..vec..Vec$LT$T$C$A$GT$$u20$as$u20$core..iter..traits..collect..IntoIterator$GT$9into_iter17h3661096f77bd21b5E', symObjAddr: 0x171C, symBinAddr: 0x2D640, symSize: 0xE4 }
  - { offset: 0xD7B78, size: 0x8, addend: 0x0, symName: '__ZN95_$LT$alloc..vec..Vec$LT$T$GT$$u20$as$u20$core..iter..traits..collect..FromIterator$LT$T$GT$$GT$9from_iter17h5af1b2d1a7c2d32cE', symObjAddr: 0x1800, symBinAddr: 0x2D724, symSize: 0x3C }
  - { offset: 0xD7BB9, size: 0x8, addend: 0x0, symName: '__ZN95_$LT$alloc..vec..Vec$LT$T$GT$$u20$as$u20$core..iter..traits..collect..FromIterator$LT$T$GT$$GT$9from_iter17hba00cecd8d632470E', symObjAddr: 0x183C, symBinAddr: 0x2D760, symSize: 0x3C }
  - { offset: 0xD7BFA, size: 0x8, addend: 0x0, symName: '__ZN95_$LT$alloc..vec..Vec$LT$T$GT$$u20$as$u20$core..iter..traits..collect..FromIterator$LT$T$GT$$GT$9from_iter17hd88a5e4489d402c8E', symObjAddr: 0x1878, symBinAddr: 0x2D79C, symSize: 0x3C }
  - { offset: 0xD7C46, size: 0x8, addend: 0x0, symName: '__ZN97_$LT$alloc..vec..Vec$LT$T$C$A$GT$$u20$as$u20$alloc..vec..spec_extend..SpecExtend$LT$T$C$I$GT$$GT$11spec_extend17h4a1c59bec244043aE', symObjAddr: 0x18B4, symBinAddr: 0x2D7D8, symSize: 0x24 }
  - { offset: 0xD7C98, size: 0x8, addend: 0x0, symName: '__ZN97_$LT$alloc..vec..Vec$LT$T$C$A$GT$$u20$as$u20$alloc..vec..spec_extend..SpecExtend$LT$T$C$I$GT$$GT$11spec_extend17h825223574e809507E', symObjAddr: 0x18D8, symBinAddr: 0x2D7FC, symSize: 0x24 }
  - { offset: 0xD7CEA, size: 0x8, addend: 0x0, symName: '__ZN97_$LT$alloc..vec..Vec$LT$T$C$A$GT$$u20$as$u20$alloc..vec..spec_extend..SpecExtend$LT$T$C$I$GT$$GT$11spec_extend17heaeec1dc3a33b6d6E', symObjAddr: 0x18FC, symBinAddr: 0x2D820, symSize: 0x24 }
  - { offset: 0xD7D48, size: 0x8, addend: 0x0, symName: '__ZN98_$LT$alloc..vec..Vec$LT$T$GT$$u20$as$u20$alloc..vec..spec_from_iter..SpecFromIter$LT$T$C$I$GT$$GT$9from_iter17h34b2095837bcfd4cE', symObjAddr: 0x1920, symBinAddr: 0x2D844, symSize: 0x14 }
  - { offset: 0xD7D87, size: 0x8, addend: 0x0, symName: '__ZN98_$LT$alloc..vec..Vec$LT$T$GT$$u20$as$u20$alloc..vec..spec_from_iter..SpecFromIter$LT$T$C$I$GT$$GT$9from_iter17h9d7734788d528bebE', symObjAddr: 0x1934, symBinAddr: 0x2D858, symSize: 0x14 }
  - { offset: 0xD7DC6, size: 0x8, addend: 0x0, symName: '__ZN98_$LT$alloc..vec..Vec$LT$T$GT$$u20$as$u20$alloc..vec..spec_from_iter..SpecFromIter$LT$T$C$I$GT$$GT$9from_iter17hf73942d139897bc3E', symObjAddr: 0x1948, symBinAddr: 0x2D86C, symSize: 0x14 }
  - { offset: 0xD8A85, size: 0x8, addend: 0x0, symName: '__ZN5alloc5slice99_$LT$impl$u20$core..slice..sort..stable..BufGuard$LT$T$GT$$u20$for$u20$alloc..vec..Vec$LT$T$GT$$GT$13with_capacity17h20446b4c55a1bb3dE', symObjAddr: 0x13F8, symBinAddr: 0x2D31C, symSize: 0x4C }
  - { offset: 0xD8B26, size: 0x8, addend: 0x0, symName: '__ZN5alloc5slice99_$LT$impl$u20$core..slice..sort..stable..BufGuard$LT$T$GT$$u20$for$u20$alloc..vec..Vec$LT$T$GT$$GT$13with_capacity17h655c1b8a2712e9e6E', symObjAddr: 0x1444, symBinAddr: 0x2D368, symSize: 0x4C }
  - { offset: 0xD8BC7, size: 0x8, addend: 0x0, symName: '__ZN5alloc5slice99_$LT$impl$u20$core..slice..sort..stable..BufGuard$LT$T$GT$$u20$for$u20$alloc..vec..Vec$LT$T$GT$$GT$19as_uninit_slice_mut17h1f35abc7f1acd9b2E', symObjAddr: 0x1490, symBinAddr: 0x2D3B4, symSize: 0xD4 }
  - { offset: 0xD8D43, size: 0x8, addend: 0x0, symName: '__ZN5alloc5slice99_$LT$impl$u20$core..slice..sort..stable..BufGuard$LT$T$GT$$u20$for$u20$alloc..vec..Vec$LT$T$GT$$GT$19as_uninit_slice_mut17hef0b409262d9b666E', symObjAddr: 0x1564, symBinAddr: 0x2D488, symSize: 0xD4 }
  - { offset: 0xD98DA, size: 0x8, addend: 0x0, symName: __ZN4pyo310conversion15IntoPyObjectExt17into_bound_py_any17h1594f13cbf22f64eE, symObjAddr: 0x788, symBinAddr: 0x2C6AC, symSize: 0xB4 }
  - { offset: 0xD9970, size: 0x8, addend: 0x0, symName: '__ZN57_$LT$T$u20$as$u20$pyo3..conversion..FromPyObjectBound$GT$20from_py_object_bound17hff1aea1e16354a8bE', symObjAddr: 0x8E0, symBinAddr: 0x2C804, symSize: 0x34 }
  - { offset: 0xD99BD, size: 0x8, addend: 0x0, symName: '__ZN4pyo311conversions3std3vec85_$LT$impl$u20$pyo3..conversion..IntoPyObject$u20$for$u20$alloc..vec..Vec$LT$T$GT$$GT$13into_pyobject17h892c33a6e0f4f9d6E', symObjAddr: 0x83C, symBinAddr: 0x2C760, symSize: 0x1C }
  - { offset: 0xD9A1F, size: 0x8, addend: 0x0, symName: '__ZN4pyo35types8sequence85_$LT$impl$u20$pyo3..conversion..FromPyObject$u20$for$u20$alloc..vec..Vec$LT$T$GT$$GT$13extract_bound17h3acfa8ed129367bbE', symObjAddr: 0x858, symBinAddr: 0x2C77C, symSize: 0x88 }
  - { offset: 0xD9D3A, size: 0x8, addend: 0x0, symName: '__ZN5alloc3vec12Vec$LT$T$GT$3new17hb93b5f41ffef8d11E', symObjAddr: 0x914, symBinAddr: 0x2C838, symSize: 0x14 }
  - { offset: 0xD9D57, size: 0x8, addend: 0x0, symName: '__ZN5alloc3vec12Vec$LT$T$GT$3new17hc5ffec750f674cc2E', symObjAddr: 0x928, symBinAddr: 0x2C84C, symSize: 0x14 }
  - { offset: 0xD9F66, size: 0x8, addend: 0x0, symName: '__ZN5alloc3vec16Vec$LT$T$C$A$GT$16extend_desugared17h509e70389fef17b9E', symObjAddr: 0x93C, symBinAddr: 0x2C860, symSize: 0x1FC }
  - { offset: 0xDA3B0, size: 0x8, addend: 0x0, symName: '__ZN5alloc3vec16Vec$LT$T$C$A$GT$16extend_desugared17ha0f7060480a7ba07E', symObjAddr: 0xB38, symBinAddr: 0x2CA5C, symSize: 0x1FC }
  - { offset: 0xDADDB, size: 0x8, addend: 0x0, symName: '__ZN5alloc3vec16Vec$LT$T$C$A$GT$16extend_desugared17hc0146a8b045ad303E', symObjAddr: 0xD34, symBinAddr: 0x2CC58, symSize: 0x200 }
  - { offset: 0xDB0A4, size: 0x8, addend: 0x0, symName: '__ZN5alloc3vec16Vec$LT$T$C$A$GT$4push17h7576f4e1ef9e1478E', symObjAddr: 0xF34, symBinAddr: 0x2CE58, symSize: 0x30 }
  - { offset: 0xDB0E8, size: 0x8, addend: 0x0, symName: '__ZN5alloc3vec16Vec$LT$T$C$A$GT$4push17he879735f2a0aa55bE', symObjAddr: 0xF64, symBinAddr: 0x2CE88, symSize: 0x24 }
  - { offset: 0xDB264, size: 0x8, addend: 0x0, symName: '__ZN5alloc3vec16Vec$LT$T$C$A$GT$7reserve17h975c8a1380c74854E', symObjAddr: 0xF88, symBinAddr: 0x2CEAC, symSize: 0xC8 }
  - { offset: 0xDB4E1, size: 0x8, addend: 0x0, symName: '__ZN5alloc3vec16Vec$LT$T$C$A$GT$7reserve17hea9e57a47011b575E', symObjAddr: 0x1050, symBinAddr: 0x2CF74, symSize: 0xC8 }
  - { offset: 0xDB75E, size: 0x8, addend: 0x0, symName: '__ZN5alloc3vec16Vec$LT$T$C$A$GT$7reserve17hfd1860dd5611112dE', symObjAddr: 0x1118, symBinAddr: 0x2D03C, symSize: 0xC8 }
  - { offset: 0xDB9D8, size: 0x8, addend: 0x0, symName: '__ZN5alloc3vec16Vec$LT$T$C$A$GT$8push_mut17h2b6904d1613e7303E', symObjAddr: 0x11E0, symBinAddr: 0x2D104, symSize: 0xF4 }
  - { offset: 0xDBC77, size: 0x8, addend: 0x0, symName: '__ZN5alloc3vec16Vec$LT$T$C$A$GT$8push_mut17h43bd75f81232fff8E', symObjAddr: 0x12D4, symBinAddr: 0x2D1F8, symSize: 0x124 }
  - { offset: 0xDC47A, size: 0x8, addend: 0x0, symName: '__ZN100_$LT$core..iter..adapters..take..Take$LT$I$GT$$u20$as$u20$core..iter..traits..iterator..Iterator$GT$4next17h60ac352e2bf90170E', symObjAddr: 0x0, symBinAddr: 0x2D880, symSize: 0x58 }
  - { offset: 0xDC4BE, size: 0x8, addend: 0x0, symName: '__ZN100_$LT$core..iter..adapters..take..Take$LT$I$GT$$u20$as$u20$core..iter..traits..iterator..Iterator$GT$4next17h60ac352e2bf90170E', symObjAddr: 0x0, symBinAddr: 0x2D880, symSize: 0x58 }
  - { offset: 0xDC57D, size: 0x8, addend: 0x0, symName: __ZN4core4iter6traits8iterator8Iterator9enumerate17h97737cad6f414b1dE, symObjAddr: 0x58, symBinAddr: 0x2D8D8, symSize: 0x18 }
  - { offset: 0xDC5AE, size: 0x8, addend: 0x0, symName: __ZN4core4iter6traits8iterator8Iterator9enumerate17h97737cad6f414b1dE, symObjAddr: 0x58, symBinAddr: 0x2D8D8, symSize: 0x18 }
  - { offset: 0xDDD37, size: 0x8, addend: 0x0, symName: __ZN8pyo3_ffi13unicodeobject15PyUnicode_Check17hdb2beafffc66fbd5E, symObjAddr: 0x0, symBinAddr: 0x2D8F0, symSize: 0x30 }
  - { offset: 0xDE5D5, size: 0x8, addend: 0x0, symName: __ZN8pyo3_ffi13unicodeobject15PyUnicode_Check17hdb2beafffc66fbd5E, symObjAddr: 0x0, symBinAddr: 0x2D8F0, symSize: 0x30 }
  - { offset: 0xDF183, size: 0x8, addend: 0x0, symName: __ZN4pyo36marker6Python8get_type17h42a61b462776b036E, symObjAddr: 0x0, symBinAddr: 0x2D920, symSize: 0x1C }
  - { offset: 0xE09D6, size: 0x8, addend: 0x0, symName: __ZN4pyo36marker6Python8get_type17h42a61b462776b036E, symObjAddr: 0x0, symBinAddr: 0x2D920, symSize: 0x1C }
  - { offset: 0xE0A0E, size: 0x8, addend: 0x0, symName: __ZN4pyo36marker6Python8get_type17h4b1fdcfec180852eE, symObjAddr: 0x1C, symBinAddr: 0x2D93C, symSize: 0x1C }
  - { offset: 0xE0A46, size: 0x8, addend: 0x0, symName: __ZN4pyo36marker6Python8get_type17h5b5b3fbff5034ea4E, symObjAddr: 0x38, symBinAddr: 0x2D958, symSize: 0x1C }
  - { offset: 0xE0A7E, size: 0x8, addend: 0x0, symName: __ZN4pyo36marker6Python8get_type17h654d823da37a43c7E, symObjAddr: 0x54, symBinAddr: 0x2D974, symSize: 0x1C }
  - { offset: 0xE0AB6, size: 0x8, addend: 0x0, symName: __ZN4pyo36marker6Python8get_type17h6c0a28743eb90f31E, symObjAddr: 0x70, symBinAddr: 0x2D990, symSize: 0x1C }
  - { offset: 0xE0AEE, size: 0x8, addend: 0x0, symName: __ZN4pyo36marker6Python8get_type17h81b185b10d845e98E, symObjAddr: 0x8C, symBinAddr: 0x2D9AC, symSize: 0x1C }
  - { offset: 0xE0B26, size: 0x8, addend: 0x0, symName: __ZN4pyo36marker6Python8get_type17h96f7752f741d991dE, symObjAddr: 0xA8, symBinAddr: 0x2D9C8, symSize: 0x1C }
  - { offset: 0xE0B5E, size: 0x8, addend: 0x0, symName: __ZN4pyo36marker6Python8get_type17hb134f9beaeafdf63E, symObjAddr: 0xC4, symBinAddr: 0x2D9E4, symSize: 0x1C }
  - { offset: 0xE0B96, size: 0x8, addend: 0x0, symName: __ZN4pyo36marker6Python8get_type17hbc3974957f445166E, symObjAddr: 0xE0, symBinAddr: 0x2DA00, symSize: 0x1C }
  - { offset: 0xE0BCE, size: 0x8, addend: 0x0, symName: __ZN4pyo36marker6Python8get_type17hc438dfabea841d24E, symObjAddr: 0xFC, symBinAddr: 0x2DA1C, symSize: 0x1C }
  - { offset: 0xE0C24, size: 0x8, addend: 0x0, symName: '__ZN4core5slice29_$LT$impl$u20$$u5b$T$u5d$$GT$18split_at_unchecked18precondition_check17hb525e5b7ffcf35bcE', symObjAddr: 0x0, symBinAddr: 0x2DA38, symSize: 0xAC }
  - { offset: 0xE0F4B, size: 0x8, addend: 0x0, symName: '__ZN4core5slice29_$LT$impl$u20$$u5b$T$u5d$$GT$18split_at_unchecked18precondition_check17hb525e5b7ffcf35bcE', symObjAddr: 0x0, symBinAddr: 0x2DA38, symSize: 0xAC }
  - { offset: 0xE0FB9, size: 0x8, addend: 0x0, symName: '__ZN4core5slice29_$LT$impl$u20$$u5b$T$u5d$$GT$22split_at_mut_unchecked18precondition_check17h2dc2a7f4034b46ebE', symObjAddr: 0xAC, symBinAddr: 0x2DAE4, symSize: 0xAC }
  - { offset: 0xE11DA, size: 0x8, addend: 0x0, symName: '__ZN103_$LT$alloc..vec..into_iter..IntoIter$LT$T$C$A$GT$$u20$as$u20$core..iter..traits..iterator..Iterator$GT$4next17h90469605d042ba07E', symObjAddr: 0x0, symBinAddr: 0x2DB90, symSize: 0xE4 }
  - { offset: 0xE1A2D, size: 0x8, addend: 0x0, symName: __ZN4core4iter6traits10exact_size17ExactSizeIterator3len17h37eed3627210d51eE, symObjAddr: 0x280, symBinAddr: 0x2DE10, symSize: 0xC4 }
  - { offset: 0xE1B2C, size: 0x8, addend: 0x0, symName: __ZN4core4iter6traits10exact_size17ExactSizeIterator3len17he8f6b09a0efd34b9E, symObjAddr: 0x344, symBinAddr: 0x2DED4, symSize: 0xC4 }
  - { offset: 0xE1C37, size: 0x8, addend: 0x0, symName: __ZN4core4iter6traits8iterator8Iterator8peekable17h4793adaef852297cE, symObjAddr: 0x408, symBinAddr: 0x2DF98, symSize: 0x4C }
  - { offset: 0xE1C84, size: 0x8, addend: 0x0, symName: __ZN4core4iter6traits8iterator8Iterator8peekable17ha10116a13e13b426E, symObjAddr: 0x454, symBinAddr: 0x2DFE4, symSize: 0x4C }
  - { offset: 0xE1E8A, size: 0x8, addend: 0x0, symName: '__ZN103_$LT$alloc..vec..into_iter..IntoIter$LT$T$C$A$GT$$u20$as$u20$core..iter..traits..iterator..Iterator$GT$4next17h90469605d042ba07E', symObjAddr: 0x0, symBinAddr: 0x2DB90, symSize: 0xE4 }
  - { offset: 0xE1FFE, size: 0x8, addend: 0x0, symName: '__ZN103_$LT$alloc..vec..into_iter..IntoIter$LT$T$C$A$GT$$u20$as$u20$core..iter..traits..iterator..Iterator$GT$4next17he6cc3a7cbccd79d4E', symObjAddr: 0xE4, symBinAddr: 0x2DC74, symSize: 0xE4 }
  - { offset: 0xE2172, size: 0x8, addend: 0x0, symName: '__ZN103_$LT$alloc..vec..into_iter..IntoIter$LT$T$C$A$GT$$u20$as$u20$core..iter..traits..iterator..Iterator$GT$9size_hint17h2794cfa4e1d56e9bE', symObjAddr: 0x1C8, symBinAddr: 0x2DD58, symSize: 0x5C }
  - { offset: 0xE21CD, size: 0x8, addend: 0x0, symName: '__ZN103_$LT$alloc..vec..into_iter..IntoIter$LT$T$C$A$GT$$u20$as$u20$core..iter..traits..iterator..Iterator$GT$9size_hint17hd49f0cf55e0d191fE', symObjAddr: 0x224, symBinAddr: 0x2DDB4, symSize: 0x5C }
  - { offset: 0xE2569, size: 0x8, addend: 0x0, symName: '__ZN118_$LT$pyo3..impl_..pyclass..SendablePyClass$LT$T$GT$$u20$as$u20$pyo3..impl_..pyclass..PyClassThreadChecker$LT$T$GT$$GT$3new17h4414bc03d9bba875E', symObjAddr: 0x0, symBinAddr: 0x2E030, symSize: 0x4 }
  - { offset: 0xE3DB2, size: 0x8, addend: 0x0, symName: '__ZN118_$LT$pyo3..impl_..pyclass..SendablePyClass$LT$T$GT$$u20$as$u20$pyo3..impl_..pyclass..PyClassThreadChecker$LT$T$GT$$GT$3new17h4414bc03d9bba875E', symObjAddr: 0x0, symBinAddr: 0x2E030, symSize: 0x4 }
  - { offset: 0xE3DD6, size: 0x8, addend: 0x0, symName: '__ZN118_$LT$pyo3..impl_..pyclass..SendablePyClass$LT$T$GT$$u20$as$u20$pyo3..impl_..pyclass..PyClassThreadChecker$LT$T$GT$$GT$3new17h5f29569902d537ebE', symObjAddr: 0x4, symBinAddr: 0x2E034, symSize: 0x4 }
  - { offset: 0xE3DFA, size: 0x8, addend: 0x0, symName: '__ZN118_$LT$pyo3..impl_..pyclass..SendablePyClass$LT$T$GT$$u20$as$u20$pyo3..impl_..pyclass..PyClassThreadChecker$LT$T$GT$$GT$6ensure17h240cdb3bce9ae1e0E', symObjAddr: 0x8, symBinAddr: 0x2E038, symSize: 0x10 }
  - { offset: 0xE3E2D, size: 0x8, addend: 0x0, symName: '__ZN118_$LT$pyo3..impl_..pyclass..SendablePyClass$LT$T$GT$$u20$as$u20$pyo3..impl_..pyclass..PyClassThreadChecker$LT$T$GT$$GT$6ensure17he7062dbb74fccf4eE', symObjAddr: 0x18, symBinAddr: 0x2E048, symSize: 0x10 }
  - { offset: 0xE3E60, size: 0x8, addend: 0x0, symName: '__ZN118_$LT$pyo3..impl_..pyclass..SendablePyClass$LT$T$GT$$u20$as$u20$pyo3..impl_..pyclass..PyClassThreadChecker$LT$T$GT$$GT$8can_drop17h5b6beefdacd792d9E', symObjAddr: 0x28, symBinAddr: 0x2E058, symSize: 0x18 }
  - { offset: 0xE3EB2, size: 0x8, addend: 0x0, symName: '__ZN118_$LT$pyo3..impl_..pyclass..SendablePyClass$LT$T$GT$$u20$as$u20$pyo3..impl_..pyclass..PyClassThreadChecker$LT$T$GT$$GT$8can_drop17h88da9e6fc41fe7f8E', symObjAddr: 0x40, symBinAddr: 0x2E070, symSize: 0x18 }
  - { offset: 0xE3F05, size: 0x8, addend: 0x0, symName: __ZN4pyo35impl_7pyclass10tp_dealloc17h6c26ce5c9b3e8765E, symObjAddr: 0x58, symBinAddr: 0x2E088, symSize: 0x34 }
  - { offset: 0xE3F38, size: 0x8, addend: 0x0, symName: __ZN4pyo35impl_7pyclass10tp_dealloc17hf45622008de7e805E, symObjAddr: 0x8C, symBinAddr: 0x2E0BC, symSize: 0x34 }
  - { offset: 0xE3F70, size: 0x8, addend: 0x0, symName: __ZN4pyo35impl_7pyclass11PyClassDict10clear_dict17h2e71a6ea4d7f58b5E, symObjAddr: 0xC0, symBinAddr: 0x2E0F0, symSize: 0x10 }
  - { offset: 0xE3FC0, size: 0x8, addend: 0x0, symName: __ZN4pyo35impl_7pyclass14PyClassWeakRef14clear_weakrefs17h213158bc817f2133E, symObjAddr: 0xD0, symBinAddr: 0x2E100, symSize: 0x14 }
  - { offset: 0xE4019, size: 0x8, addend: 0x0, symName: __ZN4pyo35impl_7pyclass18tp_dealloc_with_gc17h9797efd059433caeE, symObjAddr: 0xE4, symBinAddr: 0x2E114, symSize: 0x4C }
  - { offset: 0xE406A, size: 0x8, addend: 0x0, symName: __ZN4pyo35impl_7pyclass18tp_dealloc_with_gc17hd6fe4f34ecfa7644E, symObjAddr: 0x130, symBinAddr: 0x2E160, symSize: 0x4C }
  - { offset: 0xE40C0, size: 0x8, addend: 0x0, symName: __ZN4pyo35impl_7pyclass25PyClass__ge__SlotFragment6__ge__17h24d2c593d5dcbb46E, symObjAddr: 0x17C, symBinAddr: 0x2E1AC, symSize: 0x6C }
  - { offset: 0xE413F, size: 0x8, addend: 0x0, symName: __ZN4pyo35impl_7pyclass25PyClass__gt__SlotFragment6__gt__17hb361671bd7e560bcE, symObjAddr: 0x1E8, symBinAddr: 0x2E218, symSize: 0x6C }
  - { offset: 0xE41BE, size: 0x8, addend: 0x0, symName: __ZN4pyo35impl_7pyclass25PyClass__le__SlotFragment6__le__17h5377401565581070E, symObjAddr: 0x254, symBinAddr: 0x2E284, symSize: 0x6C }
  - { offset: 0xE423D, size: 0x8, addend: 0x0, symName: __ZN4pyo35impl_7pyclass25PyClass__lt__SlotFragment6__lt__17h3df0d048a09adb34E, symObjAddr: 0x2C0, symBinAddr: 0x2E2F0, symSize: 0x6C }
  - { offset: 0xE42BC, size: 0x8, addend: 0x0, symName: __ZN4pyo35impl_7pyclass25PyClass__ne__SlotFragment6__ne__17had757e57a531c8c1E, symObjAddr: 0x32C, symBinAddr: 0x2E35C, symSize: 0xC4 }
  - { offset: 0xE4376, size: 0x8, addend: 0x0, symName: '__ZN4pyo35impl_7pyclass25PyClass__ne__SlotFragment6__ne__28_$u7b$$u7b$closure$u7d$$u7d$17h6790c0b115b0c591E', symObjAddr: 0x3F0, symBinAddr: 0x2E420, symSize: 0x30 }
  - { offset: 0xE4ECB, size: 0x8, addend: 0x0, symName: '__ZN4pyo35impl_7pyclass29PyClassImplCollector$LT$T$GT$3new17h013b787faa3e8d46E', symObjAddr: 0x420, symBinAddr: 0x2E450, symSize: 0x4 }
  - { offset: 0xE4EE8, size: 0x8, addend: 0x0, symName: '__ZN4pyo35impl_7pyclass29PyClassImplCollector$LT$T$GT$3new17h1364f58121ac3b49E', symObjAddr: 0x424, symBinAddr: 0x2E454, symSize: 0x4 }
  - { offset: 0xE51A4, size: 0x8, addend: 0x0, symName: '__ZN9zcash_uri9zcash_uri11__pyo3_init28_$u7b$$u7b$closure$u7d$$u7d$17hd4ce38da83d4345dE', symObjAddr: 0x0, symBinAddr: 0x2E458, symSize: 0x30 }
  - { offset: 0xE656B, size: 0x8, addend: 0x0, symName: '__ZN9zcash_uri9zcash_uri11__pyo3_init28_$u7b$$u7b$closure$u7d$$u7d$17hd4ce38da83d4345dE', symObjAddr: 0x0, symBinAddr: 0x2E458, symSize: 0x30 }
  - { offset: 0xE6EE8, size: 0x8, addend: 0x0, symName: '__ZN79_$LT$pyo3..types..string..PyString$u20$as$u20$pyo3..type_object..PyTypeInfo$GT$10is_type_of17hf02142cb401ed07dE', symObjAddr: 0x0, symBinAddr: 0x2E488, symSize: 0x30 }
  - { offset: 0xE7FA8, size: 0x8, addend: 0x0, symName: '__ZN79_$LT$pyo3..types..string..PyString$u20$as$u20$pyo3..type_object..PyTypeInfo$GT$10is_type_of17hf02142cb401ed07dE', symObjAddr: 0x0, symBinAddr: 0x2E488, symSize: 0x30 }
  - { offset: 0xE8576, size: 0x8, addend: 0x0, symName: '__ZN111_$LT$T$u20$as$u20$pyo3..impl_..callback..IntoPyCallbackOutput$LT$$BP$mut$u20$pyo3_ffi..object..PyObject$GT$$GT$7convert17h5155cea057fe7223E', symObjAddr: 0x0, symBinAddr: 0x2E4B8, symSize: 0x38 }
  - { offset: 0xE9C40, size: 0x8, addend: 0x0, symName: '__ZN111_$LT$T$u20$as$u20$pyo3..impl_..callback..IntoPyCallbackOutput$LT$$BP$mut$u20$pyo3_ffi..object..PyObject$GT$$GT$7convert17h5155cea057fe7223E', symObjAddr: 0x0, symBinAddr: 0x2E4B8, symSize: 0x38 }
  - { offset: 0xE9C8E, size: 0x8, addend: 0x0, symName: '__ZN111_$LT$T$u20$as$u20$pyo3..impl_..callback..IntoPyCallbackOutput$LT$$BP$mut$u20$pyo3_ffi..object..PyObject$GT$$GT$7convert17hcd0babdb9cd97e00E', symObjAddr: 0x38, symBinAddr: 0x2E4F0, symSize: 0x30 }
  - { offset: 0xE9CDD, size: 0x8, addend: 0x0, symName: __ZN4pyo35impl_8callback7convert17h00b7ee941943a714E, symObjAddr: 0x68, symBinAddr: 0x2E520, symSize: 0x1C }
  - { offset: 0xE9D35, size: 0x8, addend: 0x0, symName: __ZN4pyo35impl_8callback7convert17h1ab8919f4c0a3daeE, symObjAddr: 0x84, symBinAddr: 0x2E53C, symSize: 0x1C }
  - { offset: 0xE9D8D, size: 0x8, addend: 0x0, symName: __ZN4pyo35impl_8callback7convert17h394141eb3c686ff0E, symObjAddr: 0xA0, symBinAddr: 0x2E558, symSize: 0x28 }
  - { offset: 0xE9DE4, size: 0x8, addend: 0x0, symName: __ZN4pyo35impl_8callback7convert17h5bb00a09306c4b20E, symObjAddr: 0xC8, symBinAddr: 0x2E580, symSize: 0x28 }
  - { offset: 0xE9E3B, size: 0x8, addend: 0x0, symName: __ZN4pyo35impl_8callback7convert17h5f23eff4a2a2777dE, symObjAddr: 0xF0, symBinAddr: 0x2E5A8, symSize: 0x20 }
  - { offset: 0xE9E92, size: 0x8, addend: 0x0, symName: __ZN4pyo35impl_8callback7convert17h6ae038df7e2d728dE, symObjAddr: 0x110, symBinAddr: 0x2E5C8, symSize: 0x28 }
  - { offset: 0xE9EE9, size: 0x8, addend: 0x0, symName: __ZN4pyo35impl_8callback7convert17h79a799536942d79dE, symObjAddr: 0x138, symBinAddr: 0x2E5F0, symSize: 0x20 }
  - { offset: 0xE9F40, size: 0x8, addend: 0x0, symName: __ZN4pyo35impl_8callback7convert17haa6be61acbeb4d4dE, symObjAddr: 0x158, symBinAddr: 0x2E610, symSize: 0x24 }
  - { offset: 0xE9F97, size: 0x8, addend: 0x0, symName: __ZN4pyo35impl_8callback7convert17hd4384b86a34bbc5eE, symObjAddr: 0x17C, symBinAddr: 0x2E634, symSize: 0x24 }
  - { offset: 0xE9FEE, size: 0x8, addend: 0x0, symName: __ZN4pyo35impl_8callback7convert17he6cd8dd7c0b1ad42E, symObjAddr: 0x1A0, symBinAddr: 0x2E658, symSize: 0x24 }
  - { offset: 0xEA04F, size: 0x8, addend: 0x0, symName: '__ZN82_$LT$usize$u20$as$u20$pyo3..impl_..callback..IntoPyCallbackOutput$LT$isize$GT$$GT$7convert28_$u7b$$u7b$closure$u7d$$u7d$17haa7083b7d8b9901bE', symObjAddr: 0x1C4, symBinAddr: 0x2E67C, symSize: 0x1C }
  - { offset: 0xEAACD, size: 0x8, addend: 0x0, symName: '__ZN103_$LT$pyo3..instance..Bound$LT$pyo3..types..any..PyAny$GT$$u20$as$u20$pyo3..types..any..PyAnyMethods$GT$12rich_compare17h1e72625c12a6a1d3E', symObjAddr: 0x0, symBinAddr: 0x2E698, symSize: 0x140 }
  - { offset: 0xEB285, size: 0x8, addend: 0x0, symName: '__ZN4core5slice29_$LT$impl$u20$$u5b$T$u5d$$GT$4iter17h487c059649ab646fE', symObjAddr: 0x123C, symBinAddr: 0x2F8D4, symSize: 0x28 }
  - { offset: 0xED178, size: 0x8, addend: 0x0, symName: '__ZN63_$LT$I$u20$as$u20$core..iter..traits..collect..IntoIterator$GT$9into_iter17h0b363f4b05aa1d82E', symObjAddr: 0x1EC8, symBinAddr: 0x30560, symSize: 0x14 }
  - { offset: 0xED215, size: 0x8, addend: 0x0, symName: '__ZN103_$LT$pyo3..instance..Bound$LT$pyo3..types..any..PyAny$GT$$u20$as$u20$pyo3..types..any..PyAnyMethods$GT$12rich_compare17h1e72625c12a6a1d3E', symObjAddr: 0x0, symBinAddr: 0x2E698, symSize: 0x140 }
  - { offset: 0xED297, size: 0x8, addend: 0x0, symName: '__ZN103_$LT$pyo3..instance..Bound$LT$pyo3..types..any..PyAny$GT$$u20$as$u20$pyo3..types..any..PyAnyMethods$GT$14is_instance_of17h634d123958b01ddcE', symObjAddr: 0x140, symBinAddr: 0x2E7D8, symSize: 0x24 }
  - { offset: 0xED2CE, size: 0x8, addend: 0x0, symName: '__ZN103_$LT$pyo3..instance..Bound$LT$pyo3..types..any..PyAny$GT$$u20$as$u20$pyo3..types..any..PyAnyMethods$GT$18downcast_unchecked17h2de98986e66c0b1eE', symObjAddr: 0x164, symBinAddr: 0x2E7FC, symSize: 0x74 }
  - { offset: 0xED305, size: 0x8, addend: 0x0, symName: '__ZN103_$LT$pyo3..instance..Bound$LT$pyo3..types..any..PyAny$GT$$u20$as$u20$pyo3..types..any..PyAnyMethods$GT$18downcast_unchecked17h982c141a61d32ebfE', symObjAddr: 0x1D8, symBinAddr: 0x2E870, symSize: 0x74 }
  - { offset: 0xED33C, size: 0x8, addend: 0x0, symName: '__ZN103_$LT$pyo3..instance..Bound$LT$pyo3..types..any..PyAny$GT$$u20$as$u20$pyo3..types..any..PyAnyMethods$GT$18downcast_unchecked17haef161a01f6cb42bE', symObjAddr: 0x24C, symBinAddr: 0x2E8E4, symSize: 0x74 }
  - { offset: 0xED373, size: 0x8, addend: 0x0, symName: '__ZN103_$LT$pyo3..instance..Bound$LT$pyo3..types..any..PyAny$GT$$u20$as$u20$pyo3..types..any..PyAnyMethods$GT$18downcast_unchecked17hf585641ad284fe0cE', symObjAddr: 0x2C0, symBinAddr: 0x2E958, symSize: 0x74 }
  - { offset: 0xED3AA, size: 0x8, addend: 0x0, symName: '__ZN103_$LT$pyo3..instance..Bound$LT$pyo3..types..any..PyAny$GT$$u20$as$u20$pyo3..types..any..PyAnyMethods$GT$23downcast_into_unchecked17h619cc980e271a29dE', symObjAddr: 0x334, symBinAddr: 0x2E9CC, symSize: 0x14 }
  - { offset: 0xED3E1, size: 0x8, addend: 0x0, symName: '__ZN103_$LT$pyo3..instance..Bound$LT$pyo3..types..any..PyAny$GT$$u20$as$u20$pyo3..types..any..PyAnyMethods$GT$23downcast_into_unchecked17h80eb571287316037E', symObjAddr: 0x348, symBinAddr: 0x2E9E0, symSize: 0x14 }
  - { offset: 0xED418, size: 0x8, addend: 0x0, symName: '__ZN103_$LT$pyo3..instance..Bound$LT$pyo3..types..any..PyAny$GT$$u20$as$u20$pyo3..types..any..PyAnyMethods$GT$2eq17haaa1c344439337acE', symObjAddr: 0x35C, symBinAddr: 0x2E9F4, symSize: 0x48 }
  - { offset: 0xED45E, size: 0x8, addend: 0x0, symName: '__ZN103_$LT$pyo3..instance..Bound$LT$pyo3..types..any..PyAny$GT$$u20$as$u20$pyo3..types..any..PyAnyMethods$GT$7extract17h0853eddb55587502E', symObjAddr: 0x3A4, symBinAddr: 0x2EA3C, symSize: 0x30 }
  - { offset: 0xED495, size: 0x8, addend: 0x0, symName: '__ZN103_$LT$pyo3..instance..Bound$LT$pyo3..types..any..PyAny$GT$$u20$as$u20$pyo3..types..any..PyAnyMethods$GT$7extract17h4cab37b72585a39aE', symObjAddr: 0x3D4, symBinAddr: 0x2EA6C, symSize: 0x30 }
  - { offset: 0xED4CC, size: 0x8, addend: 0x0, symName: '__ZN103_$LT$pyo3..instance..Bound$LT$pyo3..types..any..PyAny$GT$$u20$as$u20$pyo3..types..any..PyAnyMethods$GT$7extract17h905fad740aeb4f8bE', symObjAddr: 0x404, symBinAddr: 0x2EA9C, symSize: 0x30 }
  - { offset: 0xED503, size: 0x8, addend: 0x0, symName: '__ZN103_$LT$pyo3..instance..Bound$LT$pyo3..types..any..PyAny$GT$$u20$as$u20$pyo3..types..any..PyAnyMethods$GT$7extract17h9df8e4ac993a46bcE', symObjAddr: 0x434, symBinAddr: 0x2EACC, symSize: 0x30 }
  - { offset: 0xED53A, size: 0x8, addend: 0x0, symName: '__ZN103_$LT$pyo3..instance..Bound$LT$pyo3..types..any..PyAny$GT$$u20$as$u20$pyo3..types..any..PyAnyMethods$GT$7extract17hb42f563794037a7aE', symObjAddr: 0x464, symBinAddr: 0x2EAFC, symSize: 0x30 }
  - { offset: 0xED571, size: 0x8, addend: 0x0, symName: '__ZN103_$LT$pyo3..instance..Bound$LT$pyo3..types..any..PyAny$GT$$u20$as$u20$pyo3..types..any..PyAnyMethods$GT$7extract17he4a1ef65eb06f1deE', symObjAddr: 0x494, symBinAddr: 0x2EB2C, symSize: 0x30 }
  - { offset: 0xED5A8, size: 0x8, addend: 0x0, symName: '__ZN103_$LT$pyo3..instance..Bound$LT$pyo3..types..any..PyAny$GT$$u20$as$u20$pyo3..types..any..PyAnyMethods$GT$7extract17heb56144afe9e25b7E', symObjAddr: 0x4C4, symBinAddr: 0x2EB5C, symSize: 0x30 }
  - { offset: 0xED5DF, size: 0x8, addend: 0x0, symName: '__ZN103_$LT$pyo3..instance..Bound$LT$pyo3..types..any..PyAny$GT$$u20$as$u20$pyo3..types..any..PyAnyMethods$GT$7extract17hf3919e8571062a6cE', symObjAddr: 0x4F4, symBinAddr: 0x2EB8C, symSize: 0x30 }
  - { offset: 0xED616, size: 0x8, addend: 0x0, symName: '__ZN103_$LT$pyo3..instance..Bound$LT$pyo3..types..any..PyAny$GT$$u20$as$u20$pyo3..types..any..PyAnyMethods$GT$8downcast17h1c8d8169afc71bb6E', symObjAddr: 0x524, symBinAddr: 0x2EBBC, symSize: 0x84 }
  - { offset: 0xED64D, size: 0x8, addend: 0x0, symName: '__ZN103_$LT$pyo3..instance..Bound$LT$pyo3..types..any..PyAny$GT$$u20$as$u20$pyo3..types..any..PyAnyMethods$GT$8downcast17h254b852cd3e30e84E', symObjAddr: 0x5A8, symBinAddr: 0x2EC40, symSize: 0x84 }
  - { offset: 0xED684, size: 0x8, addend: 0x0, symName: '__ZN103_$LT$pyo3..instance..Bound$LT$pyo3..types..any..PyAny$GT$$u20$as$u20$pyo3..types..any..PyAnyMethods$GT$8downcast17h76876b2a2a96ef9bE', symObjAddr: 0x62C, symBinAddr: 0x2ECC4, symSize: 0x84 }
  - { offset: 0xED6BB, size: 0x8, addend: 0x0, symName: '__ZN103_$LT$pyo3..instance..Bound$LT$pyo3..types..any..PyAny$GT$$u20$as$u20$pyo3..types..any..PyAnyMethods$GT$8downcast17ha41f8629a2af460fE', symObjAddr: 0x6B0, symBinAddr: 0x2ED48, symSize: 0x84 }
  - { offset: 0xED713, size: 0x8, addend: 0x0, symName: '__ZN107_$LT$pyo3..instance..Bound$LT$pyo3..types..dict..PyDict$GT$$u20$as$u20$pyo3..types..dict..PyDictMethods$GT$8set_item17h61e362602d5124d5E', symObjAddr: 0x734, symBinAddr: 0x2EDCC, symSize: 0x274 }
  - { offset: 0xED7E0, size: 0x8, addend: 0x0, symName: '__ZN115_$LT$pyo3..instance..Bound$LT$pyo3..types..module..PyModule$GT$$u20$as$u20$pyo3..types..module..PyModuleMethods$GT$3add17h44522bbca1be93c5E', symObjAddr: 0x9DC, symBinAddr: 0x2F074, symSize: 0x22C }
  - { offset: 0xED8AA, size: 0x8, addend: 0x0, symName: '__ZN115_$LT$pyo3..instance..Bound$LT$pyo3..types..module..PyModule$GT$$u20$as$u20$pyo3..types..module..PyModuleMethods$GT$3add17h63eb073f05335588E', symObjAddr: 0xC08, symBinAddr: 0x2F2A0, symSize: 0x258 }
  - { offset: 0xED975, size: 0x8, addend: 0x0, symName: '__ZN115_$LT$pyo3..instance..Bound$LT$pyo3..types..module..PyModule$GT$$u20$as$u20$pyo3..types..module..PyModuleMethods$GT$3add17h99d1c5bc56e500b8E', symObjAddr: 0xE60, symBinAddr: 0x2F4F8, symSize: 0x248 }
  - { offset: 0xEDA40, size: 0x8, addend: 0x0, symName: '__ZN115_$LT$pyo3..instance..Bound$LT$pyo3..types..module..PyModule$GT$$u20$as$u20$pyo3..types..module..PyModuleMethods$GT$9add_class17h7b26b69f8052ae69E', symObjAddr: 0x10A8, symBinAddr: 0x2F740, symSize: 0xB8 }
  - { offset: 0xEDAB4, size: 0x8, addend: 0x0, symName: '__ZN115_$LT$pyo3..instance..Bound$LT$pyo3..types..module..PyModule$GT$$u20$as$u20$pyo3..types..module..PyModuleMethods$GT$9add_class17hf67bafcc7bd8b7f1E', symObjAddr: 0x1160, symBinAddr: 0x2F7F8, symSize: 0xB8 }
  - { offset: 0xEDC27, size: 0x8, addend: 0x0, symName: '__ZN111_$LT$T$u20$as$u20$pyo3..impl_..callback..IntoPyCallbackOutput$LT$$BP$mut$u20$pyo3_ffi..object..PyObject$GT$$GT$7convert17h4ebac87ed9b4ebd1E', symObjAddr: 0x9A8, symBinAddr: 0x2F040, symSize: 0x34 }
  - { offset: 0xEDC81, size: 0x8, addend: 0x0, symName: '__ZN4pyo35impl_9pymethods133_$LT$impl$u20$core..convert..From$LT$pyo3..impl_..pymethods..BoundRef$LT$T$GT$$GT$$u20$for$u20$$RF$pyo3..instance..Bound$LT$T$GT$$GT$4from17he33979a68301c833E', symObjAddr: 0x12F4, symBinAddr: 0x2F98C, symSize: 0x14 }
  - { offset: 0xEDD47, size: 0x8, addend: 0x0, symName: '__ZN80_$LT$T$u20$as$u20$pyo3..impl_..extract_argument..PyFunctionArgument$LT$_$GT$$GT$7extract17h81ac625409fa30f0E', symObjAddr: 0x2094, symBinAddr: 0x3072C, symSize: 0x28 }
  - { offset: 0xEDD86, size: 0x8, addend: 0x0, symName: '__ZN80_$LT$T$u20$as$u20$pyo3..impl_..extract_argument..PyFunctionArgument$LT$_$GT$$GT$7extract17h858e590a4b159468E', symObjAddr: 0x20BC, symBinAddr: 0x30754, symSize: 0x28 }
  - { offset: 0xEDDD2, size: 0x8, addend: 0x0, symName: __ZN4pyo310conversion15IntoPyObjectExt22into_pyobject_or_pyerr17h42d994c2573d89adE, symObjAddr: 0x1264, symBinAddr: 0x2F8FC, symSize: 0x48 }
  - { offset: 0xEDE42, size: 0x8, addend: 0x0, symName: __ZN4pyo310conversion15IntoPyObjectExt22into_pyobject_or_pyerr17h78d93a7d36214fefE, symObjAddr: 0x12AC, symBinAddr: 0x2F944, symSize: 0x48 }
  - { offset: 0xEDEB8, size: 0x8, addend: 0x0, symName: '__ZN57_$LT$T$u20$as$u20$pyo3..conversion..FromPyObjectBound$GT$20from_py_object_bound17h5a9ab8408a94a415E', symObjAddr: 0x1E60, symBinAddr: 0x304F8, symSize: 0x34 }
  - { offset: 0xEDEEF, size: 0x8, addend: 0x0, symName: '__ZN57_$LT$T$u20$as$u20$pyo3..conversion..FromPyObjectBound$GT$20from_py_object_bound17h5db4a4e8569f3c73E', symObjAddr: 0x1E94, symBinAddr: 0x3052C, symSize: 0x34 }
  - { offset: 0xEDF2C, size: 0x8, addend: 0x0, symName: '__ZN81_$LT$pyo3..instance..Bound$LT$T$GT$$u20$as$u20$pyo3..conversion..IntoPyObject$GT$13into_pyobject17hd0bef6891f8d9c4cE', symObjAddr: 0x217C, symBinAddr: 0x30814, symSize: 0x14 }
  - { offset: 0xEE78C, size: 0x8, addend: 0x0, symName: '__ZN4pyo38instance39Borrowed$LT$pyo3..types..any..PyAny$GT$15from_ptr_or_opt28_$u7b$$u7b$closure$u7d$$u7d$17hc51faf584f0803eaE', symObjAddr: 0x1DC8, symBinAddr: 0x30460, symSize: 0x20 }
  - { offset: 0xEE9A5, size: 0x8, addend: 0x0, symName: '__ZN69_$LT$pyo3..instance..Bound$LT$T$GT$$u20$as$u20$core..clone..Clone$GT$5clone17h376121fcc68fd152E', symObjAddr: 0x1EDC, symBinAddr: 0x30574, symSize: 0x34 }
  - { offset: 0xEE9DC, size: 0x8, addend: 0x0, symName: '__ZN69_$LT$pyo3..instance..Bound$LT$T$GT$$u20$as$u20$core..clone..Clone$GT$5clone17ha89b8e12efd3415dE', symObjAddr: 0x1F10, symBinAddr: 0x305A8, symSize: 0x34 }
  - { offset: 0xEEA13, size: 0x8, addend: 0x0, symName: '__ZN69_$LT$pyo3..instance..Bound$LT$T$GT$$u20$as$u20$core..clone..Clone$GT$5clone17hee0cc7abfbeea279E', symObjAddr: 0x1F44, symBinAddr: 0x305DC, symSize: 0x34 }
  - { offset: 0xEEA4A, size: 0x8, addend: 0x0, symName: '__ZN69_$LT$pyo3..instance..Bound$LT$T$GT$$u20$as$u20$core..clone..Clone$GT$5clone17hf6e92b673c06080dE', symObjAddr: 0x1F78, symBinAddr: 0x30610, symSize: 0x34 }
  - { offset: 0xEEA87, size: 0x8, addend: 0x0, symName: '__ZN77_$LT$pyo3..instance..Borrowed$LT$T$GT$$u20$as$u20$core..ops..deref..Deref$GT$5deref17h27cf93652934995fE', symObjAddr: 0x1FAC, symBinAddr: 0x30644, symSize: 0x74 }
  - { offset: 0xEEABE, size: 0x8, addend: 0x0, symName: '__ZN77_$LT$pyo3..instance..Borrowed$LT$T$GT$$u20$as$u20$core..ops..deref..Deref$GT$5deref17h2d33cef5cd8f5cb8E', symObjAddr: 0x2020, symBinAddr: 0x306B8, symSize: 0x74 }
  - { offset: 0xEEAFB, size: 0x8, addend: 0x0, symName: '__ZN81_$LT$pyo3..instance..Bound$LT$T$GT$$u20$as$u20$pyo3..conversion..FromPyObject$GT$13extract_bound17h50d433dba5995631E', symObjAddr: 0x20E4, symBinAddr: 0x3077C, symSize: 0x4C }
  - { offset: 0xEEB32, size: 0x8, addend: 0x0, symName: '__ZN81_$LT$pyo3..instance..Bound$LT$T$GT$$u20$as$u20$pyo3..conversion..FromPyObject$GT$13extract_bound17hb9669080ece4c9baE', symObjAddr: 0x2130, symBinAddr: 0x307C8, symSize: 0x4C }
  - { offset: 0xEEB6F, size: 0x8, addend: 0x0, symName: '__ZN87_$LT$pyo3..instance..Bound$LT$T$GT$$u20$as$u20$pyo3..instance..BoundObject$LT$T$GT$$GT$8into_any17h1fe642e79ba38433E', symObjAddr: 0x2190, symBinAddr: 0x30828, symSize: 0x24 }
  - { offset: 0xEEBA6, size: 0x8, addend: 0x0, symName: '__ZN87_$LT$pyo3..instance..Bound$LT$T$GT$$u20$as$u20$pyo3..instance..BoundObject$LT$T$GT$$GT$8into_any17h3280fc8d4e3db6e6E', symObjAddr: 0x21B4, symBinAddr: 0x3084C, symSize: 0x24 }
  - { offset: 0xEEBDD, size: 0x8, addend: 0x0, symName: '__ZN87_$LT$pyo3..instance..Bound$LT$T$GT$$u20$as$u20$pyo3..instance..BoundObject$LT$T$GT$$GT$8into_any17h8b195059ce5ae432E', symObjAddr: 0x21D8, symBinAddr: 0x30870, symSize: 0x24 }
  - { offset: 0xEEC14, size: 0x8, addend: 0x0, symName: '__ZN87_$LT$pyo3..instance..Bound$LT$T$GT$$u20$as$u20$pyo3..instance..BoundObject$LT$T$GT$$GT$8into_any17hd99ab75d6e3e937cE', symObjAddr: 0x21FC, symBinAddr: 0x30894, symSize: 0x24 }
  - { offset: 0xEEC4B, size: 0x8, addend: 0x0, symName: '__ZN87_$LT$pyo3..instance..Bound$LT$T$GT$$u20$as$u20$pyo3..instance..BoundObject$LT$T$GT$$GT$8into_ptr17h086c5eed56183962E', symObjAddr: 0x2220, symBinAddr: 0x308B8, symSize: 0x24 }
  - { offset: 0xEEC82, size: 0x8, addend: 0x0, symName: '__ZN87_$LT$pyo3..instance..Bound$LT$T$GT$$u20$as$u20$pyo3..instance..BoundObject$LT$T$GT$$GT$8into_ptr17h16915ffee832f757E', symObjAddr: 0x2244, symBinAddr: 0x308DC, symSize: 0x24 }
  - { offset: 0xEECBF, size: 0x8, addend: 0x0, symName: '__ZN90_$LT$pyo3..instance..Borrowed$LT$T$GT$$u20$as$u20$pyo3..instance..BoundObject$LT$T$GT$$GT$8into_ptr17h5dfafe8e018ff9c3E', symObjAddr: 0x2268, symBinAddr: 0x30900, symSize: 0x30 }
  - { offset: 0xEF164, size: 0x8, addend: 0x0, symName: '__ZN44_$LT$T$u20$as$u20$alloc..borrow..ToOwned$GT$8to_owned17h1ab771465201fbf2E', symObjAddr: 0x1218, symBinAddr: 0x2F8B0, symSize: 0x24 }
  - { offset: 0xEF9D1, size: 0x8, addend: 0x0, symName: '__ZN4pyo38instance11Py$LT$T$GT$10into_bound17h0c7a956fd0bf3cd0E', symObjAddr: 0x1308, symBinAddr: 0x2F9A0, symSize: 0x1C }
  - { offset: 0xEFA18, size: 0x8, addend: 0x0, symName: '__ZN4pyo38instance11Py$LT$T$GT$10into_bound17h981b6d840c215a7bE', symObjAddr: 0x1324, symBinAddr: 0x2F9BC, symSize: 0x1C }
  - { offset: 0xEFA5F, size: 0x8, addend: 0x0, symName: '__ZN4pyo38instance11Py$LT$T$GT$13from_non_null17h8d0113090292ef7cE', symObjAddr: 0x1340, symBinAddr: 0x2F9D8, symSize: 0x14 }
  - { offset: 0xEFA8B, size: 0x8, addend: 0x0, symName: '__ZN4pyo38instance11Py$LT$T$GT$13from_non_null17h94b18f7397ab7fbcE', symObjAddr: 0x1354, symBinAddr: 0x2F9EC, symSize: 0x14 }
  - { offset: 0xEFAB7, size: 0x8, addend: 0x0, symName: '__ZN4pyo38instance11Py$LT$T$GT$13from_non_null17h9a802135cf0fbafbE', symObjAddr: 0x1368, symBinAddr: 0x2FA00, symSize: 0x14 }
  - { offset: 0xEFAE3, size: 0x8, addend: 0x0, symName: '__ZN4pyo38instance11Py$LT$T$GT$13from_non_null17hf9faf3efd6c7f562E', symObjAddr: 0x137C, symBinAddr: 0x2FA14, symSize: 0x14 }
  - { offset: 0xEFB29, size: 0x8, addend: 0x0, symName: '__ZN4pyo38instance11Py$LT$T$GT$16get_class_object17h2069bc35497d5e25E', symObjAddr: 0x1390, symBinAddr: 0x2FA28, symSize: 0x78 }
  - { offset: 0xEFB85, size: 0x8, addend: 0x0, symName: '__ZN4pyo38instance11Py$LT$T$GT$16get_class_object17h6af6fa3972461d58E', symObjAddr: 0x1408, symBinAddr: 0x2FAA0, symSize: 0x78 }
  - { offset: 0xEFBC7, size: 0x8, addend: 0x0, symName: '__ZN4pyo38instance11Py$LT$T$GT$6as_ptr17h01c6eb64c262e7b1E', symObjAddr: 0x1480, symBinAddr: 0x2FB18, symSize: 0x1C }
  - { offset: 0xEFBF3, size: 0x8, addend: 0x0, symName: '__ZN4pyo38instance11Py$LT$T$GT$6as_ptr17h0eca874ac14ebe93E', symObjAddr: 0x149C, symBinAddr: 0x2FB34, symSize: 0x1C }
  - { offset: 0xEFC2C, size: 0x8, addend: 0x0, symName: '__ZN4pyo38instance11Py$LT$T$GT$6as_ptr17h2353058cbdccba46E', symObjAddr: 0x14B8, symBinAddr: 0x2FB50, symSize: 0x1C }
  - { offset: 0xEFC58, size: 0x8, addend: 0x0, symName: '__ZN4pyo38instance11Py$LT$T$GT$8into_any17h21894850461ad87dE', symObjAddr: 0x14D4, symBinAddr: 0x2FB6C, symSize: 0x3C }
  - { offset: 0xEFC84, size: 0x8, addend: 0x0, symName: '__ZN4pyo38instance11Py$LT$T$GT$8into_any17h40b378053cbd7ad9E', symObjAddr: 0x1510, symBinAddr: 0x2FBA8, symSize: 0x3C }
  - { offset: 0xEFCB0, size: 0x8, addend: 0x0, symName: '__ZN4pyo38instance11Py$LT$T$GT$8into_any17hd565ca6f620687d9E', symObjAddr: 0x154C, symBinAddr: 0x2FBE4, symSize: 0x3C }
  - { offset: 0xEFCDC, size: 0x8, addend: 0x0, symName: '__ZN4pyo38instance11Py$LT$T$GT$8into_ptr17h1dbd18e066a72069E', symObjAddr: 0x1588, symBinAddr: 0x2FC20, symSize: 0x30 }
  - { offset: 0xEFD08, size: 0x8, addend: 0x0, symName: '__ZN4pyo38instance11Py$LT$T$GT$9clone_ref17h291e4e7f75e21cf6E', symObjAddr: 0x15B8, symBinAddr: 0x2FC50, symSize: 0xF8 }
  - { offset: 0xEFD6D, size: 0x8, addend: 0x0, symName: '__ZN4pyo38instance11Py$LT$T$GT$9clone_ref17h3b3aedc66e60299cE', symObjAddr: 0x16B0, symBinAddr: 0x2FD48, symSize: 0xF8 }
  - { offset: 0xEFDDF, size: 0x8, addend: 0x0, symName: '__ZN4pyo38instance11Py$LT$T$GT$9clone_ref17h443a26ce2ade318fE', symObjAddr: 0x17A8, symBinAddr: 0x2FE40, symSize: 0xF8 }
  - { offset: 0xEFE44, size: 0x8, addend: 0x0, symName: '__ZN4pyo38instance11Py$LT$T$GT$9clone_ref17h44a8566995be0bf5E', symObjAddr: 0x18A0, symBinAddr: 0x2FF38, symSize: 0xF8 }
  - { offset: 0xEFEB6, size: 0x8, addend: 0x0, symName: '__ZN4pyo38instance14Bound$LT$T$GT$10try_borrow17h18cd8fe4074883c7E', symObjAddr: 0x1998, symBinAddr: 0x30030, symSize: 0x24 }
  - { offset: 0xEFEEF, size: 0x8, addend: 0x0, symName: '__ZN4pyo38instance14Bound$LT$T$GT$10try_borrow17h494602f20edea1c5E', symObjAddr: 0x19BC, symBinAddr: 0x30054, symSize: 0x24 }
  - { offset: 0xEFF1B, size: 0x8, addend: 0x0, symName: '__ZN4pyo38instance14Bound$LT$T$GT$16get_class_object17h40e459f9de55cdd6E', symObjAddr: 0x19E0, symBinAddr: 0x30078, symSize: 0x2C }
  - { offset: 0xEFF47, size: 0x8, addend: 0x0, symName: '__ZN4pyo38instance14Bound$LT$T$GT$16get_class_object17h4bf3bb2bf8f1638bE', symObjAddr: 0x1A0C, symBinAddr: 0x300A4, symSize: 0x2C }
  - { offset: 0xF015A, size: 0x8, addend: 0x0, symName: '__ZN4pyo38instance14Bound$LT$T$GT$3new17h6d9f29a98e736abbE', symObjAddr: 0x1A38, symBinAddr: 0x300D0, symSize: 0x3C }
  - { offset: 0xF01A8, size: 0x8, addend: 0x0, symName: '__ZN4pyo38instance14Bound$LT$T$GT$3new17hf2b40fa01717fd78E', symObjAddr: 0x1A74, symBinAddr: 0x3010C, symSize: 0x3C }
  - { offset: 0xF01F6, size: 0x8, addend: 0x0, symName: '__ZN4pyo38instance14Bound$LT$T$GT$6as_ptr17h27500367684beb37E', symObjAddr: 0x1AB0, symBinAddr: 0x30148, symSize: 0x2C }
  - { offset: 0xF0222, size: 0x8, addend: 0x0, symName: '__ZN4pyo38instance14Bound$LT$T$GT$6as_ptr17h861f6522ce5d60dfE', symObjAddr: 0x1ADC, symBinAddr: 0x30174, symSize: 0x2C }
  - { offset: 0xF024E, size: 0x8, addend: 0x0, symName: '__ZN4pyo38instance14Bound$LT$T$GT$6unbind17h92cb3ae8c6e1f317E', symObjAddr: 0x1B08, symBinAddr: 0x301A0, symSize: 0x48 }
  - { offset: 0xF0298, size: 0x8, addend: 0x0, symName: '__ZN4pyo38instance14Bound$LT$T$GT$6unbind17hab92129c93053b11E', symObjAddr: 0x1B50, symBinAddr: 0x301E8, symSize: 0x48 }
  - { offset: 0xF02E2, size: 0x8, addend: 0x0, symName: '__ZN4pyo38instance14Bound$LT$T$GT$6unbind17hcd556f5c39324451E', symObjAddr: 0x1B98, symBinAddr: 0x30230, symSize: 0x48 }
  - { offset: 0xF032C, size: 0x8, addend: 0x0, symName: '__ZN4pyo38instance14Bound$LT$T$GT$8into_any17h405335c3eaf0d9f0E', symObjAddr: 0x1BE0, symBinAddr: 0x30278, symSize: 0x30 }
  - { offset: 0xF0358, size: 0x8, addend: 0x0, symName: '__ZN4pyo38instance14Bound$LT$T$GT$8into_any17h550418a67b43beb3E', symObjAddr: 0x1C10, symBinAddr: 0x302A8, symSize: 0x30 }
  - { offset: 0xF0384, size: 0x8, addend: 0x0, symName: '__ZN4pyo38instance14Bound$LT$T$GT$8into_any17hb1df98c23ba21ae0E', symObjAddr: 0x1C40, symBinAddr: 0x302D8, symSize: 0x30 }
  - { offset: 0xF03B0, size: 0x8, addend: 0x0, symName: '__ZN4pyo38instance14Bound$LT$T$GT$8into_ptr17h5e05eaee8f4cf650E', symObjAddr: 0x1C70, symBinAddr: 0x30308, symSize: 0x40 }
  - { offset: 0xF03DC, size: 0x8, addend: 0x0, symName: '__ZN4pyo38instance14Bound$LT$T$GT$8into_ptr17h78aeaefc619e5abeE', symObjAddr: 0x1CB0, symBinAddr: 0x30348, symSize: 0x40 }
  - { offset: 0xF0408, size: 0x8, addend: 0x0, symName: '__ZN4pyo38instance14Bound$LT$T$GT$8into_ptr17h99f4c23d7e24829eE', symObjAddr: 0x1CF0, symBinAddr: 0x30388, symSize: 0x40 }
  - { offset: 0xF0434, size: 0x8, addend: 0x0, symName: '__ZN4pyo38instance14Bound$LT$T$GT$8into_ptr17hf67cc8964f53fdd9E', symObjAddr: 0x1D30, symBinAddr: 0x303C8, symSize: 0x40 }
  - { offset: 0xF0460, size: 0x8, addend: 0x0, symName: '__ZN4pyo38instance17Borrowed$LT$T$GT$8to_owned17h1c003a1fdacb89e3E', symObjAddr: 0x1D70, symBinAddr: 0x30408, symSize: 0x2C }
  - { offset: 0xF048C, size: 0x8, addend: 0x0, symName: '__ZN4pyo38instance17Borrowed$LT$T$GT$8to_owned17h51273193d0b9560bE', symObjAddr: 0x1D9C, symBinAddr: 0x30434, symSize: 0x2C }
  - { offset: 0xF04C5, size: 0x8, addend: 0x0, symName: '__ZN4pyo38instance39Borrowed$LT$pyo3..types..any..PyAny$GT$18downcast_unchecked17h1f5e66315992fdc5E', symObjAddr: 0x1DE8, symBinAddr: 0x30480, symSize: 0x14 }
  - { offset: 0xF04FE, size: 0x8, addend: 0x0, symName: '__ZN4pyo38instance39Borrowed$LT$pyo3..types..any..PyAny$GT$18downcast_unchecked17h4f44a52a6a7969f8E', symObjAddr: 0x1DFC, symBinAddr: 0x30494, symSize: 0x14 }
  - { offset: 0xF0537, size: 0x8, addend: 0x0, symName: '__ZN4pyo38instance39Borrowed$LT$pyo3..types..any..PyAny$GT$18downcast_unchecked17h9ca6678370aa54daE', symObjAddr: 0x1E10, symBinAddr: 0x304A8, symSize: 0x14 }
  - { offset: 0xF0563, size: 0x8, addend: 0x0, symName: '__ZN4pyo38instance39Borrowed$LT$pyo3..types..any..PyAny$GT$18downcast_unchecked17hdd5bf6354ea64ff4E', symObjAddr: 0x1E24, symBinAddr: 0x304BC, symSize: 0x14 }
  - { offset: 0xF059C, size: 0x8, addend: 0x0, symName: '__ZN4pyo38internal8get_slot78_$LT$impl$u20$pyo3..instance..Bound$LT$pyo3..types..typeobject..PyType$GT$$GT$8get_slot17hbcd977baa393a7deE', symObjAddr: 0x1E38, symBinAddr: 0x304D0, symSize: 0x28 }
  - { offset: 0xF072B, size: 0x8, addend: 0x0, symName: '__ZN100_$LT$pyo3..pycell..impl_..MutableClass$u20$as$u20$pyo3..pycell..impl_..GetBorrowChecker$LT$T$GT$$GT$14borrow_checker17h6528b31fad87144fE', symObjAddr: 0x0, symBinAddr: 0x30930, symSize: 0x14 }
  - { offset: 0xF1D40, size: 0x8, addend: 0x0, symName: '__ZN100_$LT$pyo3..pycell..impl_..MutableClass$u20$as$u20$pyo3..pycell..impl_..GetBorrowChecker$LT$T$GT$$GT$14borrow_checker17h6528b31fad87144fE', symObjAddr: 0x0, symBinAddr: 0x30930, symSize: 0x14 }
  - { offset: 0xF1D75, size: 0x8, addend: 0x0, symName: '__ZN100_$LT$pyo3..pycell..impl_..MutableClass$u20$as$u20$pyo3..pycell..impl_..GetBorrowChecker$LT$T$GT$$GT$14borrow_checker17hac9931b05e8f7a65E', symObjAddr: 0x14, symBinAddr: 0x30944, symSize: 0x14 }
  - { offset: 0xF1DB0, size: 0x8, addend: 0x0, symName: '__ZN113_$LT$pyo3..pycell..impl_..PyClassObject$LT$T$GT$$u20$as$u20$pyo3..pycell..impl_..PyClassObjectLayout$LT$T$GT$$GT$10tp_dealloc17he15531d71c308fafE', symObjAddr: 0x28, symBinAddr: 0x30958, symSize: 0xB4 }
  - { offset: 0xF1E14, size: 0x8, addend: 0x0, symName: '__ZN113_$LT$pyo3..pycell..impl_..PyClassObject$LT$T$GT$$u20$as$u20$pyo3..pycell..impl_..PyClassObjectLayout$LT$T$GT$$GT$10tp_dealloc17he5c7b4208c47bf38E', symObjAddr: 0xDC, symBinAddr: 0x30A0C, symSize: 0xB4 }
  - { offset: 0xF1E78, size: 0x8, addend: 0x0, symName: '__ZN113_$LT$pyo3..pycell..impl_..PyClassObject$LT$T$GT$$u20$as$u20$pyo3..pycell..impl_..PyClassObjectLayout$LT$T$GT$$GT$17ensure_threadsafe17h13bfd129ec51208aE', symObjAddr: 0x190, symBinAddr: 0x30AC0, symSize: 0x30 }
  - { offset: 0xF1EAB, size: 0x8, addend: 0x0, symName: '__ZN113_$LT$pyo3..pycell..impl_..PyClassObject$LT$T$GT$$u20$as$u20$pyo3..pycell..impl_..PyClassObjectLayout$LT$T$GT$$GT$17ensure_threadsafe17h9c7584f133bd2ec0E', symObjAddr: 0x1C0, symBinAddr: 0x30AF0, symSize: 0x30 }
  - { offset: 0xF1EE4, size: 0x8, addend: 0x0, symName: '__ZN117_$LT$pyo3..pycell..impl_..PyClassObjectBase$LT$U$GT$$u20$as$u20$pyo3..pycell..impl_..PyClassObjectLayout$LT$T$GT$$GT$10tp_dealloc17h74028a89a1028c69E', symObjAddr: 0x1F0, symBinAddr: 0x30B20, symSize: 0x2CC }
  - { offset: 0xF202B, size: 0x8, addend: 0x0, symName: '__ZN117_$LT$pyo3..pycell..impl_..PyClassObjectBase$LT$U$GT$$u20$as$u20$pyo3..pycell..impl_..PyClassObjectLayout$LT$T$GT$$GT$17ensure_threadsafe17h3896892a1e7fae23E', symObjAddr: 0x4BC, symBinAddr: 0x30DEC, symSize: 0x10 }
  - { offset: 0xF2A9E, size: 0x8, addend: 0x0, symName: '__ZN4pyo36pycell5impl_22PyClassObject$LT$T$GT$14borrow_checker17h9389207d4b6f24fcE', symObjAddr: 0x4CC, symBinAddr: 0x30DFC, symSize: 0x24 }
  - { offset: 0xF2B76, size: 0x8, addend: 0x0, symName: '__ZN4pyo36pycell5impl_22PyClassObject$LT$T$GT$14borrow_checker17hf1bffc6b3a90e880E', symObjAddr: 0x4F0, symBinAddr: 0x30E20, symSize: 0x24 }
  - { offset: 0xF2BAF, size: 0x8, addend: 0x0, symName: '__ZN4pyo36pycell5impl_22PyClassObject$LT$T$GT$7get_ptr17h25a31594c6ed83e7E', symObjAddr: 0x514, symBinAddr: 0x30E44, symSize: 0x24 }
  - { offset: 0xF2BE8, size: 0x8, addend: 0x0, symName: '__ZN4pyo36pycell5impl_22PyClassObject$LT$T$GT$7get_ptr17h3dff36d8ec9b173aE', symObjAddr: 0x538, symBinAddr: 0x30E68, symSize: 0x24 }
  - { offset: 0xF2C9E, size: 0x8, addend: 0x0, symName: __ZN3std4sync6poison4once4Once12is_completed17h961c686b9e623192E, symObjAddr: 0x0, symBinAddr: 0x30E8C, symSize: 0x54 }
  - { offset: 0xF2E56, size: 0x8, addend: 0x0, symName: __ZN3std4sync6poison4once4Once12is_completed17h961c686b9e623192E, symObjAddr: 0x0, symBinAddr: 0x30E8C, symSize: 0x54 }
  - { offset: 0xF2ECA, size: 0x8, addend: 0x0, symName: '__ZN71_$LT$alloc..borrow..Cow$LT$B$GT$$u20$as$u20$core..ops..deref..Deref$GT$5deref17h3a9b85acc5dd8055E', symObjAddr: 0x0, symBinAddr: 0x30EE0, symSize: 0x78 }
  - { offset: 0xF2EE6, size: 0x8, addend: 0x0, symName: '__ZN71_$LT$alloc..borrow..Cow$LT$B$GT$$u20$as$u20$core..ops..deref..Deref$GT$5deref17h3a9b85acc5dd8055E', symObjAddr: 0x0, symBinAddr: 0x30EE0, symSize: 0x78 }
  - { offset: 0xF30B4, size: 0x8, addend: 0x0, symName: '__ZN5alloc11collections5btree8navigate263_$LT$impl$u20$alloc..collections..btree..node..Handle$LT$alloc..collections..btree..node..NodeRef$LT$alloc..collections..btree..node..marker..Dying$C$K$C$V$C$alloc..collections..btree..node..marker..Leaf$GT$$C$alloc..collections..btree..node..marker..Edge$GT$$GT$27deallocating_next_unchecked28_$u7b$$u7b$closure$u7d$$u7d$17h1dfbf9c6dcd7468bE', symObjAddr: 0x0, symBinAddr: 0x30F58, symSize: 0x58 }
  - { offset: 0xF4C26, size: 0x8, addend: 0x0, symName: '__ZN5alloc11collections5btree8navigate263_$LT$impl$u20$alloc..collections..btree..node..Handle$LT$alloc..collections..btree..node..NodeRef$LT$alloc..collections..btree..node..marker..Dying$C$K$C$V$C$alloc..collections..btree..node..marker..Leaf$GT$$C$alloc..collections..btree..node..marker..Edge$GT$$GT$27deallocating_next_unchecked28_$u7b$$u7b$closure$u7d$$u7d$17h1dfbf9c6dcd7468bE', symObjAddr: 0x0, symBinAddr: 0x30F58, symSize: 0x58 }
  - { offset: 0xF4C96, size: 0x8, addend: 0x0, symName: '__ZN5alloc11collections5btree8navigate263_$LT$impl$u20$alloc..collections..btree..node..Handle$LT$alloc..collections..btree..node..NodeRef$LT$alloc..collections..btree..node..marker..Dying$C$K$C$V$C$alloc..collections..btree..node..marker..Leaf$GT$$C$alloc..collections..btree..node..marker..Edge$GT$$GT$27deallocating_next_unchecked28_$u7b$$u7b$closure$u7d$$u7d$17hf22ae6371b3a8b07E', symObjAddr: 0x58, symBinAddr: 0x30FB0, symSize: 0x58 }
  - { offset: 0xF4D12, size: 0x8, addend: 0x0, symName: '__ZN5alloc11collections5btree8navigate263_$LT$impl$u20$alloc..collections..btree..node..Handle$LT$alloc..collections..btree..node..NodeRef$LT$alloc..collections..btree..node..marker..Immut$C$K$C$V$C$alloc..collections..btree..node..marker..Leaf$GT$$C$alloc..collections..btree..node..marker..Edge$GT$$GT$14next_unchecked28_$u7b$$u7b$closure$u7d$$u7d$17hff0be91363fb3cdeE', symObjAddr: 0xB0, symBinAddr: 0x31008, symSize: 0xE0 }
  - { offset: 0xF56E6, size: 0x8, addend: 0x0, symName: '__ZN5alloc11collections5btree8navigate39LazyLeafRange$LT$BorrowType$C$K$C$V$GT$10init_front17h09aff72260d1a52fE', symObjAddr: 0x190, symBinAddr: 0x310E8, symSize: 0x1C8 }
  - { offset: 0xF5A2A, size: 0x8, addend: 0x0, symName: '__ZN5alloc11collections5btree8navigate39LazyLeafRange$LT$BorrowType$C$K$C$V$GT$10init_front17hb1f5ceccf2d66249E', symObjAddr: 0x358, symBinAddr: 0x312B0, symSize: 0x1C8 }
  - { offset: 0xF5D32, size: 0x8, addend: 0x0, symName: '__ZN5alloc11collections5btree8navigate39LazyLeafRange$LT$BorrowType$C$K$C$V$GT$10init_front17hedd10426ab730830E', symObjAddr: 0x520, symBinAddr: 0x31478, symSize: 0x1C8 }
  - { offset: 0xF603C, size: 0x8, addend: 0x0, symName: '__ZN5alloc11collections5btree8navigate75LazyLeafRange$LT$alloc..collections..btree..node..marker..Dying$C$K$C$V$GT$10take_front17h48a666282baec58cE', symObjAddr: 0x6E8, symBinAddr: 0x31640, symSize: 0x1C4 }
  - { offset: 0xF63BB, size: 0x8, addend: 0x0, symName: '__ZN5alloc11collections5btree8navigate75LazyLeafRange$LT$alloc..collections..btree..node..marker..Dying$C$K$C$V$GT$10take_front17h8aade4096b7391d1E', symObjAddr: 0x8AC, symBinAddr: 0x31804, symSize: 0x1C4 }
  - { offset: 0xF65C2, size: 0x8, addend: 0x0, symName: '__ZN5alloc11collections5btree8navigate75LazyLeafRange$LT$alloc..collections..btree..node..marker..Dying$C$K$C$V$GT$16deallocating_end17h47d72565e0756f55E', symObjAddr: 0xA70, symBinAddr: 0x319C8, symSize: 0x98 }
  - { offset: 0xF6622, size: 0x8, addend: 0x0, symName: '__ZN5alloc11collections5btree8navigate75LazyLeafRange$LT$alloc..collections..btree..node..marker..Dying$C$K$C$V$GT$16deallocating_end17he5273d0cdaa29383E', symObjAddr: 0xB08, symBinAddr: 0x31A60, symSize: 0x98 }
  - { offset: 0xF66E7, size: 0x8, addend: 0x0, symName: '__ZN5alloc11collections5btree8navigate75LazyLeafRange$LT$alloc..collections..btree..node..marker..Dying$C$K$C$V$GT$27deallocating_next_unchecked17he59377e57ab881e2E', symObjAddr: 0xBA0, symBinAddr: 0x31AF8, symSize: 0xA8 }
  - { offset: 0xF67EE, size: 0x8, addend: 0x0, symName: '__ZN5alloc11collections5btree8navigate75LazyLeafRange$LT$alloc..collections..btree..node..marker..Dying$C$K$C$V$GT$27deallocating_next_unchecked17hee1ba8ec9e4f82f1E', symObjAddr: 0xC48, symBinAddr: 0x31BA0, symSize: 0xA8 }
  - { offset: 0xF692B, size: 0x8, addend: 0x0, symName: '__ZN4pyo311conversions3std5slice76_$LT$impl$u20$pyo3..conversion..IntoPyObject$u20$for$u20$$RF$$u5b$T$u5d$$GT$13into_pyobject17h628feb8914d51cf1E', symObjAddr: 0x0, symBinAddr: 0x31C48, symSize: 0x28 }
  - { offset: 0xF7D26, size: 0x8, addend: 0x0, symName: '__ZN4pyo311conversions3std5slice76_$LT$impl$u20$pyo3..conversion..IntoPyObject$u20$for$u20$$RF$$u5b$T$u5d$$GT$13into_pyobject17h628feb8914d51cf1E', symObjAddr: 0x0, symBinAddr: 0x31C48, symSize: 0x28 }
  - { offset: 0xF86CA, size: 0x8, addend: 0x0, symName: __ZN4pyo35impl_10trampoline10trampoline17h10a39f5365fa2733E, symObjAddr: 0x0, symBinAddr: 0x31C70, symSize: 0x158 }
  - { offset: 0xF9C90, size: 0x8, addend: 0x0, symName: __ZN4pyo35impl_10trampoline10trampoline17h10a39f5365fa2733E, symObjAddr: 0x0, symBinAddr: 0x31C70, symSize: 0x158 }
  - { offset: 0xF9D33, size: 0x8, addend: 0x0, symName: __ZN4pyo35impl_10trampoline10trampoline17h520cd38a7d1fe3e0E, symObjAddr: 0x158, symBinAddr: 0x31DC8, symSize: 0x158 }
  - { offset: 0xF9DD6, size: 0x8, addend: 0x0, symName: __ZN4pyo35impl_10trampoline10trampoline17h6a4e6fb0c3aca75aE, symObjAddr: 0x2B0, symBinAddr: 0x31F20, symSize: 0x15C }
  - { offset: 0xF9E7A, size: 0x8, addend: 0x0, symName: __ZN4pyo35impl_10trampoline10trampoline17h88de900a3313ec0bE, symObjAddr: 0x40C, symBinAddr: 0x3207C, symSize: 0x15C }
  - { offset: 0xF9F1E, size: 0x8, addend: 0x0, symName: __ZN4pyo35impl_10trampoline10trampoline17hab7c2b96cb43c72bE, symObjAddr: 0x568, symBinAddr: 0x321D8, symSize: 0x160 }
  - { offset: 0xF9FC2, size: 0x8, addend: 0x0, symName: __ZN4pyo35impl_10trampoline10trampoline17hcc7ba6a742f56276E, symObjAddr: 0x6C8, symBinAddr: 0x32338, symSize: 0x14C }
  - { offset: 0xFA065, size: 0x8, addend: 0x0, symName: __ZN4pyo35impl_10trampoline10trampoline17hf4ace45c15c73f12E, symObjAddr: 0x814, symBinAddr: 0x32484, symSize: 0x158 }
  - { offset: 0xFA10D, size: 0x8, addend: 0x0, symName: '__ZN4pyo35impl_10trampoline10trampoline28_$u7b$$u7b$closure$u7d$$u7d$17h1235bda5d9ba4fa5E', symObjAddr: 0x96C, symBinAddr: 0x325DC, symSize: 0x40 }
  - { offset: 0xFA15C, size: 0x8, addend: 0x0, symName: '__ZN4pyo35impl_10trampoline10trampoline28_$u7b$$u7b$closure$u7d$$u7d$17h69e27c3351570acfE', symObjAddr: 0x9AC, symBinAddr: 0x3261C, symSize: 0x2C }
  - { offset: 0xFA1AA, size: 0x8, addend: 0x0, symName: '__ZN4pyo35impl_10trampoline10trampoline28_$u7b$$u7b$closure$u7d$$u7d$17h9696ea4ef147902eE', symObjAddr: 0x9D8, symBinAddr: 0x32648, symSize: 0x24 }
  - { offset: 0xFA1F8, size: 0x8, addend: 0x0, symName: '__ZN4pyo35impl_10trampoline10trampoline28_$u7b$$u7b$closure$u7d$$u7d$17ha054d796b04bf551E', symObjAddr: 0x9FC, symBinAddr: 0x3266C, symSize: 0x2C }
  - { offset: 0xFA246, size: 0x8, addend: 0x0, symName: '__ZN4pyo35impl_10trampoline10trampoline28_$u7b$$u7b$closure$u7d$$u7d$17ha2cc5411340280e8E', symObjAddr: 0xA28, symBinAddr: 0x32698, symSize: 0x2C }
  - { offset: 0xFA294, size: 0x8, addend: 0x0, symName: '__ZN4pyo35impl_10trampoline10trampoline28_$u7b$$u7b$closure$u7d$$u7d$17hc7f340ef2e38d7cfE', symObjAddr: 0xA54, symBinAddr: 0x326C4, symSize: 0x34 }
  - { offset: 0xFA2E3, size: 0x8, addend: 0x0, symName: '__ZN4pyo35impl_10trampoline10trampoline28_$u7b$$u7b$closure$u7d$$u7d$17hdf4f9c43bcda18ebE', symObjAddr: 0xA88, symBinAddr: 0x326F8, symSize: 0x34 }
  - { offset: 0xFA338, size: 0x8, addend: 0x0, symName: '__ZN4pyo35impl_10trampoline11module_init28_$u7b$$u7b$closure$u7d$$u7d$17h3f9650d2af7e3b81E', symObjAddr: 0xABC, symBinAddr: 0x3272C, symSize: 0x40 }
  - { offset: 0xFA384, size: 0x8, addend: 0x0, symName: '__ZN4pyo35impl_10trampoline11module_init28_$u7b$$u7b$closure$u7d$$u7d$28_$u7b$$u7b$closure$u7d$$u7d$17hf10085d033ab0282E', symObjAddr: 0xAFC, symBinAddr: 0x3276C, symSize: 0x24 }
  - { offset: 0xFA3DB, size: 0x8, addend: 0x0, symName: '__ZN4pyo35impl_10trampoline11richcmpfunc28_$u7b$$u7b$closure$u7d$$u7d$17hcfd4657fa2b46f03E', symObjAddr: 0xB20, symBinAddr: 0x32790, symSize: 0x40 }
  - { offset: 0xFA487, size: 0x8, addend: 0x0, symName: __ZN4pyo35impl_10trampoline21trampoline_unraisable17he5bb8ca5b4fc1bdaE, symObjAddr: 0xB60, symBinAddr: 0x327D0, symSize: 0x218 }
  - { offset: 0xFA52A, size: 0x8, addend: 0x0, symName: '__ZN4pyo35impl_10trampoline21trampoline_unraisable28_$u7b$$u7b$closure$u7d$$u7d$17h10604a69c1ff5170E', symObjAddr: 0xD78, symBinAddr: 0x329E8, symSize: 0x5C }
  - { offset: 0xFA569, size: 0x8, addend: 0x0, symName: '__ZN4pyo35impl_10trampoline21trampoline_unraisable28_$u7b$$u7b$closure$u7d$$u7d$17h60113bde1f5543a2E', symObjAddr: 0xDD4, symBinAddr: 0x32A44, symSize: 0x2C }
  - { offset: 0xFA5BB, size: 0x8, addend: 0x0, symName: '__ZN4pyo35impl_10trampoline22fastcall_with_keywords28_$u7b$$u7b$closure$u7d$$u7d$17hadf77ba94bb934f0E', symObjAddr: 0xE00, symBinAddr: 0x32A70, symSize: 0x48 }
  - { offset: 0xFA682, size: 0x8, addend: 0x0, symName: __ZN4pyo35impl_10trampoline33panic_result_into_callback_output17h52ccb56cb1200f26E, symObjAddr: 0xE48, symBinAddr: 0x32AB8, symSize: 0x118 }
  - { offset: 0xFA74B, size: 0x8, addend: 0x0, symName: '__ZN4pyo35impl_10trampoline6noargs28_$u7b$$u7b$closure$u7d$$u7d$17hc97f7347854c941eE', symObjAddr: 0xF60, symBinAddr: 0x32BD0, symSize: 0x34 }
  - { offset: 0xFA7C8, size: 0x8, addend: 0x0, symName: '__ZN4pyo35impl_10trampoline7dealloc28_$u7b$$u7b$closure$u7d$$u7d$17hcd98baaf1f7478d2E', symObjAddr: 0xF94, symBinAddr: 0x32C04, symSize: 0x40 }
  - { offset: 0xFA845, size: 0x8, addend: 0x0, symName: '__ZN4pyo35impl_10trampoline7lenfunc28_$u7b$$u7b$closure$u7d$$u7d$17h4bf5bb35ada9f008E', symObjAddr: 0xFD4, symBinAddr: 0x32C44, symSize: 0x34 }
  - { offset: 0xFA8C2, size: 0x8, addend: 0x0, symName: '__ZN4pyo35impl_10trampoline7newfunc28_$u7b$$u7b$closure$u7d$$u7d$17h4a26d77ea1b3204aE', symObjAddr: 0x1008, symBinAddr: 0x32C78, symSize: 0x40 }
  - { offset: 0xFA973, size: 0x8, addend: 0x0, symName: '__ZN4pyo35impl_10trampoline8reprfunc28_$u7b$$u7b$closure$u7d$$u7d$17h2dc928103b2c1565E', symObjAddr: 0x1048, symBinAddr: 0x32CB8, symSize: 0x34 }
  - { offset: 0xFB4F4, size: 0x8, addend: 0x0, symName: __ZN4pyo33gil8GILGuard6python17h11b4f7f55be8650aE, symObjAddr: 0x0, symBinAddr: 0x32CEC, symSize: 0x20 }
  - { offset: 0xFB5A4, size: 0x8, addend: 0x0, symName: __ZN4pyo33gil8GILGuard6python17h11b4f7f55be8650aE, symObjAddr: 0x0, symBinAddr: 0x32CEC, symSize: 0x20 }
  - { offset: 0xFB5E4, size: 0x8, addend: 0x0, symName: '__ZN63_$LT$I$u20$as$u20$core..iter..traits..collect..IntoIterator$GT$9into_iter17h3fe0340988152370E', symObjAddr: 0x0, symBinAddr: 0x32D0C, symSize: 0x18 }
  - { offset: 0xFB628, size: 0x8, addend: 0x0, symName: '__ZN63_$LT$I$u20$as$u20$core..iter..traits..collect..IntoIterator$GT$9into_iter17h3fe0340988152370E', symObjAddr: 0x0, symBinAddr: 0x32D0C, symSize: 0x18 }
  - { offset: 0xFCCC4, size: 0x8, addend: 0x0, symName: __ZN4pyo36marker6Python14NotImplemented17h2fdddea8b047ef27E, symObjAddr: 0x0, symBinAddr: 0x32D24, symSize: 0x28 }
  - { offset: 0xFE2CC, size: 0x8, addend: 0x0, symName: __ZN4pyo36marker6Python14NotImplemented17h2fdddea8b047ef27E, symObjAddr: 0x0, symBinAddr: 0x32D24, symSize: 0x28 }
  - { offset: 0xFE2FB, size: 0x8, addend: 0x0, symName: __ZN4pyo36marker6Python19assume_gil_acquired17haec5246bd5ab80f7E, symObjAddr: 0x28, symBinAddr: 0x32D4C, symSize: 0x4 }
  - { offset: 0xFE30E, size: 0x8, addend: 0x0, symName: __ZN4pyo36marker6Python4None17h650104688afecf60E, symObjAddr: 0x2C, symBinAddr: 0x32D50, symSize: 0x28 }
  - { offset: 0xFE35B, size: 0x8, addend: 0x0, symName: __ZN4core5alloc6layout6Layout25from_size_align_unchecked18precondition_check17h9c76d139a2d4ddc8E, symObjAddr: 0x0, symBinAddr: 0x32D78, symSize: 0xBC }
  - { offset: 0xFE687, size: 0x8, addend: 0x0, symName: __ZN4core5alloc6layout6Layout25from_size_align_unchecked18precondition_check17h9c76d139a2d4ddc8E, symObjAddr: 0x0, symBinAddr: 0x32D78, symSize: 0xBC }
  - { offset: 0xFE897, size: 0x8, addend: 0x0, symName: '__ZN4core4iter6traits8iterator8Iterator12try_for_each4call28_$u7b$$u7b$closure$u7d$$u7d$17h98619eac54f1bb0bE', symObjAddr: 0x0, symBinAddr: 0x32E34, symSize: 0x48 }
  - { offset: 0xFE92E, size: 0x8, addend: 0x0, symName: '__ZN4core4iter6traits8iterator8Iterator12try_for_each4call28_$u7b$$u7b$closure$u7d$$u7d$17h98619eac54f1bb0bE', symObjAddr: 0x0, symBinAddr: 0x32E34, symSize: 0x48 }
  - { offset: 0xFF07A, size: 0x8, addend: 0x0, symName: __ZN4core5slice4sort6shared9smallsort11insert_tail17h08c058fbd780c48aE, symObjAddr: 0x0, symBinAddr: 0x32E7C, symSize: 0x1DC }
  - { offset: 0x10010C, size: 0x8, addend: 0x0, symName: __ZN4core5slice4sort6shared9smallsort11insert_tail17h08c058fbd780c48aE, symObjAddr: 0x0, symBinAddr: 0x32E7C, symSize: 0x1DC }
  - { offset: 0x100267, size: 0x8, addend: 0x0, symName: __ZN4core5slice4sort6shared9smallsort11insert_tail17hef03bc5ad73d9a7bE, symObjAddr: 0x1DC, symBinAddr: 0x33058, symSize: 0x1DC }
  - { offset: 0x1003C2, size: 0x8, addend: 0x0, symName: __ZN4core5slice4sort6shared9smallsort12sort4_stable17h068b739e79327100E, symObjAddr: 0x3B8, symBinAddr: 0x33234, symSize: 0x7DC }
  - { offset: 0x1016A7, size: 0x8, addend: 0x0, symName: __ZN4core5slice4sort6shared9smallsort12sort4_stable17h881659baebc3048dE, symObjAddr: 0xB94, symBinAddr: 0x33A10, symSize: 0x7DC }
  - { offset: 0x102A70, size: 0x8, addend: 0x0, symName: __ZN4core5slice4sort6shared9smallsort19bidirectional_merge17h9e25e9be86faff5dE, symObjAddr: 0x1370, symBinAddr: 0x341EC, symSize: 0x59C }
  - { offset: 0x10321C, size: 0x8, addend: 0x0, symName: __ZN4core5slice4sort6shared9smallsort19bidirectional_merge17haedc91a9d91138f7E, symObjAddr: 0x190C, symBinAddr: 0x34788, symSize: 0x59C }
  - { offset: 0x1038E4, size: 0x8, addend: 0x0, symName: __ZN4core5slice4sort6shared9smallsort25insertion_sort_shift_left17h4670f1780a770a29E, symObjAddr: 0x1EA8, symBinAddr: 0x34D24, symSize: 0xD0 }
  - { offset: 0x103A1E, size: 0x8, addend: 0x0, symName: __ZN4core5slice4sort6shared9smallsort25insertion_sort_shift_left17h8b4f30a13cc294d1E, symObjAddr: 0x1F78, symBinAddr: 0x34DF4, symSize: 0xD0 }
  - { offset: 0x103B58, size: 0x8, addend: 0x0, symName: __ZN4core5slice4sort6shared9smallsort31small_sort_general_with_scratch17h2501519f30c582fdE, symObjAddr: 0x2048, symBinAddr: 0x34EC4, symSize: 0x500 }
  - { offset: 0x103F98, size: 0x8, addend: 0x0, symName: __ZN4core5slice4sort6shared9smallsort31small_sort_general_with_scratch17hc297e9a88604ad7dE, symObjAddr: 0x2548, symBinAddr: 0x353C4, symSize: 0x500 }
  - { offset: 0x105141, size: 0x8, addend: 0x0, symName: __ZN4core4iter6traits8iterator8Iterator3zip17h9684a9bb61e5599cE, symObjAddr: 0x0, symBinAddr: 0x358C4, symSize: 0xB4 }
  - { offset: 0x10527F, size: 0x8, addend: 0x0, symName: __ZN4core4iter6traits8iterator8Iterator3zip17h9684a9bb61e5599cE, symObjAddr: 0x0, symBinAddr: 0x358C4, symSize: 0xB4 }
  - { offset: 0x1052F5, size: 0x8, addend: 0x0, symName: __ZN4core4iter6traits8iterator8Iterator4take17h0bfeaf9f2f362c53E, symObjAddr: 0xB4, symBinAddr: 0x35978, symSize: 0x24 }
  - { offset: 0x106B0B, size: 0x8, addend: 0x0, symName: '__ZN4pyo34sync20GILOnceCell$LT$T$GT$11get_or_init17h05815fb461181e40E', symObjAddr: 0x0, symBinAddr: 0x3599C, symSize: 0xD8 }
  - { offset: 0x108B64, size: 0x8, addend: 0x0, symName: '__ZN4pyo34sync20GILOnceCell$LT$T$GT$11get_or_init28_$u7b$$u7b$closure$u7d$$u7d$17h14f7e92056e2f9e4E', symObjAddr: 0x798, symBinAddr: 0x36134, symSize: 0x24 }
  - { offset: 0x108BA3, size: 0x8, addend: 0x0, symName: '__ZN4pyo34sync20GILOnceCell$LT$T$GT$11get_or_init28_$u7b$$u7b$closure$u7d$$u7d$17h33f891ea5aad47e5E', symObjAddr: 0x7BC, symBinAddr: 0x36158, symSize: 0x24 }
  - { offset: 0x108BE2, size: 0x8, addend: 0x0, symName: '__ZN4pyo34sync20GILOnceCell$LT$T$GT$11get_or_init28_$u7b$$u7b$closure$u7d$$u7d$17h5124ec657a06a734E', symObjAddr: 0x7E0, symBinAddr: 0x3617C, symSize: 0x24 }
  - { offset: 0x108C21, size: 0x8, addend: 0x0, symName: '__ZN4pyo34sync20GILOnceCell$LT$T$GT$11get_or_init28_$u7b$$u7b$closure$u7d$$u7d$17h52327c79334a4b64E', symObjAddr: 0x804, symBinAddr: 0x361A0, symSize: 0x24 }
  - { offset: 0x108C60, size: 0x8, addend: 0x0, symName: '__ZN4pyo34sync20GILOnceCell$LT$T$GT$11get_or_init28_$u7b$$u7b$closure$u7d$$u7d$17h58c03002f707b310E', symObjAddr: 0x828, symBinAddr: 0x361C4, symSize: 0x24 }
  - { offset: 0x108C9F, size: 0x8, addend: 0x0, symName: '__ZN4pyo34sync20GILOnceCell$LT$T$GT$11get_or_init28_$u7b$$u7b$closure$u7d$$u7d$17h6a61c78c5d429f57E', symObjAddr: 0x84C, symBinAddr: 0x361E8, symSize: 0x24 }
  - { offset: 0x108CDE, size: 0x8, addend: 0x0, symName: '__ZN4pyo34sync20GILOnceCell$LT$T$GT$11get_or_init28_$u7b$$u7b$closure$u7d$$u7d$17h8ae1dd58cf6e72caE', symObjAddr: 0x870, symBinAddr: 0x3620C, symSize: 0x24 }
  - { offset: 0x108D1D, size: 0x8, addend: 0x0, symName: '__ZN4pyo34sync20GILOnceCell$LT$T$GT$11get_or_init28_$u7b$$u7b$closure$u7d$$u7d$17hc4c77ec7d5543b98E', symObjAddr: 0x894, symBinAddr: 0x36230, symSize: 0x24 }
  - { offset: 0x108D5C, size: 0x8, addend: 0x0, symName: '__ZN4pyo34sync20GILOnceCell$LT$T$GT$11get_or_init28_$u7b$$u7b$closure$u7d$$u7d$17he85367858fd475fcE', symObjAddr: 0x8B8, symBinAddr: 0x36254, symSize: 0x24 }
  - { offset: 0x108E4C, size: 0x8, addend: 0x0, symName: '__ZN4pyo34sync20GILOnceCell$LT$T$GT$3set28_$u7b$$u7b$closure$u7d$$u7d$17h787710469770ada7E', symObjAddr: 0xBB0, symBinAddr: 0x3654C, symSize: 0x100 }
  - { offset: 0x109081, size: 0x8, addend: 0x0, symName: __ZN4pyo34sync21with_critical_section17hb7ad0ed3e69c8dcfE, symObjAddr: 0x19BC, symBinAddr: 0x3664C, symSize: 0x28 }
  - { offset: 0x109A21, size: 0x8, addend: 0x0, symName: '__ZN4pyo34sync20GILOnceCell$LT$T$GT$11get_or_init17h05815fb461181e40E', symObjAddr: 0x0, symBinAddr: 0x3599C, symSize: 0xD8 }
  - { offset: 0x109AAF, size: 0x8, addend: 0x0, symName: '__ZN4pyo34sync20GILOnceCell$LT$T$GT$11get_or_init17h13db015b23d9c7dfE', symObjAddr: 0xD8, symBinAddr: 0x35A74, symSize: 0xD8 }
  - { offset: 0x109B3D, size: 0x8, addend: 0x0, symName: '__ZN4pyo34sync20GILOnceCell$LT$T$GT$11get_or_init17h1603cce25a5e616eE', symObjAddr: 0x1B0, symBinAddr: 0x35B4C, symSize: 0xD8 }
  - { offset: 0x109BCB, size: 0x8, addend: 0x0, symName: '__ZN4pyo34sync20GILOnceCell$LT$T$GT$11get_or_init17h1ec313f561d63626E', symObjAddr: 0x288, symBinAddr: 0x35C24, symSize: 0xD8 }
  - { offset: 0x109C59, size: 0x8, addend: 0x0, symName: '__ZN4pyo34sync20GILOnceCell$LT$T$GT$11get_or_init17h87cb6729c96fa594E', symObjAddr: 0x360, symBinAddr: 0x35CFC, symSize: 0xD8 }
  - { offset: 0x109CE7, size: 0x8, addend: 0x0, symName: '__ZN4pyo34sync20GILOnceCell$LT$T$GT$11get_or_init17h9d8636cc12dd6615E', symObjAddr: 0x438, symBinAddr: 0x35DD4, symSize: 0xD8 }
  - { offset: 0x109D75, size: 0x8, addend: 0x0, symName: '__ZN4pyo34sync20GILOnceCell$LT$T$GT$11get_or_init17ha274871a64416082E', symObjAddr: 0x510, symBinAddr: 0x35EAC, symSize: 0xD8 }
  - { offset: 0x109E03, size: 0x8, addend: 0x0, symName: '__ZN4pyo34sync20GILOnceCell$LT$T$GT$11get_or_init17hcfa90c8c122058e5E', symObjAddr: 0x5E8, symBinAddr: 0x35F84, symSize: 0xD8 }
  - { offset: 0x109E91, size: 0x8, addend: 0x0, symName: '__ZN4pyo34sync20GILOnceCell$LT$T$GT$11get_or_init17hf5af6aa567de0cc3E', symObjAddr: 0x6C0, symBinAddr: 0x3605C, symSize: 0xD8 }
  - { offset: 0x10A0C2, size: 0x8, addend: 0x0, symName: '__ZN4pyo34sync20GILOnceCell$LT$T$GT$15get_or_try_init17h1c76c0bba1bf5b3cE', symObjAddr: 0x8DC, symBinAddr: 0x36278, symSize: 0xB4 }
  - { offset: 0x10A13B, size: 0x8, addend: 0x0, symName: '__ZN4pyo34sync20GILOnceCell$LT$T$GT$15get_or_try_init17h45df025c615e235dE', symObjAddr: 0x990, symBinAddr: 0x3632C, symSize: 0xB4 }
  - { offset: 0x10A1B4, size: 0x8, addend: 0x0, symName: '__ZN4pyo34sync20GILOnceCell$LT$T$GT$3get17he171282e059eff27E', symObjAddr: 0xA44, symBinAddr: 0x363E0, symSize: 0xA8 }
  - { offset: 0x10A1F8, size: 0x8, addend: 0x0, symName: '__ZN4pyo34sync20GILOnceCell$LT$T$GT$3set17hacd8f5087335dc85E', symObjAddr: 0xAEC, symBinAddr: 0x36488, symSize: 0xC4 }
  - { offset: 0x10A342, size: 0x8, addend: 0x0, symName: '__ZN4pyo34sync20GILOnceCell$LT$T$GT$4init17h071467f5ac831017E', symObjAddr: 0xCB0, symBinAddr: 0x10EF40, symSize: 0x11C }
  - { offset: 0x10A3F6, size: 0x8, addend: 0x0, symName: '__ZN4pyo34sync20GILOnceCell$LT$T$GT$4init17h1c203262f9815cc1E', symObjAddr: 0xDCC, symBinAddr: 0x10F05C, symSize: 0x11C }
  - { offset: 0x10A4AA, size: 0x8, addend: 0x0, symName: '__ZN4pyo34sync20GILOnceCell$LT$T$GT$4init17h23aaf87ad42c08ccE', symObjAddr: 0xEE8, symBinAddr: 0x10F178, symSize: 0x11C }
  - { offset: 0x10A55E, size: 0x8, addend: 0x0, symName: '__ZN4pyo34sync20GILOnceCell$LT$T$GT$4init17h2ad8be1d163f99a6E', symObjAddr: 0x1004, symBinAddr: 0x10F294, symSize: 0x11C }
  - { offset: 0x10A63D, size: 0x8, addend: 0x0, symName: '__ZN4pyo34sync20GILOnceCell$LT$T$GT$4init17h6a1f4542d5661b71E', symObjAddr: 0x1120, symBinAddr: 0x10F3B0, symSize: 0x188 }
  - { offset: 0x10A70F, size: 0x8, addend: 0x0, symName: '__ZN4pyo34sync20GILOnceCell$LT$T$GT$4init17h7062d4aa30f962ecE', symObjAddr: 0x12A8, symBinAddr: 0x10F538, symSize: 0x11C }
  - { offset: 0x10A7C3, size: 0x8, addend: 0x0, symName: '__ZN4pyo34sync20GILOnceCell$LT$T$GT$4init17h944e8c10f87f4b84E', symObjAddr: 0x13C4, symBinAddr: 0x10F654, symSize: 0x188 }
  - { offset: 0x10A895, size: 0x8, addend: 0x0, symName: '__ZN4pyo34sync20GILOnceCell$LT$T$GT$4init17h9587964bba7653c0E', symObjAddr: 0x154C, symBinAddr: 0x10F7DC, symSize: 0x11C }
  - { offset: 0x10A949, size: 0x8, addend: 0x0, symName: '__ZN4pyo34sync20GILOnceCell$LT$T$GT$4init17hb6935447f3f45401E', symObjAddr: 0x1668, symBinAddr: 0x10F8F8, symSize: 0x11C }
  - { offset: 0x10A9FD, size: 0x8, addend: 0x0, symName: '__ZN4pyo34sync20GILOnceCell$LT$T$GT$4init17hce5c32e41b8d6b9fE', symObjAddr: 0x1784, symBinAddr: 0x10FA14, symSize: 0x11C }
  - { offset: 0x10AAB1, size: 0x8, addend: 0x0, symName: '__ZN4pyo34sync20GILOnceCell$LT$T$GT$4init17hfa5bedc8afe8a8bbE', symObjAddr: 0x18A0, symBinAddr: 0x10FB30, symSize: 0x11C }
  - { offset: 0x10ABCB, size: 0x8, addend: 0x0, symName: '__ZN4core3mem13manually_drop21ManuallyDrop$LT$T$GT$4drop17h2570a13fa72c4a94E', symObjAddr: 0x0, symBinAddr: 0x36674, symSize: 0x24 }
  - { offset: 0x10B3A4, size: 0x8, addend: 0x0, symName: '__ZN4core3mem13manually_drop21ManuallyDrop$LT$T$GT$4drop17h2570a13fa72c4a94E', symObjAddr: 0x0, symBinAddr: 0x36674, symSize: 0x24 }
  - { offset: 0x10B47B, size: 0x8, addend: 0x0, symName: '__ZN4core3mem13manually_drop21ManuallyDrop$LT$T$GT$4drop17h53148c55ebe61bceE', symObjAddr: 0x24, symBinAddr: 0x36698, symSize: 0x24 }
  - { offset: 0x10B4C4, size: 0x8, addend: 0x0, symName: '__ZN280_$LT$alloc..collections..btree..node..Handle$LT$alloc..collections..btree..node..NodeRef$LT$alloc..collections..btree..node..marker..Dying$C$K$C$V$C$NodeType$GT$$C$alloc..collections..btree..node..marker..KV$GT$..drop_key_val..Dropper$LT$T$GT$$u20$as$u20$core..ops..drop..Drop$GT$4drop17h0f8fe467717a4c06E', symObjAddr: 0x0, symBinAddr: 0x366DC, symSize: 0x2C }
  - { offset: 0x111521, size: 0x8, addend: 0x0, symName: '__ZN280_$LT$alloc..collections..btree..node..Handle$LT$alloc..collections..btree..node..NodeRef$LT$alloc..collections..btree..node..marker..Dying$C$K$C$V$C$NodeType$GT$$C$alloc..collections..btree..node..marker..KV$GT$..drop_key_val..Dropper$LT$T$GT$$u20$as$u20$core..ops..drop..Drop$GT$4drop17h0f8fe467717a4c06E', symObjAddr: 0x0, symBinAddr: 0x366DC, symSize: 0x2C }
  - { offset: 0x111572, size: 0x8, addend: 0x0, symName: '__ZN280_$LT$alloc..collections..btree..node..Handle$LT$alloc..collections..btree..node..NodeRef$LT$alloc..collections..btree..node..marker..Dying$C$K$C$V$C$NodeType$GT$$C$alloc..collections..btree..node..marker..KV$GT$..drop_key_val..Dropper$LT$T$GT$$u20$as$u20$core..ops..drop..Drop$GT$4drop17h86e90e47ff1a31fcE', symObjAddr: 0x2C, symBinAddr: 0x36708, symSize: 0x2C }
  - { offset: 0x113CD4, size: 0x8, addend: 0x0, symName: '__ZN5alloc11collections5btree4node127NodeRef$LT$alloc..collections..btree..node..marker..Owned$C$K$C$V$C$alloc..collections..btree..node..marker..LeafOrInternal$GT$19push_internal_level28_$u7b$$u7b$closure$u7d$$u7d$17h19650598e462dea8E', symObjAddr: 0x1480, symBinAddr: 0x37B5C, symSize: 0x34 }
  - { offset: 0x113D2D, size: 0x8, addend: 0x0, symName: '__ZN5alloc11collections5btree4node127NodeRef$LT$alloc..collections..btree..node..marker..Owned$C$K$C$V$C$alloc..collections..btree..node..marker..LeafOrInternal$GT$19push_internal_level28_$u7b$$u7b$closure$u7d$$u7d$17ha37efd7c4f1502cdE', symObjAddr: 0x14B4, symBinAddr: 0x37B90, symSize: 0x34 }
  - { offset: 0x113D9B, size: 0x8, addend: 0x0, symName: __ZN5alloc11collections5btree4node12slice_insert17h52f33b3ee211c7caE, symObjAddr: 0x14E8, symBinAddr: 0x37BC4, symSize: 0x158 }
  - { offset: 0x113F22, size: 0x8, addend: 0x0, symName: __ZN5alloc11collections5btree4node12slice_insert17h73728a6e07344ed7E, symObjAddr: 0x1640, symBinAddr: 0x37D1C, symSize: 0x114 }
  - { offset: 0x114088, size: 0x8, addend: 0x0, symName: __ZN5alloc11collections5btree4node12slice_insert17h8d1eb8720b526561E, symObjAddr: 0x1754, symBinAddr: 0x37E30, symSize: 0x114 }
  - { offset: 0x1141EE, size: 0x8, addend: 0x0, symName: __ZN5alloc11collections5btree4node13move_to_slice17h10e3aa02806a3c83E, symObjAddr: 0x1868, symBinAddr: 0x37F44, symSize: 0xB0 }
  - { offset: 0x11429A, size: 0x8, addend: 0x0, symName: __ZN5alloc11collections5btree4node13move_to_slice17h43102b17f4b91cb4E, symObjAddr: 0x1918, symBinAddr: 0x37FF4, symSize: 0xB8 }
  - { offset: 0x114346, size: 0x8, addend: 0x0, symName: __ZN5alloc11collections5btree4node13move_to_slice17h895d25a88be7b8e8E, symObjAddr: 0x19D0, symBinAddr: 0x380AC, symSize: 0xB0 }
  - { offset: 0x1143F2, size: 0x8, addend: 0x0, symName: __ZN5alloc11collections5btree4node13move_to_slice17hce4d882ed53a6b1bE, symObjAddr: 0x1A80, symBinAddr: 0x3815C, symSize: 0xB0 }
  - { offset: 0x11449E, size: 0x8, addend: 0x0, symName: __ZN5alloc11collections5btree4node13move_to_slice17hd58ec9cf22129076E, symObjAddr: 0x1B30, symBinAddr: 0x3820C, symSize: 0xB8 }
  - { offset: 0x115831, size: 0x8, addend: 0x0, symName: __ZN5alloc11collections5btree4node9slice_shr17h7ab728c736cd791aE, symObjAddr: 0x5C28, symBinAddr: 0x3C304, symSize: 0xB4 }
  - { offset: 0x1158F3, size: 0x8, addend: 0x0, symName: __ZN5alloc11collections5btree4node9slice_shr17h7e53717e5d55da1bE, symObjAddr: 0x5CDC, symBinAddr: 0x3C3B8, symSize: 0xB8 }
  - { offset: 0x1159B5, size: 0x8, addend: 0x0, symName: __ZN5alloc11collections5btree4node9slice_shr17hf5949ddb130a97f3E, symObjAddr: 0x5D94, symBinAddr: 0x3C470, symSize: 0xB4 }
  - { offset: 0x11747F, size: 0x8, addend: 0x0, symName: '__ZN5alloc11collections5btree3fix178_$LT$impl$u20$alloc..collections..btree..node..NodeRef$LT$alloc..collections..btree..node..marker..Owned$C$K$C$V$C$alloc..collections..btree..node..marker..LeafOrInternal$GT$$GT$29fix_right_border_of_plentiful17h3d784632f2947ea8E', symObjAddr: 0x58, symBinAddr: 0x36734, symSize: 0x188 }
  - { offset: 0x117987, size: 0x8, addend: 0x0, symName: '__ZN5alloc11collections5btree4node115NodeRef$LT$alloc..collections..btree..node..marker..Mut$C$K$C$V$C$alloc..collections..btree..node..marker..Leaf$GT$16push_with_handle17h3ed311d5affb7ab6E', symObjAddr: 0x1E0, symBinAddr: 0x368BC, symSize: 0x210 }
  - { offset: 0x117F43, size: 0x8, addend: 0x0, symName: '__ZN5alloc11collections5btree4node115NodeRef$LT$alloc..collections..btree..node..marker..Mut$C$K$C$V$C$alloc..collections..btree..node..marker..Leaf$GT$16push_with_handle17h9262a9c11b189dd0E', symObjAddr: 0x3F0, symBinAddr: 0x36ACC, symSize: 0x21C }
  - { offset: 0x118307, size: 0x8, addend: 0x0, symName: '__ZN5alloc11collections5btree4node119NodeRef$LT$alloc..collections..btree..node..marker..Mut$C$K$C$V$C$alloc..collections..btree..node..marker..Internal$GT$30correct_childrens_parent_links17h87d122a933f9e12eE', symObjAddr: 0x60C, symBinAddr: 0x36CE8, symSize: 0xB4 }
  - { offset: 0x11843E, size: 0x8, addend: 0x0, symName: '__ZN5alloc11collections5btree4node119NodeRef$LT$alloc..collections..btree..node..marker..Mut$C$K$C$V$C$alloc..collections..btree..node..marker..Internal$GT$30correct_childrens_parent_links17h8dfd63c93d73d6ddE', symObjAddr: 0x6C0, symBinAddr: 0x36D9C, symSize: 0xB4 }
  - { offset: 0x118581, size: 0x8, addend: 0x0, symName: '__ZN5alloc11collections5btree4node119NodeRef$LT$alloc..collections..btree..node..marker..Mut$C$K$C$V$C$alloc..collections..btree..node..marker..Internal$GT$30correct_childrens_parent_links17hd688db3a694b476eE', symObjAddr: 0x774, symBinAddr: 0x36E50, symSize: 0xB4 }
  - { offset: 0x1186B8, size: 0x8, addend: 0x0, symName: '__ZN5alloc11collections5btree4node119NodeRef$LT$alloc..collections..btree..node..marker..Mut$C$K$C$V$C$alloc..collections..btree..node..marker..Internal$GT$30correct_childrens_parent_links17he1c2f4a04531674aE', symObjAddr: 0x828, symBinAddr: 0x36F04, symSize: 0xB4 }
  - { offset: 0x118AF3, size: 0x8, addend: 0x0, symName: '__ZN5alloc11collections5btree4node119NodeRef$LT$alloc..collections..btree..node..marker..Mut$C$K$C$V$C$alloc..collections..btree..node..marker..Internal$GT$4push17h4b17ba769867c9f9E', symObjAddr: 0x8DC, symBinAddr: 0x36FB8, symSize: 0x308 }
  - { offset: 0x1192E0, size: 0x8, addend: 0x0, symName: '__ZN5alloc11collections5btree4node119NodeRef$LT$alloc..collections..btree..node..marker..Mut$C$K$C$V$C$alloc..collections..btree..node..marker..Internal$GT$4push17hf6d3889dc38195ebE', symObjAddr: 0xBE4, symBinAddr: 0x372C0, symSize: 0x314 }
  - { offset: 0x1197AA, size: 0x8, addend: 0x0, symName: '__ZN5alloc11collections5btree4node121NodeRef$LT$alloc..collections..btree..node..marker..Owned$C$K$C$V$C$alloc..collections..btree..node..marker..Internal$GT$12new_internal17hc78b70e46b3a10a6E', symObjAddr: 0xEF8, symBinAddr: 0x375D4, symSize: 0x90 }
  - { offset: 0x11985F, size: 0x8, addend: 0x0, symName: '__ZN5alloc11collections5btree4node121NodeRef$LT$alloc..collections..btree..node..marker..Owned$C$K$C$V$C$alloc..collections..btree..node..marker..Internal$GT$12new_internal17he25a1b68bf39c1c3E', symObjAddr: 0xF88, symBinAddr: 0x37664, symSize: 0x90 }
  - { offset: 0x119A5E, size: 0x8, addend: 0x0, symName: '__ZN5alloc11collections5btree4node121NodeRef$LT$alloc..collections..btree..node..marker..Owned$C$K$C$V$C$alloc..collections..btree..node..marker..Internal$GT$17from_new_internal17h7e23c7bd3a624db4E', symObjAddr: 0x1018, symBinAddr: 0x376F4, symSize: 0xAC }
  - { offset: 0x119D85, size: 0x8, addend: 0x0, symName: '__ZN5alloc11collections5btree4node121NodeRef$LT$alloc..collections..btree..node..marker..Owned$C$K$C$V$C$alloc..collections..btree..node..marker..Internal$GT$17from_new_internal17hf099c14557ff57f7E', symObjAddr: 0x10C4, symBinAddr: 0x377A0, symSize: 0xAC }
  - { offset: 0x11A08B, size: 0x8, addend: 0x0, symName: '__ZN5alloc11collections5btree4node127NodeRef$LT$alloc..collections..btree..node..marker..Dying$C$K$C$V$C$alloc..collections..btree..node..marker..LeafOrInternal$GT$21deallocate_and_ascend17hd723219609ced8abE', symObjAddr: 0x1170, symBinAddr: 0x3784C, symSize: 0x188 }
  - { offset: 0x11A30A, size: 0x8, addend: 0x0, symName: '__ZN5alloc11collections5btree4node127NodeRef$LT$alloc..collections..btree..node..marker..Dying$C$K$C$V$C$alloc..collections..btree..node..marker..LeafOrInternal$GT$21deallocate_and_ascend17he2e9254ad8d7379fE', symObjAddr: 0x12F8, symBinAddr: 0x379D4, symSize: 0x188 }
  - { offset: 0x11A5F4, size: 0x8, addend: 0x0, symName: '__ZN5alloc11collections5btree4node171Handle$LT$alloc..collections..btree..node..NodeRef$LT$alloc..collections..btree..node..marker..Mut$C$K$C$V$C$NodeType$GT$$C$alloc..collections..btree..node..marker..KV$GT$10replace_kv17hcfd6c5aff3f5db23E', symObjAddr: 0x1BE8, symBinAddr: 0x382C4, symSize: 0xF4 }
  - { offset: 0x11A743, size: 0x8, addend: 0x0, symName: '__ZN5alloc11collections5btree4node171Handle$LT$alloc..collections..btree..node..NodeRef$LT$alloc..collections..btree..node..marker..Mut$C$K$C$V$C$NodeType$GT$$C$alloc..collections..btree..node..marker..KV$GT$12into_val_mut17hec34a61f1ab3eb66E', symObjAddr: 0x1CDC, symBinAddr: 0x383B8, symSize: 0x94 }
  - { offset: 0x11A8AF, size: 0x8, addend: 0x0, symName: '__ZN5alloc11collections5btree4node171Handle$LT$alloc..collections..btree..node..NodeRef$LT$alloc..collections..btree..node..marker..Mut$C$K$C$V$C$NodeType$GT$$C$alloc..collections..btree..node..marker..KV$GT$12into_val_mut17hfd1ea54985ef22e6E', symObjAddr: 0x1D70, symBinAddr: 0x3844C, symSize: 0x94 }
  - { offset: 0x11AC63, size: 0x8, addend: 0x0, symName: '__ZN5alloc11collections5btree4node171Handle$LT$alloc..collections..btree..node..NodeRef$LT$alloc..collections..btree..node..marker..Mut$C$K$C$V$C$NodeType$GT$$C$alloc..collections..btree..node..marker..KV$GT$15split_leaf_data17h8cda19dd6787b425E', symObjAddr: 0x1E04, symBinAddr: 0x384E0, symSize: 0x44C }
  - { offset: 0x11B705, size: 0x8, addend: 0x0, symName: '__ZN5alloc11collections5btree4node171Handle$LT$alloc..collections..btree..node..NodeRef$LT$alloc..collections..btree..node..marker..Mut$C$K$C$V$C$NodeType$GT$$C$alloc..collections..btree..node..marker..KV$GT$15split_leaf_data17hbef43eb4d880b253E', symObjAddr: 0x2250, symBinAddr: 0x3892C, symSize: 0x44C }
  - { offset: 0x11BFF9, size: 0x8, addend: 0x0, symName: '__ZN5alloc11collections5btree4node171Handle$LT$alloc..collections..btree..node..NodeRef$LT$alloc..collections..btree..node..marker..Mut$C$K$C$V$C$NodeType$GT$$C$alloc..collections..btree..node..marker..KV$GT$6kv_mut17h5cb7a43b6e08be3eE', symObjAddr: 0x269C, symBinAddr: 0x38D78, symSize: 0x104 }
  - { offset: 0x11C292, size: 0x8, addend: 0x0, symName: '__ZN5alloc11collections5btree4node171Handle$LT$alloc..collections..btree..node..NodeRef$LT$alloc..collections..btree..node..marker..Mut$C$K$C$V$C$NodeType$GT$$C$alloc..collections..btree..node..marker..KV$GT$6kv_mut17hbfbbb457fba25e4eE', symObjAddr: 0x27A0, symBinAddr: 0x38E7C, symSize: 0x104 }
  - { offset: 0x11C4F1, size: 0x8, addend: 0x0, symName: '__ZN5alloc11collections5btree4node173Handle$LT$alloc..collections..btree..node..NodeRef$LT$alloc..collections..btree..node..marker..Dying$C$K$C$V$C$NodeType$GT$$C$alloc..collections..btree..node..marker..KV$GT$12drop_key_val17h0813fb5e0dbb679fE', symObjAddr: 0x28A4, symBinAddr: 0x38F80, symSize: 0x100 }
  - { offset: 0x11C751, size: 0x8, addend: 0x0, symName: '__ZN5alloc11collections5btree4node173Handle$LT$alloc..collections..btree..node..NodeRef$LT$alloc..collections..btree..node..marker..Dying$C$K$C$V$C$NodeType$GT$$C$alloc..collections..btree..node..marker..KV$GT$12drop_key_val17h6d120d6d393a7f1bE', symObjAddr: 0x29A4, symBinAddr: 0x39080, symSize: 0x100 }
  - { offset: 0x11C9EB, size: 0x8, addend: 0x0, symName: '__ZN5alloc11collections5btree4node173Handle$LT$alloc..collections..btree..node..NodeRef$LT$alloc..collections..btree..node..marker..Dying$C$K$C$V$C$NodeType$GT$$C$alloc..collections..btree..node..marker..KV$GT$12into_key_val17h35c2df3f68c4eff6E', symObjAddr: 0x2AA4, symBinAddr: 0x39180, symSize: 0x13C }
  - { offset: 0x11CE14, size: 0x8, addend: 0x0, symName: '__ZN5alloc11collections5btree4node173Handle$LT$alloc..collections..btree..node..NodeRef$LT$alloc..collections..btree..node..marker..Immut$C$K$C$V$C$NodeType$GT$$C$alloc..collections..btree..node..marker..KV$GT$7into_kv17hd499d8526bc20defE', symObjAddr: 0x2BE0, symBinAddr: 0x392BC, symSize: 0xEC }
  - { offset: 0x11D0AC, size: 0x8, addend: 0x0, symName: '__ZN5alloc11collections5btree4node180Handle$LT$alloc..collections..btree..node..NodeRef$LT$BorrowType$C$K$C$V$C$alloc..collections..btree..node..marker..Internal$GT$$C$alloc..collections..btree..node..marker..Edge$GT$7descend17h4a67afde30bb03bfE', symObjAddr: 0x2CCC, symBinAddr: 0x393A8, symSize: 0x9C }
  - { offset: 0x11D25F, size: 0x8, addend: 0x0, symName: '__ZN5alloc11collections5btree4node180Handle$LT$alloc..collections..btree..node..NodeRef$LT$BorrowType$C$K$C$V$C$alloc..collections..btree..node..marker..Internal$GT$$C$alloc..collections..btree..node..marker..Edge$GT$7descend17h6de44b7a0ae06e30E', symObjAddr: 0x2D68, symBinAddr: 0x39444, symSize: 0x9C }
  - { offset: 0x11D457, size: 0x8, addend: 0x0, symName: '__ZN5alloc11collections5btree4node180Handle$LT$alloc..collections..btree..node..NodeRef$LT$BorrowType$C$K$C$V$C$alloc..collections..btree..node..marker..Internal$GT$$C$alloc..collections..btree..node..marker..Edge$GT$7descend17h6f09d0115139221fE', symObjAddr: 0x2E04, symBinAddr: 0x394E0, symSize: 0x9C }
  - { offset: 0x11D635, size: 0x8, addend: 0x0, symName: '__ZN5alloc11collections5btree4node180Handle$LT$alloc..collections..btree..node..NodeRef$LT$BorrowType$C$K$C$V$C$alloc..collections..btree..node..marker..Internal$GT$$C$alloc..collections..btree..node..marker..Edge$GT$7descend17ha358bb2a14663571E', symObjAddr: 0x2EA0, symBinAddr: 0x3957C, symSize: 0x9C }
  - { offset: 0x11D7E8, size: 0x8, addend: 0x0, symName: '__ZN5alloc11collections5btree4node180Handle$LT$alloc..collections..btree..node..NodeRef$LT$BorrowType$C$K$C$V$C$alloc..collections..btree..node..marker..Internal$GT$$C$alloc..collections..btree..node..marker..Edge$GT$7descend17hc8e31883a05e8fbbE', symObjAddr: 0x2F3C, symBinAddr: 0x39618, symSize: 0x9C }
  - { offset: 0x11D98E, size: 0x8, addend: 0x0, symName: '__ZN5alloc11collections5btree4node208Handle$LT$alloc..collections..btree..node..NodeRef$LT$alloc..collections..btree..node..marker..Mut$C$K$C$V$C$alloc..collections..btree..node..marker..Leaf$GT$$C$alloc..collections..btree..node..marker..KV$GT$5split17hfb7ed139b9324facE', symObjAddr: 0x2FD8, symBinAddr: 0x396B4, symSize: 0xA8 }
  - { offset: 0x11DBF3, size: 0x8, addend: 0x0, symName: '__ZN5alloc11collections5btree4node210Handle$LT$alloc..collections..btree..node..NodeRef$LT$alloc..collections..btree..node..marker..Mut$C$K$C$V$C$alloc..collections..btree..node..marker..Leaf$GT$$C$alloc..collections..btree..node..marker..Edge$GT$10insert_fit17h9e0b2e29164397cbE', symObjAddr: 0x3080, symBinAddr: 0x3975C, symSize: 0x200 }
  - { offset: 0x11E056, size: 0x8, addend: 0x0, symName: '__ZN5alloc11collections5btree4node210Handle$LT$alloc..collections..btree..node..NodeRef$LT$alloc..collections..btree..node..marker..Mut$C$K$C$V$C$alloc..collections..btree..node..marker..Leaf$GT$$C$alloc..collections..btree..node..marker..Edge$GT$16insert_recursing17h1e4d96905f67ff93E', symObjAddr: 0x3280, symBinAddr: 0x3995C, symSize: 0x4A4 }
  - { offset: 0x11E4D3, size: 0x8, addend: 0x0, symName: '__ZN5alloc11collections5btree4node210Handle$LT$alloc..collections..btree..node..NodeRef$LT$alloc..collections..btree..node..marker..Mut$C$K$C$V$C$alloc..collections..btree..node..marker..Leaf$GT$$C$alloc..collections..btree..node..marker..Edge$GT$6insert17h2213900993900045E', symObjAddr: 0x3724, symBinAddr: 0x39E00, symSize: 0x4EC }
  - { offset: 0x11E83D, size: 0x8, addend: 0x0, symName: '__ZN5alloc11collections5btree4node212Handle$LT$alloc..collections..btree..node..NodeRef$LT$alloc..collections..btree..node..marker..Mut$C$K$C$V$C$alloc..collections..btree..node..marker..Internal$GT$$C$alloc..collections..btree..node..marker..KV$GT$22consider_for_balancing17hd5906a8e6c1ae061E', symObjAddr: 0x3C10, symBinAddr: 0x3A2EC, symSize: 0xE4 }
  - { offset: 0x11EA6E, size: 0x8, addend: 0x0, symName: '__ZN5alloc11collections5btree4node212Handle$LT$alloc..collections..btree..node..NodeRef$LT$alloc..collections..btree..node..marker..Mut$C$K$C$V$C$alloc..collections..btree..node..marker..Internal$GT$$C$alloc..collections..btree..node..marker..KV$GT$5split17h6a60b81ab7408eb6E', symObjAddr: 0x3CF4, symBinAddr: 0x3A3D0, symSize: 0x28C }
  - { offset: 0x11EFE4, size: 0x8, addend: 0x0, symName: '__ZN5alloc11collections5btree4node214Handle$LT$alloc..collections..btree..node..NodeRef$LT$alloc..collections..btree..node..marker..Mut$C$K$C$V$C$alloc..collections..btree..node..marker..Internal$GT$$C$alloc..collections..btree..node..marker..Edge$GT$10insert_fit17h7231035b62b45d32E', symObjAddr: 0x3F80, symBinAddr: 0x3A65C, symSize: 0x2A0 }
  - { offset: 0x11F547, size: 0x8, addend: 0x0, symName: '__ZN5alloc11collections5btree4node214Handle$LT$alloc..collections..btree..node..NodeRef$LT$alloc..collections..btree..node..marker..Mut$C$K$C$V$C$alloc..collections..btree..node..marker..Internal$GT$$C$alloc..collections..btree..node..marker..Edge$GT$19correct_parent_link17hb2be6fee1ad807a2E', symObjAddr: 0x4220, symBinAddr: 0x3A8FC, symSize: 0x9C }
  - { offset: 0x11F74E, size: 0x8, addend: 0x0, symName: '__ZN5alloc11collections5btree4node214Handle$LT$alloc..collections..btree..node..NodeRef$LT$alloc..collections..btree..node..marker..Mut$C$K$C$V$C$alloc..collections..btree..node..marker..Internal$GT$$C$alloc..collections..btree..node..marker..Edge$GT$19correct_parent_link17hc505113e2ae51d06E', symObjAddr: 0x42BC, symBinAddr: 0x3A998, symSize: 0x9C }
  - { offset: 0x11F9CB, size: 0x8, addend: 0x0, symName: '__ZN5alloc11collections5btree4node214Handle$LT$alloc..collections..btree..node..NodeRef$LT$alloc..collections..btree..node..marker..Mut$C$K$C$V$C$alloc..collections..btree..node..marker..Internal$GT$$C$alloc..collections..btree..node..marker..Edge$GT$6insert17hf962c372b7bcf6e2E', symObjAddr: 0x4358, symBinAddr: 0x3AA34, symSize: 0x4EC }
  - { offset: 0x11FCBB, size: 0x8, addend: 0x0, symName: '__ZN5alloc11collections5btree4node21LeafNode$LT$K$C$V$GT$3new17h2cdbf89479e204b7E', symObjAddr: 0x4844, symBinAddr: 0x3AF20, symSize: 0x70 }
  - { offset: 0x11FF37, size: 0x8, addend: 0x0, symName: '__ZN5alloc11collections5btree4node21LeafNode$LT$K$C$V$GT$3new17h3840f068a72e0fd7E', symObjAddr: 0x48B4, symBinAddr: 0x3AF90, symSize: 0x70 }
  - { offset: 0x120170, size: 0x8, addend: 0x0, symName: '__ZN5alloc11collections5btree4node25InternalNode$LT$K$C$V$GT$3new17h2c3e34178b71d46fE', symObjAddr: 0x4924, symBinAddr: 0x3B000, symSize: 0x70 }
  - { offset: 0x12038C, size: 0x8, addend: 0x0, symName: '__ZN5alloc11collections5btree4node25InternalNode$LT$K$C$V$GT$3new17h5d4009b7a3dfc7f9E', symObjAddr: 0x4994, symBinAddr: 0x3B070, symSize: 0x70 }
  - { offset: 0x120A09, size: 0x8, addend: 0x0, symName: '__ZN5alloc11collections5btree4node29BalancingContext$LT$K$C$V$GT$15bulk_steal_left17h22f5d295b1247c94E', symObjAddr: 0x4A04, symBinAddr: 0x3B0E0, symSize: 0xA10 }
  - { offset: 0x121E35, size: 0x8, addend: 0x0, symName: '__ZN5alloc11collections5btree4node40NodeRef$LT$BorrowType$C$K$C$V$C$Type$GT$6ascend17h3d2445a671622d3bE', symObjAddr: 0x5414, symBinAddr: 0x3BAF0, symSize: 0x17C }
  - { offset: 0x1220FE, size: 0x8, addend: 0x0, symName: '__ZN5alloc11collections5btree4node40NodeRef$LT$BorrowType$C$K$C$V$C$Type$GT$6ascend17h47449bbf6ded2bc6E', symObjAddr: 0x5590, symBinAddr: 0x3BC6C, symSize: 0x17C }
  - { offset: 0x1223A0, size: 0x8, addend: 0x0, symName: '__ZN5alloc11collections5btree4node40NodeRef$LT$BorrowType$C$K$C$V$C$Type$GT$6ascend17h93919168e16157c2E', symObjAddr: 0x570C, symBinAddr: 0x3BDE8, symSize: 0x17C }
  - { offset: 0x122642, size: 0x8, addend: 0x0, symName: '__ZN5alloc11collections5btree4node40NodeRef$LT$BorrowType$C$K$C$V$C$Type$GT$6ascend17hed5c45a10a833beeE', symObjAddr: 0x5888, symBinAddr: 0x3BF64, symSize: 0x17C }
  - { offset: 0x1228E4, size: 0x8, addend: 0x0, symName: '__ZN5alloc11collections5btree4node40NodeRef$LT$BorrowType$C$K$C$V$C$Type$GT$6ascend17hfbe96e40bc0e6710E', symObjAddr: 0x5A04, symBinAddr: 0x3C0E0, symSize: 0x17C }
  - { offset: 0x122B53, size: 0x8, addend: 0x0, symName: '__ZN5alloc11collections5btree4node76NodeRef$LT$alloc..collections..btree..node..marker..Immut$C$K$C$V$C$Type$GT$4keys17h31b7cabb5f925229E', symObjAddr: 0x5B80, symBinAddr: 0x3C25C, symSize: 0xA8 }
  - { offset: 0x122FCC, size: 0x8, addend: 0x0, symName: '__ZN5alloc11collections5btree6append178_$LT$impl$u20$alloc..collections..btree..node..NodeRef$LT$alloc..collections..btree..node..marker..Owned$C$K$C$V$C$alloc..collections..btree..node..marker..LeafOrInternal$GT$$GT$9bulk_push17hb858fb28736eea69E', symObjAddr: 0x5E48, symBinAddr: 0x3C524, symSize: 0x53C }
  - { offset: 0x1235E4, size: 0x8, addend: 0x0, symName: '__ZN5alloc11collections5btree6search142_$LT$impl$u20$alloc..collections..btree..node..NodeRef$LT$BorrowType$C$K$C$V$C$alloc..collections..btree..node..marker..LeafOrInternal$GT$$GT$11search_tree17hdfd27fa0ff415554E', symObjAddr: 0x6384, symBinAddr: 0x3CA60, symSize: 0x240 }
  - { offset: 0x1238C1, size: 0x8, addend: 0x0, symName: '__ZN5alloc11collections5btree6search91_$LT$impl$u20$alloc..collections..btree..node..NodeRef$LT$BorrowType$C$K$C$V$C$Type$GT$$GT$14find_key_index17h9e1b710dd40f796dE', symObjAddr: 0x65C4, symBinAddr: 0x3CCA0, symSize: 0x1D4 }
  - { offset: 0x123D24, size: 0x8, addend: 0x0, symName: '__ZN5alloc11collections5btree8navigate142_$LT$impl$u20$alloc..collections..btree..node..NodeRef$LT$BorrowType$C$K$C$V$C$alloc..collections..btree..node..marker..LeafOrInternal$GT$$GT$14last_leaf_edge17h38c492c405aab8feE', symObjAddr: 0x6798, symBinAddr: 0x3CE74, symSize: 0xEC }
  - { offset: 0x123FF9, size: 0x8, addend: 0x0, symName: '__ZN5alloc11collections5btree8navigate227_$LT$impl$u20$alloc..collections..btree..node..Handle$LT$alloc..collections..btree..node..NodeRef$LT$BorrowType$C$K$C$V$C$alloc..collections..btree..node..marker..Leaf$GT$$C$alloc..collections..btree..node..marker..Edge$GT$$GT$7next_kv17h51e4a0433d67aa54E', symObjAddr: 0x6884, symBinAddr: 0x3CF60, symSize: 0x194 }
  - { offset: 0x124407, size: 0x8, addend: 0x0, symName: '__ZN5alloc11collections5btree8navigate235_$LT$impl$u20$alloc..collections..btree..node..Handle$LT$alloc..collections..btree..node..NodeRef$LT$BorrowType$C$K$C$V$C$alloc..collections..btree..node..marker..LeafOrInternal$GT$$C$alloc..collections..btree..node..marker..KV$GT$$GT$14next_leaf_edge17h3acdbee595e63160E', symObjAddr: 0x6A18, symBinAddr: 0x3D0F4, symSize: 0x210 }
  - { offset: 0x12488B, size: 0x8, addend: 0x0, symName: '__ZN5alloc11collections5btree8navigate235_$LT$impl$u20$alloc..collections..btree..node..Handle$LT$alloc..collections..btree..node..NodeRef$LT$BorrowType$C$K$C$V$C$alloc..collections..btree..node..marker..LeafOrInternal$GT$$C$alloc..collections..btree..node..marker..KV$GT$$GT$14next_leaf_edge17h6a27db662f91ccf5E', symObjAddr: 0x6C28, symBinAddr: 0x3D304, symSize: 0x210 }
  - { offset: 0x124D0F, size: 0x8, addend: 0x0, symName: '__ZN5alloc11collections5btree8navigate235_$LT$impl$u20$alloc..collections..btree..node..Handle$LT$alloc..collections..btree..node..NodeRef$LT$BorrowType$C$K$C$V$C$alloc..collections..btree..node..marker..LeafOrInternal$GT$$C$alloc..collections..btree..node..marker..KV$GT$$GT$14next_leaf_edge17h6f2ec393ad7e3234E', symObjAddr: 0x6E38, symBinAddr: 0x3D514, symSize: 0x210 }
  - { offset: 0x124FD9, size: 0x8, addend: 0x0, symName: '__ZN5alloc11collections5btree8navigate263_$LT$impl$u20$alloc..collections..btree..node..Handle$LT$alloc..collections..btree..node..NodeRef$LT$alloc..collections..btree..node..marker..Dying$C$K$C$V$C$alloc..collections..btree..node..marker..Leaf$GT$$C$alloc..collections..btree..node..marker..Edge$GT$$GT$16deallocating_end17h911e369edc031d7aE', symObjAddr: 0x7048, symBinAddr: 0x3D724, symSize: 0xD4 }
  - { offset: 0x1250FE, size: 0x8, addend: 0x0, symName: '__ZN5alloc11collections5btree8navigate263_$LT$impl$u20$alloc..collections..btree..node..Handle$LT$alloc..collections..btree..node..NodeRef$LT$alloc..collections..btree..node..marker..Dying$C$K$C$V$C$alloc..collections..btree..node..marker..Leaf$GT$$C$alloc..collections..btree..node..marker..Edge$GT$$GT$16deallocating_end17h9a285640979fb2daE', symObjAddr: 0x711C, symBinAddr: 0x3D7F8, symSize: 0xD4 }
  - { offset: 0x125365, size: 0x8, addend: 0x0, symName: '__ZN5alloc11collections5btree8navigate263_$LT$impl$u20$alloc..collections..btree..node..Handle$LT$alloc..collections..btree..node..NodeRef$LT$alloc..collections..btree..node..marker..Dying$C$K$C$V$C$alloc..collections..btree..node..marker..Leaf$GT$$C$alloc..collections..btree..node..marker..Edge$GT$$GT$17deallocating_next17h7aec0512ff4e8a33E', symObjAddr: 0x71F0, symBinAddr: 0x3D8CC, symSize: 0x254 }
  - { offset: 0x1256DB, size: 0x8, addend: 0x0, symName: '__ZN5alloc11collections5btree8navigate263_$LT$impl$u20$alloc..collections..btree..node..Handle$LT$alloc..collections..btree..node..NodeRef$LT$alloc..collections..btree..node..marker..Dying$C$K$C$V$C$alloc..collections..btree..node..marker..Leaf$GT$$C$alloc..collections..btree..node..marker..Edge$GT$$GT$17deallocating_next17hb82f0d54161487c9E', symObjAddr: 0x7444, symBinAddr: 0x3DB20, symSize: 0x254 }
  - { offset: 0x1258ED, size: 0x8, addend: 0x0, symName: __ZN4core5slice4sort6shared9smallsort11insert_tail17h04e8df82177cc5cdE, symObjAddr: 0x0, symBinAddr: 0x3DD74, symSize: 0x1DC }
  - { offset: 0x126856, size: 0x8, addend: 0x0, symName: __ZN4core5slice4sort6shared9smallsort11insert_tail17h04e8df82177cc5cdE, symObjAddr: 0x0, symBinAddr: 0x3DD74, symSize: 0x1DC }
  - { offset: 0x1269B1, size: 0x8, addend: 0x0, symName: __ZN4core5slice4sort6shared9smallsort11insert_tail17h4ecc8dcb5081f4a4E, symObjAddr: 0x1DC, symBinAddr: 0x3DF50, symSize: 0x1DC }
  - { offset: 0x126B0C, size: 0x8, addend: 0x0, symName: __ZN4core5slice4sort6shared9smallsort12sort4_stable17h47b82d6e7457d4fbE, symObjAddr: 0x3B8, symBinAddr: 0x3E12C, symSize: 0x7DC }
  - { offset: 0x127DF1, size: 0x8, addend: 0x0, symName: __ZN4core5slice4sort6shared9smallsort12sort4_stable17he5c72ff073b25761E, symObjAddr: 0xB94, symBinAddr: 0x3E908, symSize: 0x7DC }
  - { offset: 0x1291BA, size: 0x8, addend: 0x0, symName: __ZN4core5slice4sort6shared9smallsort19bidirectional_merge17h6054242d6270fbc6E, symObjAddr: 0x1370, symBinAddr: 0x3F0E4, symSize: 0x59C }
  - { offset: 0x129966, size: 0x8, addend: 0x0, symName: __ZN4core5slice4sort6shared9smallsort19bidirectional_merge17hbfe2569091901173E, symObjAddr: 0x190C, symBinAddr: 0x3F680, symSize: 0x59C }
  - { offset: 0x12A02E, size: 0x8, addend: 0x0, symName: __ZN4core5slice4sort6shared9smallsort25insertion_sort_shift_left17h36a4278ddf1c2507E, symObjAddr: 0x1EA8, symBinAddr: 0x3FC1C, symSize: 0xD0 }
  - { offset: 0x12A168, size: 0x8, addend: 0x0, symName: __ZN4core5slice4sort6shared9smallsort25insertion_sort_shift_left17hf5312dc76f2090b1E, symObjAddr: 0x1F78, symBinAddr: 0x3FCEC, symSize: 0xD0 }
  - { offset: 0x12A2A2, size: 0x8, addend: 0x0, symName: __ZN4core5slice4sort6shared9smallsort31small_sort_general_with_scratch17h4c46fe785a18b919E, symObjAddr: 0x2048, symBinAddr: 0x3FDBC, symSize: 0x500 }
  - { offset: 0x12A6E2, size: 0x8, addend: 0x0, symName: __ZN4core5slice4sort6shared9smallsort31small_sort_general_with_scratch17hbfb26ee0697fe3b5E, symObjAddr: 0x2548, symBinAddr: 0x402BC, symSize: 0x500 }
  - { offset: 0x12AB27, size: 0x8, addend: 0x0, symName: '__ZN99_$LT$core..slice..sort..shared..smallsort..CopyOnDrop$LT$T$GT$$u20$as$u20$core..ops..drop..Drop$GT$4drop17h4c0d7376df93eeddE', symObjAddr: 0x2A48, symBinAddr: 0x407BC, symSize: 0x8C }
  - { offset: 0x12B9D1, size: 0x8, addend: 0x0, symName: __ZN3nom5error10ParseError9from_char17h531f9cc0cef58a6bE, symObjAddr: 0x0, symBinAddr: 0x40848, symSize: 0x30 }
  - { offset: 0x12BB8D, size: 0x8, addend: 0x0, symName: __ZN3nom5error10ParseError9from_char17h531f9cc0cef58a6bE, symObjAddr: 0x0, symBinAddr: 0x40848, symSize: 0x30 }
  - { offset: 0x12BBDB, size: 0x8, addend: 0x0, symName: '__ZN58_$LT$nom..error..ErrorKind$u20$as$u20$core..fmt..Debug$GT$3fmt17ha8dd4d4a2039c306E', symObjAddr: 0x1D0C, symBinAddr: 0x42554, symSize: 0x558 }
  - { offset: 0x12BC1E, size: 0x8, addend: 0x0, symName: '__ZN63_$LT$nom..error..Error$LT$I$GT$$u20$as$u20$core..fmt..Debug$GT$3fmt17he199346892b31b06E', symObjAddr: 0x2264, symBinAddr: 0x42AAC, symSize: 0x88 }
  - { offset: 0x12BC67, size: 0x8, addend: 0x0, symName: '__ZN78_$LT$nom..error..Error$LT$I$GT$$u20$as$u20$nom..error..ParseError$LT$I$GT$$GT$15from_error_kind17he68e2a0771b7f96dE', symObjAddr: 0x2A20, symBinAddr: 0x43268, symSize: 0x28 }
  - { offset: 0x12BCB0, size: 0x8, addend: 0x0, symName: '__ZN89_$LT$nom..error..Error$LT$I$GT$$u20$as$u20$nom..error..FromExternalError$LT$I$C$E$GT$$GT$19from_external_error17h4a25c67a88a89ea7E', symObjAddr: 0x2A48, symBinAddr: 0x43290, symSize: 0x40 }
  - { offset: 0x12BF8B, size: 0x8, addend: 0x0, symName: '__ZN63_$LT$zcash_address..AddressKind$u20$as$u20$core..fmt..Debug$GT$3fmt17h783e5df66e86ca82E', symObjAddr: 0x22EC, symBinAddr: 0x42B34, symSize: 0x1D8 }
  - { offset: 0x12C079, size: 0x8, addend: 0x0, symName: '__ZN64_$LT$zcash_address..ZcashAddress$u20$as$u20$core..fmt..Debug$GT$3fmt17h23b1b7b5e4b11a38E', symObjAddr: 0x24C4, symBinAddr: 0x42D0C, symSize: 0x88 }
  - { offset: 0x12C0B9, size: 0x8, addend: 0x0, symName: '__ZN65_$LT$zcash_address..AddressKind$u20$as$u20$core..clone..Clone$GT$5clone17h059b48b85f2884a4E', symObjAddr: 0x254C, symBinAddr: 0x42D94, symSize: 0x224 }
  - { offset: 0x12C19A, size: 0x8, addend: 0x0, symName: '__ZN66_$LT$zcash_address..ZcashAddress$u20$as$u20$core..clone..Clone$GT$5clone17hb78bcb92478557f4E', symObjAddr: 0x2770, symBinAddr: 0x42FB8, symSize: 0x60 }
  - { offset: 0x12CA1C, size: 0x8, addend: 0x0, symName: '__ZN42_$LT$$RF$T$u20$as$u20$core..fmt..Debug$GT$3fmt17hae2a878a1dc39bd6E', symObjAddr: 0x30, symBinAddr: 0x40878, symSize: 0x30 }
  - { offset: 0x12CA62, size: 0x8, addend: 0x0, symName: '__ZN42_$LT$$RF$T$u20$as$u20$core..fmt..Debug$GT$3fmt17hf9ea94a636e9e04dE', symObjAddr: 0x60, symBinAddr: 0x408A8, symSize: 0x30 }
  - { offset: 0x12CAA8, size: 0x8, addend: 0x0, symName: '__ZN42_$LT$$RF$T$u20$as$u20$core..fmt..Debug$GT$3fmt17hfe0e4a144ee7d453E', symObjAddr: 0x90, symBinAddr: 0x408D8, symSize: 0x30 }
  - { offset: 0x12CE21, size: 0x8, addend: 0x0, symName: '__ZN4core5array69_$LT$impl$u20$core..fmt..Debug$u20$for$u20$$u5b$T$u3b$$u20$N$u5d$$GT$3fmt17h7c08eaaffe1f4b41E', symObjAddr: 0xC0, symBinAddr: 0x40908, symSize: 0x58 }
  - { offset: 0x12CEB3, size: 0x8, addend: 0x0, symName: '__ZN4core5array69_$LT$impl$u20$core..fmt..Debug$u20$for$u20$$u5b$T$u3b$$u20$N$u5d$$GT$3fmt17hc6bd6b78ab2a9b53E', symObjAddr: 0x118, symBinAddr: 0x40960, symSize: 0x58 }
  - { offset: 0x12CF45, size: 0x8, addend: 0x0, symName: '__ZN4core5array69_$LT$impl$u20$core..fmt..Debug$u20$for$u20$$u5b$T$u3b$$u20$N$u5d$$GT$3fmt17hca84fef4c84ef630E', symObjAddr: 0x170, symBinAddr: 0x409B8, symSize: 0x58 }
  - { offset: 0x12D304, size: 0x8, addend: 0x0, symName: __ZN4core5slice4sort6stable14driftsort_main17h2fcd31a63e112012E, symObjAddr: 0x1C8, symBinAddr: 0x40A10, symSize: 0x28C }
  - { offset: 0x12D4AD, size: 0x8, addend: 0x0, symName: __ZN4core5slice4sort6stable14driftsort_main17h344f38df7d48dd30E, symObjAddr: 0x454, symBinAddr: 0x40C9C, symSize: 0x28C }
  - { offset: 0x12D6C8, size: 0x8, addend: 0x0, symName: __ZN4core5slice4sort6stable5drift10create_run17h2e1cc2e3520e7986E, symObjAddr: 0x764, symBinAddr: 0x40FAC, symSize: 0x438 }
  - { offset: 0x12DBD9, size: 0x8, addend: 0x0, symName: __ZN4core5slice4sort6stable5drift10create_run17h553005afb84d7af4E, symObjAddr: 0xB9C, symBinAddr: 0x413E4, symSize: 0x438 }
  - { offset: 0x12E0EA, size: 0x8, addend: 0x0, symName: __ZN4core5slice4sort6stable5drift16stable_quicksort17h67dadb010672bbe7E, symObjAddr: 0xFD4, symBinAddr: 0x4181C, symSize: 0xB4 }
  - { offset: 0x12E224, size: 0x8, addend: 0x0, symName: __ZN4core5slice4sort6stable5drift16stable_quicksort17h7c4f82d5ce2e9ef8E, symObjAddr: 0x1088, symBinAddr: 0x418D0, symSize: 0xB4 }
  - { offset: 0x12E449, size: 0x8, addend: 0x0, symName: __ZN4core5slice4sort6stable5drift4sort17h5bbd57c1b3de19dbE, symObjAddr: 0x113C, symBinAddr: 0x41984, symSize: 0x5C4 }
  - { offset: 0x12ECBE, size: 0x8, addend: 0x0, symName: __ZN4core5slice4sort6stable5drift4sort17hcb319224e727f8f7E, symObjAddr: 0x1700, symBinAddr: 0x41F48, symSize: 0x5C4 }
  - { offset: 0x1300D2, size: 0x8, addend: 0x0, symName: '__ZN51_$LT$T$u20$as$u20$core..clone..uninit..CopySpec$GT$9clone_one17h1b57aa5adeb08044E', symObjAddr: 0x1CC4, symBinAddr: 0x4250C, symSize: 0x48 }
  - { offset: 0x130181, size: 0x8, addend: 0x0, symName: '__ZN75_$LT$zcash_protocol..consensus..NetworkType$u20$as$u20$core..fmt..Debug$GT$3fmt17h551aa84fcfcd00f9E', symObjAddr: 0x2964, symBinAddr: 0x431AC, symSize: 0xA4 }
  - { offset: 0x1301C1, size: 0x8, addend: 0x0, symName: '__ZN77_$LT$zcash_protocol..consensus..NetworkType$u20$as$u20$core..clone..Clone$GT$5clone17hcfb339322dc8c1c0E', symObjAddr: 0x2A08, symBinAddr: 0x43250, symSize: 0x18 }
  - { offset: 0x1302C2, size: 0x8, addend: 0x0, symName: __ZN6base646encode19encode_with_padding17h1c4ce69de48587a8E, symObjAddr: 0x27D0, symBinAddr: 0x43018, symSize: 0x194 }
  - { offset: 0x130622, size: 0x8, addend: 0x0, symName: '__ZN4core5slice4sort6stable27AlignedStorage$LT$T$C$_$GT$19as_uninit_slice_mut17h7772c66d472a74d3E', symObjAddr: 0x6E0, symBinAddr: 0x40F28, symSize: 0x84 }
  - { offset: 0x130C00, size: 0x8, addend: 0x0, symName: '__ZN42_$LT$$RF$T$u20$as$u20$core..fmt..Debug$GT$3fmt17h43dfcb6bc391d101E', symObjAddr: 0x0, symBinAddr: 0x432D0, symSize: 0x30 }
  - { offset: 0x130C84, size: 0x8, addend: 0x0, symName: '__ZN68_$LT$zcash_protocol..value..Zatoshis$u20$as$u20$core..fmt..Debug$GT$3fmt17hd6c096a73a3f101aE', symObjAddr: 0x1F3C, symBinAddr: 0x4520C, symSize: 0x54 }
  - { offset: 0x130CF5, size: 0x8, addend: 0x0, symName: '__ZN42_$LT$$RF$T$u20$as$u20$core..fmt..Debug$GT$3fmt17h43dfcb6bc391d101E', symObjAddr: 0x0, symBinAddr: 0x432D0, symSize: 0x30 }
  - { offset: 0x130D3B, size: 0x8, addend: 0x0, symName: '__ZN42_$LT$$RF$T$u20$as$u20$core..fmt..Debug$GT$3fmt17h7cda78cb68cae78aE', symObjAddr: 0x30, symBinAddr: 0x43300, symSize: 0x30 }
  - { offset: 0x130D81, size: 0x8, addend: 0x0, symName: '__ZN42_$LT$$RF$T$u20$as$u20$core..fmt..Debug$GT$3fmt17h9f7b3f8078cb0bbaE', symObjAddr: 0x60, symBinAddr: 0x43330, symSize: 0x30 }
  - { offset: 0x130DC7, size: 0x8, addend: 0x0, symName: '__ZN42_$LT$$RF$T$u20$as$u20$core..fmt..Debug$GT$3fmt17haf1b8ab4da9bf58fE', symObjAddr: 0x90, symBinAddr: 0x43360, symSize: 0x30 }
  - { offset: 0x130E0D, size: 0x8, addend: 0x0, symName: '__ZN42_$LT$$RF$T$u20$as$u20$core..fmt..Debug$GT$3fmt17hf768d541110c862aE', symObjAddr: 0xC0, symBinAddr: 0x43390, symSize: 0x30 }
  - { offset: 0x130E59, size: 0x8, addend: 0x0, symName: '__ZN44_$LT$$RF$T$u20$as$u20$core..fmt..Display$GT$3fmt17h0b40deabdef3efddE', symObjAddr: 0xF0, symBinAddr: 0x433C0, symSize: 0x30 }
  - { offset: 0x131BA6, size: 0x8, addend: 0x0, symName: '__ZN75_$LT$core..num..nonzero..NonZero$LT$T$GT$$u20$as$u20$core..fmt..Display$GT$3fmt17hdc654e0f96fa62dcE', symObjAddr: 0x1F90, symBinAddr: 0x45260, symSize: 0x3C }
  - { offset: 0x1321F0, size: 0x8, addend: 0x0, symName: __ZN4core5slice4sort6stable9quicksort16stable_partition17h05fff5dec9ae2e45E, symObjAddr: 0x2E4, symBinAddr: 0x435B4, symSize: 0x4BC }
  - { offset: 0x132634, size: 0x8, addend: 0x0, symName: __ZN4core5slice4sort6stable9quicksort16stable_partition17h20ce01c6c0871087E, symObjAddr: 0x7A0, symBinAddr: 0x43A70, symSize: 0x4BC }
  - { offset: 0x132A78, size: 0x8, addend: 0x0, symName: __ZN4core5slice4sort6stable9quicksort16stable_partition17h62adec0a8e73dcddE, symObjAddr: 0xC5C, symBinAddr: 0x43F2C, symSize: 0x4BC }
  - { offset: 0x132EBC, size: 0x8, addend: 0x0, symName: __ZN4core5slice4sort6stable9quicksort16stable_partition17hee0eafb55e58e833E, symObjAddr: 0x1118, symBinAddr: 0x443E8, symSize: 0x4BC }
  - { offset: 0x133300, size: 0x8, addend: 0x0, symName: __ZN4core5slice4sort6stable9quicksort9quicksort17h2d7a94304ad06494E, symObjAddr: 0x1714, symBinAddr: 0x449E4, symSize: 0x3CC }
  - { offset: 0x1335AD, size: 0x8, addend: 0x0, symName: __ZN4core5slice4sort6stable9quicksort9quicksort17h4cd57d8e01e5c914E, symObjAddr: 0x1AE0, symBinAddr: 0x44DB0, symSize: 0x3CC }
  - { offset: 0x133845, size: 0x8, addend: 0x0, symName: '__ZN4core5slice4sort6stable9quicksort9quicksort28_$u7b$$u7b$closure$u7d$$u7d$17h9079dced40828202E', symObjAddr: 0x1EAC, symBinAddr: 0x4517C, symSize: 0x48 }
  - { offset: 0x1338A2, size: 0x8, addend: 0x0, symName: '__ZN4core5slice4sort6stable9quicksort9quicksort28_$u7b$$u7b$closure$u7d$$u7d$17ha853e4d7831df140E', symObjAddr: 0x1EF4, symBinAddr: 0x451C4, symSize: 0x48 }
  - { offset: 0x133D79, size: 0x8, addend: 0x0, symName: '__ZN4core3fmt2rt38_$LT$impl$u20$core..fmt..Arguments$GT$16new_v1_formatted17hb626e88590e4ea09E', symObjAddr: 0x120, symBinAddr: 0x433F0, symSize: 0x48 }
  - { offset: 0x133E15, size: 0x8, addend: 0x0, symName: __ZN4core3fmt9Formatter9write_fmt17he4343f2c25c93f88E, symObjAddr: 0x168, symBinAddr: 0x43438, symSize: 0x17C }
  - { offset: 0x134575, size: 0x8, addend: 0x0, symName: '__ZN4core5slice4sort6stable9quicksort23PartitionState$LT$T$GT$13partition_one17hb6036faec1e79f9fE', symObjAddr: 0x15D4, symBinAddr: 0x448A4, symSize: 0x140 }
  - { offset: 0x134823, size: 0x8, addend: 0x0, symName: '__ZN111_$LT$alloc..vec..Vec$LT$T$GT$$u20$as$u20$alloc..vec..spec_from_iter_nested..SpecFromIterNested$LT$T$C$I$GT$$GT$9from_iter17h29708f1c49203d49E', symObjAddr: 0x0, symBinAddr: 0x4529C, symSize: 0x294 }
  - { offset: 0x136780, size: 0x8, addend: 0x0, symName: '__ZN42_$LT$$RF$T$u20$as$u20$core..fmt..Debug$GT$3fmt17h2f69261eb63a63b5E', symObjAddr: 0x81C, symBinAddr: 0x45AB8, symSize: 0x30 }
  - { offset: 0x1367C6, size: 0x8, addend: 0x0, symName: '__ZN42_$LT$$RF$T$u20$as$u20$core..fmt..Debug$GT$3fmt17h549838602eb867a2E', symObjAddr: 0x84C, symBinAddr: 0x45AE8, symSize: 0x30 }
  - { offset: 0x136916, size: 0x8, addend: 0x0, symName: '__ZN49_$LT$usize$u20$as$u20$core..iter..range..Step$GT$17forward_unchecked17h8e39fcfc5b6e6f13E', symObjAddr: 0x87C, symBinAddr: 0x45B18, symSize: 0x50 }
  - { offset: 0x136C91, size: 0x8, addend: 0x0, symName: __ZN4core5alloc6layout6Layout25from_size_align_unchecked18precondition_check17h7f89600d6446168bE, symObjAddr: 0x8CC, symBinAddr: 0x45B68, symSize: 0xBC }
  - { offset: 0x1373FF, size: 0x8, addend: 0x0, symName: '__ZN111_$LT$alloc..vec..Vec$LT$T$GT$$u20$as$u20$alloc..vec..spec_from_iter_nested..SpecFromIterNested$LT$T$C$I$GT$$GT$9from_iter17h29708f1c49203d49E', symObjAddr: 0x0, symBinAddr: 0x4529C, symSize: 0x294 }
  - { offset: 0x1376B9, size: 0x8, addend: 0x0, symName: '__ZN111_$LT$alloc..vec..Vec$LT$T$GT$$u20$as$u20$alloc..vec..spec_from_iter_nested..SpecFromIterNested$LT$T$C$I$GT$$GT$9from_iter17hb31d1c8432f17672E', symObjAddr: 0x418, symBinAddr: 0x456B4, symSize: 0x280 }
  - { offset: 0x137979, size: 0x8, addend: 0x0, symName: '__ZN111_$LT$alloc..vec..Vec$LT$T$GT$$u20$as$u20$alloc..vec..spec_from_iter_nested..SpecFromIterNested$LT$T$C$I$GT$$GT$9from_iter17h9454b4a462a526b4E', symObjAddr: 0x294, symBinAddr: 0x45530, symSize: 0x184 }
  - { offset: 0x137A50, size: 0x8, addend: 0x0, symName: '__ZN111_$LT$alloc..vec..Vec$LT$T$GT$$u20$as$u20$alloc..vec..spec_from_iter_nested..SpecFromIterNested$LT$T$C$I$GT$$GT$9from_iter17hcf3cd25947ac5590E', symObjAddr: 0x698, symBinAddr: 0x45934, symSize: 0x184 }
  - { offset: 0x138081, size: 0x8, addend: 0x0, symName: '__ZN5alloc3vec16Vec$LT$T$C$A$GT$14extend_trusted28_$u7b$$u7b$closure$u7d$$u7d$17h4a70503f7c5e3a79E', symObjAddr: 0xCE8, symBinAddr: 0x45F84, symSize: 0x44 }
  - { offset: 0x13812E, size: 0x8, addend: 0x0, symName: '__ZN5alloc3vec16Vec$LT$T$C$A$GT$14extend_trusted28_$u7b$$u7b$closure$u7d$$u7d$17hc526b335d4c8566eE', symObjAddr: 0xD2C, symBinAddr: 0x45FC8, symSize: 0x54 }
  - { offset: 0x138362, size: 0x8, addend: 0x0, symName: '__ZN5alloc3vec16Vec$LT$T$C$A$GT$17from_raw_parts_in18precondition_check17h00990cba6e22f81cE', symObjAddr: 0x1238, symBinAddr: 0x464D4, symSize: 0xAC }
  - { offset: 0x1383D0, size: 0x8, addend: 0x0, symName: '__ZN5alloc3vec16Vec$LT$T$C$A$GT$7set_len18precondition_check17h0a7f5e4053295099E', symObjAddr: 0x1578, symBinAddr: 0x46814, symSize: 0xAC }
  - { offset: 0x1384C7, size: 0x8, addend: 0x0, symName: '__ZN5alloc3vec16in_place_collect108_$LT$impl$u20$alloc..vec..spec_from_iter..SpecFromIter$LT$T$C$I$GT$$u20$for$u20$alloc..vec..Vec$LT$T$GT$$GT$9from_iter17h3b8787c2e9bddcb5E', symObjAddr: 0x1ADC, symBinAddr: 0x46D78, symSize: 0x28 }
  - { offset: 0x138525, size: 0x8, addend: 0x0, symName: __ZN5alloc3vec9from_elem17he93a25ef7fbebba0E, symObjAddr: 0x1B04, symBinAddr: 0x46DA0, symSize: 0x24 }
  - { offset: 0x138600, size: 0x8, addend: 0x0, symName: '__ZN72_$LT$alloc..vec..Vec$LT$T$C$A$GT$$u20$as$u20$core..ops..deref..Deref$GT$5deref17h63a282c7fb0c8071E', symObjAddr: 0x1F30, symBinAddr: 0x471CC, symSize: 0x24 }
  - { offset: 0x138640, size: 0x8, addend: 0x0, symName: '__ZN72_$LT$alloc..vec..Vec$LT$T$C$A$GT$$u20$as$u20$core..ops..deref..Deref$GT$5deref17hb090f06fe915c381E', symObjAddr: 0x1F54, symBinAddr: 0x471F0, symSize: 0x24 }
  - { offset: 0x138680, size: 0x8, addend: 0x0, symName: '__ZN72_$LT$alloc..vec..Vec$LT$T$C$A$GT$$u20$as$u20$core..ops..deref..Deref$GT$5deref17hd5c7ea12e54c02c5E', symObjAddr: 0x1F78, symBinAddr: 0x47214, symSize: 0x24 }
  - { offset: 0x1386C6, size: 0x8, addend: 0x0, symName: '__ZN65_$LT$alloc..vec..Vec$LT$T$C$A$GT$$u20$as$u20$core..fmt..Debug$GT$3fmt17h22883186af5817dcE', symObjAddr: 0x1C48, symBinAddr: 0x46EE4, symSize: 0x7C }
  - { offset: 0x1387DC, size: 0x8, addend: 0x0, symName: '__ZN67_$LT$alloc..vec..Vec$LT$T$C$A$GT$$u20$as$u20$core..clone..Clone$GT$5clone17h49aa67007c48dbfdE', symObjAddr: 0x1CC4, symBinAddr: 0x46F60, symSize: 0x90 }
  - { offset: 0x1389AD, size: 0x8, addend: 0x0, symName: '__ZN67_$LT$alloc..vec..Vec$LT$T$C$A$GT$$u20$as$u20$core..clone..Clone$GT$5clone17hdfb05ac899b6925fE', symObjAddr: 0x1D54, symBinAddr: 0x46FF0, symSize: 0x8C }
  - { offset: 0x138B84, size: 0x8, addend: 0x0, symName: '__ZN70_$LT$alloc..vec..Vec$LT$T$C$A$GT$$u20$as$u20$core..ops..drop..Drop$GT$4drop17h48ef2631fac1debeE', symObjAddr: 0x1DE0, symBinAddr: 0x4707C, symSize: 0x38 }
  - { offset: 0x138C34, size: 0x8, addend: 0x0, symName: '__ZN70_$LT$alloc..vec..Vec$LT$T$C$A$GT$$u20$as$u20$core..ops..drop..Drop$GT$4drop17h707db7de3d057c61E', symObjAddr: 0x1E18, symBinAddr: 0x470B4, symSize: 0x38 }
  - { offset: 0x138CE4, size: 0x8, addend: 0x0, symName: '__ZN70_$LT$alloc..vec..Vec$LT$T$C$A$GT$$u20$as$u20$core..ops..drop..Drop$GT$4drop17hd43066804bcc9eb3E', symObjAddr: 0x1E50, symBinAddr: 0x470EC, symSize: 0x38 }
  - { offset: 0x138D94, size: 0x8, addend: 0x0, symName: '__ZN70_$LT$alloc..vec..Vec$LT$T$C$A$GT$$u20$as$u20$core..ops..drop..Drop$GT$4drop17hd95c3f3362db717dE', symObjAddr: 0x1E88, symBinAddr: 0x47124, symSize: 0x38 }
  - { offset: 0x138E44, size: 0x8, addend: 0x0, symName: '__ZN70_$LT$alloc..vec..Vec$LT$T$C$A$GT$$u20$as$u20$core..ops..drop..Drop$GT$4drop17he85ee831f02a182bE', symObjAddr: 0x1EC0, symBinAddr: 0x4715C, symSize: 0x38 }
  - { offset: 0x138EF4, size: 0x8, addend: 0x0, symName: '__ZN70_$LT$alloc..vec..Vec$LT$T$C$A$GT$$u20$as$u20$core..ops..drop..Drop$GT$4drop17hea33aeec8877c032E', symObjAddr: 0x1EF8, symBinAddr: 0x47194, symSize: 0x38 }
  - { offset: 0x138FAA, size: 0x8, addend: 0x0, symName: '__ZN90_$LT$alloc..vec..Vec$LT$T$C$A$GT$$u20$as$u20$core..iter..traits..collect..IntoIterator$GT$9into_iter17h254dae6dca556403E', symObjAddr: 0x2008, symBinAddr: 0x47238, symSize: 0xE4 }
  - { offset: 0x13923C, size: 0x8, addend: 0x0, symName: '__ZN90_$LT$alloc..vec..Vec$LT$T$C$A$GT$$u20$as$u20$core..iter..traits..collect..IntoIterator$GT$9into_iter17hbc54215442e6a349E', symObjAddr: 0x20EC, symBinAddr: 0x4731C, symSize: 0xE4 }
  - { offset: 0x1394CE, size: 0x8, addend: 0x0, symName: '__ZN90_$LT$alloc..vec..Vec$LT$T$C$A$GT$$u20$as$u20$core..iter..traits..collect..IntoIterator$GT$9into_iter17hc5da06e11beb47ecE', symObjAddr: 0x21D0, symBinAddr: 0x47400, symSize: 0xE4 }
  - { offset: 0x139760, size: 0x8, addend: 0x0, symName: '__ZN90_$LT$alloc..vec..Vec$LT$T$C$A$GT$$u20$as$u20$core..iter..traits..collect..IntoIterator$GT$9into_iter17hcaef50eb8cbf2700E', symObjAddr: 0x22B4, symBinAddr: 0x474E4, symSize: 0xE4 }
  - { offset: 0x1399F8, size: 0x8, addend: 0x0, symName: '__ZN95_$LT$alloc..vec..Vec$LT$T$GT$$u20$as$u20$core..iter..traits..collect..FromIterator$LT$T$GT$$GT$9from_iter17h38f80b29a95cf17cE', symObjAddr: 0x2398, symBinAddr: 0x475C8, symSize: 0x3C }
  - { offset: 0x139A39, size: 0x8, addend: 0x0, symName: '__ZN95_$LT$alloc..vec..Vec$LT$T$GT$$u20$as$u20$core..iter..traits..collect..FromIterator$LT$T$GT$$GT$9from_iter17h4e86c97112a2bb1eE', symObjAddr: 0x23D4, symBinAddr: 0x47604, symSize: 0x44 }
  - { offset: 0x139A7A, size: 0x8, addend: 0x0, symName: '__ZN95_$LT$alloc..vec..Vec$LT$T$GT$$u20$as$u20$core..iter..traits..collect..FromIterator$LT$T$GT$$GT$9from_iter17h784ed128a02e87a1E', symObjAddr: 0x2418, symBinAddr: 0x47648, symSize: 0x3C }
  - { offset: 0x139ABB, size: 0x8, addend: 0x0, symName: '__ZN95_$LT$alloc..vec..Vec$LT$T$GT$$u20$as$u20$core..iter..traits..collect..FromIterator$LT$T$GT$$GT$9from_iter17hec594ec42b874c09E', symObjAddr: 0x2454, symBinAddr: 0x47684, symSize: 0x3C }
  - { offset: 0x139B07, size: 0x8, addend: 0x0, symName: '__ZN97_$LT$alloc..vec..Vec$LT$T$C$A$GT$$u20$as$u20$alloc..vec..spec_extend..SpecExtend$LT$T$C$I$GT$$GT$11spec_extend17h47cf03525c6f2a48E', symObjAddr: 0x2490, symBinAddr: 0x476C0, symSize: 0x24 }
  - { offset: 0x139B59, size: 0x8, addend: 0x0, symName: '__ZN97_$LT$alloc..vec..Vec$LT$T$C$A$GT$$u20$as$u20$alloc..vec..spec_extend..SpecExtend$LT$T$C$I$GT$$GT$11spec_extend17hc2124b80bc25b16bE', symObjAddr: 0x24D8, symBinAddr: 0x47708, symSize: 0x24 }
  - { offset: 0x139BB1, size: 0x8, addend: 0x0, symName: '__ZN97_$LT$alloc..vec..Vec$LT$T$C$A$GT$$u20$as$u20$alloc..vec..spec_extend..SpecExtend$LT$T$C$I$GT$$GT$11spec_extend17h4d3d0782722d9880E', symObjAddr: 0x24B4, symBinAddr: 0x476E4, symSize: 0x24 }
  - { offset: 0x139C03, size: 0x8, addend: 0x0, symName: '__ZN97_$LT$alloc..vec..Vec$LT$T$C$A$GT$$u20$as$u20$alloc..vec..spec_extend..SpecExtend$LT$T$C$I$GT$$GT$11spec_extend17hfcfb7884cf7686d7E', symObjAddr: 0x24FC, symBinAddr: 0x4772C, symSize: 0x24 }
  - { offset: 0x139C61, size: 0x8, addend: 0x0, symName: '__ZN98_$LT$alloc..vec..Vec$LT$T$GT$$u20$as$u20$alloc..vec..spec_from_iter..SpecFromIter$LT$T$C$I$GT$$GT$9from_iter17h2d647152c3f3a2f2E', symObjAddr: 0x2520, symBinAddr: 0x47750, symSize: 0x14 }
  - { offset: 0x139CA0, size: 0x8, addend: 0x0, symName: '__ZN98_$LT$alloc..vec..Vec$LT$T$GT$$u20$as$u20$alloc..vec..spec_from_iter..SpecFromIter$LT$T$C$I$GT$$GT$9from_iter17h94590b5703d0a75aE', symObjAddr: 0x2534, symBinAddr: 0x47764, symSize: 0x14 }
  - { offset: 0x139CDF, size: 0x8, addend: 0x0, symName: '__ZN98_$LT$alloc..vec..Vec$LT$T$GT$$u20$as$u20$alloc..vec..spec_from_iter..SpecFromIter$LT$T$C$I$GT$$GT$9from_iter17hf0bd683b3404435bE', symObjAddr: 0x2548, symBinAddr: 0x47778, symSize: 0x14 }
  - { offset: 0x13AC2D, size: 0x8, addend: 0x0, symName: '__ZN5alloc5slice99_$LT$impl$u20$core..slice..sort..stable..BufGuard$LT$T$GT$$u20$for$u20$alloc..vec..Vec$LT$T$GT$$GT$13with_capacity17h2c920944de2b07f0E', symObjAddr: 0x1B28, symBinAddr: 0x46DC4, symSize: 0x4C }
  - { offset: 0x13ACCE, size: 0x8, addend: 0x0, symName: '__ZN5alloc5slice99_$LT$impl$u20$core..slice..sort..stable..BufGuard$LT$T$GT$$u20$for$u20$alloc..vec..Vec$LT$T$GT$$GT$19as_uninit_slice_mut17ha23e382e3c355c18E', symObjAddr: 0x1B74, symBinAddr: 0x46E10, symSize: 0xD4 }
  - { offset: 0x13BB3E, size: 0x8, addend: 0x0, symName: '__ZN5alloc3vec12Vec$LT$T$GT$3new17h242378b1b7273359E', symObjAddr: 0x988, symBinAddr: 0x45C24, symSize: 0x14 }
  - { offset: 0x13BB75, size: 0x8, addend: 0x0, symName: '__ZN5alloc3vec12Vec$LT$T$GT$3new17h722b86e5f007f91bE', symObjAddr: 0x99C, symBinAddr: 0x45C38, symSize: 0x14 }
  - { offset: 0x13BCA8, size: 0x8, addend: 0x0, symName: '__ZN5alloc3vec16Vec$LT$T$C$A$GT$14extend_trusted17h19ddf2b604f4422aE', symObjAddr: 0x9B0, symBinAddr: 0x45C4C, symSize: 0x19C }
  - { offset: 0x13BF6C, size: 0x8, addend: 0x0, symName: '__ZN5alloc3vec16Vec$LT$T$C$A$GT$14extend_trusted17h9f471abf49e571a5E', symObjAddr: 0xB4C, symBinAddr: 0x45DE8, symSize: 0x19C }
  - { offset: 0x13C369, size: 0x8, addend: 0x0, symName: '__ZN5alloc3vec16Vec$LT$T$C$A$GT$16extend_desugared17h1578c2ff4d364d2bE', symObjAddr: 0xD80, symBinAddr: 0x4601C, symSize: 0x1FC }
  - { offset: 0x13C8B5, size: 0x8, addend: 0x0, symName: '__ZN5alloc3vec16Vec$LT$T$C$A$GT$16extend_desugared17h988209de9367b573E', symObjAddr: 0xF7C, symBinAddr: 0x46218, symSize: 0x214 }
  - { offset: 0x13CC5F, size: 0x8, addend: 0x0, symName: '__ZN5alloc3vec16Vec$LT$T$C$A$GT$17from_raw_parts_in17h0baf05240a77a633E', symObjAddr: 0x1190, symBinAddr: 0x4642C, symSize: 0xA8 }
  - { offset: 0x13CE04, size: 0x8, addend: 0x0, symName: '__ZN5alloc3vec16Vec$LT$T$C$A$GT$3len17hf3df2b084717b201E', symObjAddr: 0x12E4, symBinAddr: 0x46580, symSize: 0x18 }
  - { offset: 0x13CE46, size: 0x8, addend: 0x0, symName: '__ZN5alloc3vec16Vec$LT$T$C$A$GT$4push17haa748a4c3009752dE', symObjAddr: 0x12FC, symBinAddr: 0x46598, symSize: 0x24 }
  - { offset: 0x13CE98, size: 0x8, addend: 0x0, symName: '__ZN5alloc3vec16Vec$LT$T$C$A$GT$4push17hb0231418f78d4f76E', symObjAddr: 0x1320, symBinAddr: 0x465BC, symSize: 0x24 }
  - { offset: 0x13CEEA, size: 0x8, addend: 0x0, symName: '__ZN5alloc3vec16Vec$LT$T$C$A$GT$4push17hdb3597eea78d67a3E', symObjAddr: 0x1344, symBinAddr: 0x465E0, symSize: 0x24 }
  - { offset: 0x13D066, size: 0x8, addend: 0x0, symName: '__ZN5alloc3vec16Vec$LT$T$C$A$GT$7reserve17h007e3aeb0df63f2eE', symObjAddr: 0x1368, symBinAddr: 0x46604, symSize: 0xC8 }
  - { offset: 0x13D2E3, size: 0x8, addend: 0x0, symName: '__ZN5alloc3vec16Vec$LT$T$C$A$GT$7reserve17h6cb9c52d5ac7c07bE', symObjAddr: 0x1430, symBinAddr: 0x466CC, symSize: 0xC8 }
  - { offset: 0x13D4F5, size: 0x8, addend: 0x0, symName: '__ZN5alloc3vec16Vec$LT$T$C$A$GT$7set_len17hf2f6725995e2bba2E', symObjAddr: 0x14F8, symBinAddr: 0x46794, symSize: 0x80 }
  - { offset: 0x13D69E, size: 0x8, addend: 0x0, symName: '__ZN5alloc3vec16Vec$LT$T$C$A$GT$8as_slice17h14798e3fde996ee4E', symObjAddr: 0x1624, symBinAddr: 0x468C0, symSize: 0x6C }
  - { offset: 0x13D7EF, size: 0x8, addend: 0x0, symName: '__ZN5alloc3vec16Vec$LT$T$C$A$GT$8as_slice17hd21557eaa39a222eE', symObjAddr: 0x1690, symBinAddr: 0x4692C, symSize: 0x6C }
  - { offset: 0x13D967, size: 0x8, addend: 0x0, symName: '__ZN5alloc3vec16Vec$LT$T$C$A$GT$8as_slice17he25a626c6f8b5102E', symObjAddr: 0x16FC, symBinAddr: 0x46998, symSize: 0x6C }
  - { offset: 0x13DA46, size: 0x8, addend: 0x0, symName: '__ZN5alloc3vec16Vec$LT$T$C$A$GT$8is_empty17he6ac2c3032fb2a4fE', symObjAddr: 0x1768, symBinAddr: 0x46A04, symSize: 0x20 }
  - { offset: 0x13DB85, size: 0x8, addend: 0x0, symName: '__ZN5alloc3vec16Vec$LT$T$C$A$GT$8push_mut17h48f7fddc7a33af02E', symObjAddr: 0x1788, symBinAddr: 0x46A24, symSize: 0x11C }
  - { offset: 0x13DE26, size: 0x8, addend: 0x0, symName: '__ZN5alloc3vec16Vec$LT$T$C$A$GT$8push_mut17haca7c5fe677463d9E', symObjAddr: 0x18A4, symBinAddr: 0x46B40, symSize: 0x11C }
  - { offset: 0x13E0EE, size: 0x8, addend: 0x0, symName: '__ZN5alloc3vec16Vec$LT$T$C$A$GT$8push_mut17hdc9c888c3b905619E', symObjAddr: 0x19C0, symBinAddr: 0x46C5C, symSize: 0x11C }
  - { offset: 0x13EFE7, size: 0x8, addend: 0x0, symName: '__ZN185_$LT$core..ops..control_flow..ControlFlow$LT$B$C$C$GT$$u20$as$u20$core..ops..try_trait..FromResidual$LT$core..ops..control_flow..ControlFlow$LT$B$C$core..convert..Infallible$GT$$GT$$GT$13from_residual17h25c0d3fc6e734cefE', symObjAddr: 0x0, symBinAddr: 0x4778C, symSize: 0x48 }
  - { offset: 0x13F3CC, size: 0x8, addend: 0x0, symName: '__ZN4core3num21_$LT$impl$u20$u64$GT$11checked_add17h172f36ba752cfb3eE', symObjAddr: 0x280, symBinAddr: 0x479A0, symSize: 0x7C }
  - { offset: 0x13F451, size: 0x8, addend: 0x0, symName: '__ZN4core3num21_$LT$impl$u20$u64$GT$11checked_mul17h9cb9ec08fe75dad7E', symObjAddr: 0x2FC, symBinAddr: 0x47A1C, symSize: 0x74 }
  - { offset: 0x13F5FC, size: 0x8, addend: 0x0, symName: '__ZN4core3num21_$LT$impl$u20$u64$GT$16from_ascii_radix17h1233fa3a9c5a48afE', symObjAddr: 0x370, symBinAddr: 0x47A90, symSize: 0x57C }
  - { offset: 0x13F875, size: 0x8, addend: 0x0, symName: '__ZN4core3num23_$LT$impl$u20$usize$GT$11checked_add17h4963bb07cdf5369eE', symObjAddr: 0x8EC, symBinAddr: 0x4800C, symSize: 0x7C }
  - { offset: 0x13F8FF, size: 0x8, addend: 0x0, symName: '__ZN4core3num23_$LT$impl$u20$usize$GT$13unchecked_add18precondition_check17ha457dd784aa75f17E', symObjAddr: 0x968, symBinAddr: 0x48088, symSize: 0xB0 }
  - { offset: 0x13FA8A, size: 0x8, addend: 0x0, symName: '__ZN4core3num23_$LT$impl$u20$usize$GT$16from_ascii_radix17hbe50d17392a9b7bdE', symObjAddr: 0xA18, symBinAddr: 0x48138, symSize: 0x57C }
  - { offset: 0x13FD03, size: 0x8, addend: 0x0, symName: '__ZN4core3num60_$LT$impl$u20$core..str..traits..FromStr$u20$for$u20$u64$GT$8from_str17h89bfef58f7d3d1f4E', symObjAddr: 0xF94, symBinAddr: 0x486B4, symSize: 0x30 }
  - { offset: 0x13FD5D, size: 0x8, addend: 0x0, symName: '__ZN4core3num62_$LT$impl$u20$core..str..traits..FromStr$u20$for$u20$usize$GT$8from_str17h929b8149172d166eE', symObjAddr: 0xFC4, symBinAddr: 0x486E4, symSize: 0x30 }
  - { offset: 0x1400AF, size: 0x8, addend: 0x0, symName: '__ZN4core3ptr8non_null16NonNull$LT$T$GT$13new_unchecked18precondition_check17h32af53538734aee4E', symObjAddr: 0x1024, symBinAddr: 0x48744, symSize: 0xA4 }
  - { offset: 0x140E25, size: 0x8, addend: 0x0, symName: '__ZN4core3ptr9const_ptr33_$LT$impl$u20$$BP$const$u20$T$GT$20offset_from_unsigned18precondition_check17hf94e17e4b153fa4fE', symObjAddr: 0x13B0, symBinAddr: 0x48AD0, symSize: 0xAC }
  - { offset: 0x140EA0, size: 0x8, addend: 0x0, symName: '__ZN185_$LT$core..ops..control_flow..ControlFlow$LT$B$C$C$GT$$u20$as$u20$core..ops..try_trait..FromResidual$LT$core..ops..control_flow..ControlFlow$LT$B$C$core..convert..Infallible$GT$$GT$$GT$13from_residual17h25c0d3fc6e734cefE', symObjAddr: 0x0, symBinAddr: 0x4778C, symSize: 0x48 }
  - { offset: 0x140EDF, size: 0x8, addend: 0x0, symName: '__ZN185_$LT$core..ops..control_flow..ControlFlow$LT$B$C$C$GT$$u20$as$u20$core..ops..try_trait..FromResidual$LT$core..ops..control_flow..ControlFlow$LT$B$C$core..convert..Infallible$GT$$GT$$GT$13from_residual17h43fb8385f29dc943E', symObjAddr: 0x48, symBinAddr: 0x477D4, symSize: 0x48 }
  - { offset: 0x140F1E, size: 0x8, addend: 0x0, symName: '__ZN185_$LT$core..ops..control_flow..ControlFlow$LT$B$C$C$GT$$u20$as$u20$core..ops..try_trait..FromResidual$LT$core..ops..control_flow..ControlFlow$LT$B$C$core..convert..Infallible$GT$$GT$$GT$13from_residual17hee6c356d2fb56541E', symObjAddr: 0xA4, symBinAddr: 0x4781C, symSize: 0x1C }
  - { offset: 0x140F67, size: 0x8, addend: 0x0, symName: __ZN4core3ops12control_flow11ControlFlow5Break17ha9026ecd2c84826dE, symObjAddr: 0xFF4, symBinAddr: 0x48714, symSize: 0x30 }
  - { offset: 0x141028, size: 0x8, addend: 0x0, symName: '__ZN95_$LT$core..ops..control_flow..ControlFlow$LT$B$C$C$GT$$u20$as$u20$core..ops..try_trait..Try$GT$11from_output17h14aa70bf40abaf00E', symObjAddr: 0x23D8, symBinAddr: 0x49A30, symSize: 0x18 }
  - { offset: 0x141066, size: 0x8, addend: 0x0, symName: '__ZN95_$LT$core..ops..control_flow..ControlFlow$LT$B$C$C$GT$$u20$as$u20$core..ops..try_trait..Try$GT$11from_output17h23da74b1a3069c5cE', symObjAddr: 0x23F0, symBinAddr: 0x49A48, symSize: 0x10 }
  - { offset: 0x1410A4, size: 0x8, addend: 0x0, symName: '__ZN95_$LT$core..ops..control_flow..ControlFlow$LT$B$C$C$GT$$u20$as$u20$core..ops..try_trait..Try$GT$11from_output17hab12f7693ee4dba5E', symObjAddr: 0x2400, symBinAddr: 0x49A58, symSize: 0x18 }
  - { offset: 0x1410E2, size: 0x8, addend: 0x0, symName: '__ZN95_$LT$core..ops..control_flow..ControlFlow$LT$B$C$C$GT$$u20$as$u20$core..ops..try_trait..Try$GT$6branch17h390c50cb6a6a53b6E', symObjAddr: 0x2418, symBinAddr: 0x49A70, symSize: 0x48 }
  - { offset: 0x14115A, size: 0x8, addend: 0x0, symName: '__ZN95_$LT$core..ops..control_flow..ControlFlow$LT$B$C$C$GT$$u20$as$u20$core..ops..try_trait..Try$GT$6branch17h8cfdb568c1e58d8aE', symObjAddr: 0x24A0, symBinAddr: 0x49AB8, symSize: 0x94 }
  - { offset: 0x1411D3, size: 0x8, addend: 0x0, symName: '__ZN95_$LT$core..ops..control_flow..ControlFlow$LT$B$C$C$GT$$u20$as$u20$core..ops..try_trait..Try$GT$6branch17hb19b22b067ec47a3E', symObjAddr: 0x2534, symBinAddr: 0x49B4C, symSize: 0x94 }
  - { offset: 0x1416CA, size: 0x8, addend: 0x0, symName: '__ZN42_$LT$$RF$T$u20$as$u20$core..fmt..Debug$GT$3fmt17h31e5fcaa37be92d3E', symObjAddr: 0xC0, symBinAddr: 0x47838, symSize: 0x30 }
  - { offset: 0x141710, size: 0x8, addend: 0x0, symName: '__ZN42_$LT$$RF$T$u20$as$u20$core..fmt..Debug$GT$3fmt17h99f2e09bb008895fE', symObjAddr: 0xF0, symBinAddr: 0x47868, symSize: 0x30 }
  - { offset: 0x143248, size: 0x8, addend: 0x0, symName: __ZN6base646engine6Engine6decode17hb0b4d38d08c9621dE, symObjAddr: 0x1E94, symBinAddr: 0x495B4, symSize: 0x74 }
  - { offset: 0x143294, size: 0x8, addend: 0x0, symName: __ZN6base646engine6Engine6encode17ha3ae025caf626934E, symObjAddr: 0x1F08, symBinAddr: 0x49628, symSize: 0x74 }
  - { offset: 0x143BE4, size: 0x8, addend: 0x0, symName: '__ZN5alloc5boxed16Box$LT$T$C$A$GT$13new_uninit_in17h343398048fe870a6E', symObjAddr: 0x145C, symBinAddr: 0x48B7C, symSize: 0x98 }
  - { offset: 0x143CDC, size: 0x8, addend: 0x0, symName: '__ZN5alloc5boxed16Box$LT$T$C$A$GT$13new_uninit_in17h47315a2345dbf9efE', symObjAddr: 0x14F4, symBinAddr: 0x48C14, symSize: 0x98 }
  - { offset: 0x143DD4, size: 0x8, addend: 0x0, symName: '__ZN5alloc5boxed16Box$LT$T$C$A$GT$13new_uninit_in17h5654c5f4d135d962E', symObjAddr: 0x158C, symBinAddr: 0x48CAC, symSize: 0x98 }
  - { offset: 0x143ECC, size: 0x8, addend: 0x0, symName: '__ZN5alloc5boxed16Box$LT$T$C$A$GT$13new_uninit_in17h8c7af25bd314054bE', symObjAddr: 0x1624, symBinAddr: 0x48D44, symSize: 0x98 }
  - { offset: 0x143FC4, size: 0x8, addend: 0x0, symName: '__ZN5alloc5boxed16Box$LT$T$C$A$GT$13new_uninit_in17hcf9edf9a81edbaefE', symObjAddr: 0x16BC, symBinAddr: 0x48DDC, symSize: 0x98 }
  - { offset: 0x1440BC, size: 0x8, addend: 0x0, symName: '__ZN5alloc5boxed16Box$LT$T$C$A$GT$17try_new_uninit_in17h19107f50819b6308E', symObjAddr: 0x1754, symBinAddr: 0x48E74, symSize: 0x13C }
  - { offset: 0x1442F8, size: 0x8, addend: 0x0, symName: '__ZN5alloc5boxed16Box$LT$T$C$A$GT$17try_new_uninit_in17h1f8574d5e9461d3fE', symObjAddr: 0x1890, symBinAddr: 0x48FB0, symSize: 0x13C }
  - { offset: 0x144534, size: 0x8, addend: 0x0, symName: '__ZN5alloc5boxed16Box$LT$T$C$A$GT$17try_new_uninit_in17h5022f472bbea0cb2E', symObjAddr: 0x19CC, symBinAddr: 0x490EC, symSize: 0x13C }
  - { offset: 0x144770, size: 0x8, addend: 0x0, symName: '__ZN5alloc5boxed16Box$LT$T$C$A$GT$17try_new_uninit_in17h5d3956a1eac9c6a5E', symObjAddr: 0x1B08, symBinAddr: 0x49228, symSize: 0x13C }
  - { offset: 0x1449AC, size: 0x8, addend: 0x0, symName: '__ZN5alloc5boxed16Box$LT$T$C$A$GT$17try_new_uninit_in17hdd7349af68635f6cE', symObjAddr: 0x1C44, symBinAddr: 0x49364, symSize: 0x13C }
  - { offset: 0x144D8D, size: 0x8, addend: 0x0, symName: '__ZN67_$LT$alloc..boxed..Box$LT$T$C$A$GT$$u20$as$u20$core..fmt..Debug$GT$3fmt17h1043111f3aaf69e6E', symObjAddr: 0x1D80, symBinAddr: 0x494A0, symSize: 0x30 }
  - { offset: 0x144DDC, size: 0x8, addend: 0x0, symName: '__ZN67_$LT$alloc..boxed..Box$LT$T$C$A$GT$$u20$as$u20$core..fmt..Debug$GT$3fmt17h33094bf2d461b101E', symObjAddr: 0x1DB0, symBinAddr: 0x494D0, symSize: 0x30 }
  - { offset: 0x144E84, size: 0x8, addend: 0x0, symName: '__ZN69_$LT$alloc..boxed..Box$LT$T$C$A$GT$$u20$as$u20$core..clone..Clone$GT$5clone17h27a12b4a09321755E', symObjAddr: 0x1DE0, symBinAddr: 0x49500, symSize: 0xB4 }
  - { offset: 0x145001, size: 0x8, addend: 0x0, symName: '__ZN72_$LT$alloc..boxed..Box$LT$T$C$A$GT$$u20$as$u20$core..ops..drop..Drop$GT$4drop17h412a2fcf746779f6E', symObjAddr: 0x1F7C, symBinAddr: 0x4969C, symSize: 0xB4 }
  - { offset: 0x14513C, size: 0x8, addend: 0x0, symName: '__ZN72_$LT$alloc..boxed..Box$LT$T$C$A$GT$$u20$as$u20$core..ops..drop..Drop$GT$4drop17h45ed7cc43900a21aE', symObjAddr: 0x2030, symBinAddr: 0x49750, symSize: 0xB8 }
  - { offset: 0x145277, size: 0x8, addend: 0x0, symName: '__ZN72_$LT$alloc..boxed..Box$LT$T$C$A$GT$$u20$as$u20$core..ops..drop..Drop$GT$4drop17hafd71fb85ae2f82fE', symObjAddr: 0x20E8, symBinAddr: 0x49808, symSize: 0xB8 }
  - { offset: 0x1453B2, size: 0x8, addend: 0x0, symName: '__ZN72_$LT$alloc..boxed..Box$LT$T$C$A$GT$$u20$as$u20$core..ops..drop..Drop$GT$4drop17hbcd248fc4323fc39E', symObjAddr: 0x2258, symBinAddr: 0x498C0, symSize: 0xB8 }
  - { offset: 0x1454ED, size: 0x8, addend: 0x0, symName: '__ZN72_$LT$alloc..boxed..Box$LT$T$C$A$GT$$u20$as$u20$core..ops..drop..Drop$GT$4drop17heb0cd4dd9186b00eE', symObjAddr: 0x2310, symBinAddr: 0x49978, symSize: 0xB8 }
  - { offset: 0x145645, size: 0x8, addend: 0x0, symName: __ZN4core3fmt2rt8Argument11new_display17h0d8b9ed7bc498f27E, symObjAddr: 0x120, symBinAddr: 0x47898, symSize: 0x2C }
  - { offset: 0x145700, size: 0x8, addend: 0x0, symName: __ZN4core3fmt2rt8Argument11new_display17h468a0e9ba9a4cf22E, symObjAddr: 0x14C, symBinAddr: 0x478C4, symSize: 0x2C }
  - { offset: 0x145745, size: 0x8, addend: 0x0, symName: __ZN4core3fmt2rt8Argument11new_display17ha6941f32cd09ecb0E, symObjAddr: 0x178, symBinAddr: 0x478F0, symSize: 0x2C }
  - { offset: 0x14579B, size: 0x8, addend: 0x0, symName: __ZN4core3fmt2rt8Argument11new_display17hf53afb0b38ee699aE, symObjAddr: 0x1A4, symBinAddr: 0x4791C, symSize: 0x2C }
  - { offset: 0x1457FA, size: 0x8, addend: 0x0, symName: __ZN4core3fmt2rt8Argument9new_debug17h5ca9a4ddbc295e25E, symObjAddr: 0x1FC, symBinAddr: 0x47948, symSize: 0x2C }
  - { offset: 0x145B62, size: 0x8, addend: 0x0, symName: __ZN4core3fmt2rt8Argument9new_debug17habe2958646b70fefE, symObjAddr: 0x228, symBinAddr: 0x47974, symSize: 0x2C }
  - { offset: 0x145D0F, size: 0x8, addend: 0x0, symName: '__ZN4core3ptr8non_null16NonNull$LT$T$GT$20offset_from_unsigned17h14bf2ce34e9457e5E', symObjAddr: 0x10C8, symBinAddr: 0x487E8, symSize: 0x7C }
  - { offset: 0x145E19, size: 0x8, addend: 0x0, symName: '__ZN4core3ptr8non_null16NonNull$LT$T$GT$20offset_from_unsigned17h193394788e037279E', symObjAddr: 0x1144, symBinAddr: 0x48864, symSize: 0x7C }
  - { offset: 0x145F23, size: 0x8, addend: 0x0, symName: '__ZN4core3ptr8non_null16NonNull$LT$T$GT$20offset_from_unsigned17h1be1581d6877e199E', symObjAddr: 0x11C0, symBinAddr: 0x488E0, symSize: 0x7C }
  - { offset: 0x14602D, size: 0x8, addend: 0x0, symName: '__ZN4core3ptr8non_null16NonNull$LT$T$GT$20offset_from_unsigned17h54e743c5691d7d21E', symObjAddr: 0x123C, symBinAddr: 0x4895C, symSize: 0x7C }
  - { offset: 0x146137, size: 0x8, addend: 0x0, symName: '__ZN4core3ptr8non_null16NonNull$LT$T$GT$20offset_from_unsigned17ha135bbf167534096E', symObjAddr: 0x12B8, symBinAddr: 0x489D8, symSize: 0x7C }
  - { offset: 0x146241, size: 0x8, addend: 0x0, symName: '__ZN4core3ptr8non_null16NonNull$LT$T$GT$20offset_from_unsigned17he61233196ca817cdE', symObjAddr: 0x1334, symBinAddr: 0x48A54, symSize: 0x7C }
  - { offset: 0x146E42, size: 0x8, addend: 0x0, symName: '__ZN106_$LT$core..iter..adapters..GenericShunt$LT$I$C$R$GT$$u20$as$u20$core..iter..traits..iterator..Iterator$GT$4next17h233503dc3a0625aeE', symObjAddr: 0x0, symBinAddr: 0x49BE0, symSize: 0xB0 }
  - { offset: 0x146E9E, size: 0x8, addend: 0x0, symName: '__ZN45_$LT$T$u20$as$u20$alloc..string..ToString$GT$9to_string17h70788dfb33880cedE', symObjAddr: 0xD74, symBinAddr: 0x4A954, symSize: 0x24 }
  - { offset: 0x146EDB, size: 0x8, addend: 0x0, symName: '__ZN49_$LT$T$u20$as$u20$alloc..string..SpecToString$GT$14spec_to_string17hb68b190acbf8bd52E', symObjAddr: 0xD98, symBinAddr: 0x4A978, symSize: 0xF4 }
  - { offset: 0x147A8C, size: 0x8, addend: 0x0, symName: '__ZN160_$LT$$LT$T$u20$as$u20$alloc..slice..$LT$impl$u20$$u5b$T$u5d$$GT$..to_vec_in..ConvertVec$GT$..to_vec..DropGuard$LT$T$C$A$GT$$u20$as$u20$core..ops..drop..Drop$GT$4drop17h6c716414f0675555E', symObjAddr: 0xD44, symBinAddr: 0x4A924, symSize: 0x30 }
  - { offset: 0x147B2A, size: 0x8, addend: 0x0, symName: '__ZN5alloc5slice29_$LT$impl$u20$$u5b$T$u5d$$GT$7sort_by28_$u7b$$u7b$closure$u7d$$u7d$17h38dc42e8bf63441fE', symObjAddr: 0x1E88, symBinAddr: 0x4B608, symSize: 0x5C }
  - { offset: 0x147BA4, size: 0x8, addend: 0x0, symName: '__ZN5alloc5slice29_$LT$impl$u20$$u5b$T$u5d$$GT$7sort_by28_$u7b$$u7b$closure$u7d$$u7d$17h97171ec42cc4c50dE', symObjAddr: 0x1EE4, symBinAddr: 0x4B664, symSize: 0x5C }
  - { offset: 0x147C1F, size: 0x8, addend: 0x0, symName: '__ZN5alloc5slice29_$LT$impl$u20$$u5b$T$u5d$$GT$7sort_by17h348dbf42e4d89fe6E', symObjAddr: 0x1DF8, symBinAddr: 0x4B578, symSize: 0x48 }
  - { offset: 0x147C67, size: 0x8, addend: 0x0, symName: '__ZN5alloc5slice29_$LT$impl$u20$$u5b$T$u5d$$GT$7sort_by17h4f0e68e3286db225E', symObjAddr: 0x1E40, symBinAddr: 0x4B5C0, symSize: 0x48 }
  - { offset: 0x147CB0, size: 0x8, addend: 0x0, symName: __ZN5alloc5slice11stable_sort17h9291cfc112456c37E, symObjAddr: 0x1C68, symBinAddr: 0x4B3E8, symSize: 0xC8 }
  - { offset: 0x147D65, size: 0x8, addend: 0x0, symName: __ZN5alloc5slice11stable_sort17hc6bc4fe507654c11E, symObjAddr: 0x1D30, symBinAddr: 0x4B4B0, symSize: 0xC8 }
  - { offset: 0x147E20, size: 0x8, addend: 0x0, symName: __ZN5alloc3fmt6format17h0a0fd964ccbf74f2E, symObjAddr: 0x1B94, symBinAddr: 0x4B314, symSize: 0xD4 }
  - { offset: 0x1482BD, size: 0x8, addend: 0x0, symName: '__ZN70_$LT$core..num..error..TryFromIntError$u20$as$u20$core..fmt..Debug$GT$3fmt17h2b8b81185b0d4a5dE', symObjAddr: 0x4564, symBinAddr: 0x4D98C, symSize: 0x54 }
  - { offset: 0x149255, size: 0x8, addend: 0x0, symName: __ZN4core4iter6traits8iterator8Iterator7collect17h1fc26dac4b0c9e83E, symObjAddr: 0xE8C, symBinAddr: 0x4AA6C, symSize: 0x6C }
  - { offset: 0x1492EB, size: 0x8, addend: 0x0, symName: __ZN4core4iter6traits8iterator8Iterator7collect17h44a3f6a3dc00a841E, symObjAddr: 0xEF8, symBinAddr: 0x4AAD8, symSize: 0x74 }
  - { offset: 0x149381, size: 0x8, addend: 0x0, symName: __ZN4core4iter6traits8iterator8Iterator7collect17h78f638621147c5efE, symObjAddr: 0xF6C, symBinAddr: 0x4AB4C, symSize: 0x7C }
  - { offset: 0x149442, size: 0x8, addend: 0x0, symName: '__ZN63_$LT$I$u20$as$u20$core..iter..traits..collect..IntoIterator$GT$9into_iter17h081bee994a261841E', symObjAddr: 0x1F40, symBinAddr: 0x4B6C0, symSize: 0x30 }
  - { offset: 0x14947A, size: 0x8, addend: 0x0, symName: '__ZN63_$LT$I$u20$as$u20$core..iter..traits..collect..IntoIterator$GT$9into_iter17hd42fc4dde16b4094E', symObjAddr: 0x1F70, symBinAddr: 0x4B6F0, symSize: 0x30 }
  - { offset: 0x14955E, size: 0x8, addend: 0x0, symName: '__ZN106_$LT$core..iter..adapters..GenericShunt$LT$I$C$R$GT$$u20$as$u20$core..iter..traits..iterator..Iterator$GT$4next17h233503dc3a0625aeE', symObjAddr: 0x0, symBinAddr: 0x49BE0, symSize: 0xB0 }
  - { offset: 0x1495F1, size: 0x8, addend: 0x0, symName: '__ZN106_$LT$core..iter..adapters..GenericShunt$LT$I$C$R$GT$$u20$as$u20$core..iter..traits..iterator..Iterator$GT$8try_fold17h27734758724dbe56E', symObjAddr: 0xB0, symBinAddr: 0x49C90, symSize: 0xC0 }
  - { offset: 0x1496BD, size: 0x8, addend: 0x0, symName: '__ZN106_$LT$core..iter..adapters..GenericShunt$LT$I$C$R$GT$$u20$as$u20$core..iter..traits..iterator..Iterator$GT$8try_fold28_$u7b$$u7b$closure$u7d$$u7d$17h05fe5a45ba5893c1E', symObjAddr: 0x170, symBinAddr: 0x49D50, symSize: 0x20C }
  - { offset: 0x1497B9, size: 0x8, addend: 0x0, symName: '__ZN106_$LT$core..iter..adapters..GenericShunt$LT$I$C$R$GT$$u20$as$u20$core..iter..traits..iterator..Iterator$GT$9size_hint17h54ce4fefc92e8602E', symObjAddr: 0x37C, symBinAddr: 0x49F5C, symSize: 0xAC }
  - { offset: 0x14983C, size: 0x8, addend: 0x0, symName: '__ZN114_$LT$core..iter..adapters..flatten..FlatMap$LT$I$C$U$C$F$GT$$u20$as$u20$core..iter..traits..iterator..Iterator$GT$4next17h39bdb31ab7a41780E', symObjAddr: 0x428, symBinAddr: 0x4A008, symSize: 0x24 }
  - { offset: 0x149883, size: 0x8, addend: 0x0, symName: '__ZN114_$LT$core..iter..adapters..flatten..FlatMap$LT$I$C$U$C$F$GT$$u20$as$u20$core..iter..traits..iterator..Iterator$GT$9size_hint17h1ae10c3bdc94678fE', symObjAddr: 0x44C, symBinAddr: 0x4A02C, symSize: 0x24 }
  - { offset: 0x1498D0, size: 0x8, addend: 0x0, symName: '__ZN116_$LT$core..iter..adapters..flatten..FlattenCompat$LT$I$C$U$GT$$u20$as$u20$core..iter..traits..iterator..Iterator$GT$4next17h522a7ebf8c30245cE', symObjAddr: 0x470, symBinAddr: 0x4A050, symSize: 0x158 }
  - { offset: 0x149964, size: 0x8, addend: 0x0, symName: '__ZN116_$LT$core..iter..adapters..flatten..FlattenCompat$LT$I$C$U$GT$$u20$as$u20$core..iter..traits..iterator..Iterator$GT$9size_hint17h926b2a8be0f6740fE', symObjAddr: 0x5C8, symBinAddr: 0x4A1A8, symSize: 0x77C }
  - { offset: 0x14A0C0, size: 0x8, addend: 0x0, symName: __ZN4core4iter8adapters7flatten17and_then_or_clear17h39f5958cf27d4503E, symObjAddr: 0x1194, symBinAddr: 0x4AD74, symSize: 0x130 }
  - { offset: 0x14A381, size: 0x8, addend: 0x0, symName: __ZN4core4iter8adapters11try_process17h794fa50869bba62cE, symObjAddr: 0xFE8, symBinAddr: 0x4ABC8, symSize: 0x1AC }
  - { offset: 0x14AFC5, size: 0x8, addend: 0x0, symName: '__ZN4core5slice29_$LT$impl$u20$$u5b$T$u5d$$GT$22split_at_mut_unchecked17ha041bce317a2986eE', symObjAddr: 0x12C4, symBinAddr: 0x4AEA4, symSize: 0x108 }
  - { offset: 0x14B165, size: 0x8, addend: 0x0, symName: '__ZN4core5slice29_$LT$impl$u20$$u5b$T$u5d$$GT$7reverse17h7be0b9a49964342bE', symObjAddr: 0x13CC, symBinAddr: 0x4AFAC, symSize: 0x118 }
  - { offset: 0x14B408, size: 0x8, addend: 0x0, symName: '__ZN68_$LT$T$u20$as$u20$core..slice..sort..stable..quicksort..IsFreeze$GT$9is_freeze17h2cd60caeb1ee37daE', symObjAddr: 0x1FA0, symBinAddr: 0x4B720, symSize: 0xC }
  - { offset: 0x14B7BA, size: 0x8, addend: 0x0, symName: '__ZN6zip32118TransactionRequest8from_uri28_$u7b$$u7b$closure$u7d$$u7d$17h0344e6874d655a1bE', symObjAddr: 0x3794, symBinAddr: 0x4CCE4, symSize: 0x6C }
  - { offset: 0x14B81E, size: 0x8, addend: 0x0, symName: '__ZN6zip32118TransactionRequest8from_uri28_$u7b$$u7b$closure$u7d$$u7d$17h8a2af3a83b8225c6E', symObjAddr: 0x3800, symBinAddr: 0x4CD50, symSize: 0x80 }
  - { offset: 0x14B894, size: 0x8, addend: 0x0, symName: '__ZN6zip32118TransactionRequest8from_uri28_$u7b$$u7b$closure$u7d$$u7d$17had75dab657f38bd2E', symObjAddr: 0x3880, symBinAddr: 0x4CDD0, symSize: 0x80 }
  - { offset: 0x14B90A, size: 0x8, addend: 0x0, symName: '__ZN6zip32118TransactionRequest8from_uri28_$u7b$$u7b$closure$u7d$$u7d$17hccd50980c2577bceE', symObjAddr: 0x3900, symBinAddr: 0x4CE50, symSize: 0x20 }
  - { offset: 0x14B948, size: 0x8, addend: 0x0, symName: '__ZN6zip32118TransactionRequest8from_uri28_$u7b$$u7b$closure$u7d$$u7d$28_$u7b$$u7b$closure$u7d$$u7d$17hdb309065f3c9b6d5E', symObjAddr: 0x3920, symBinAddr: 0x4CE70, symSize: 0x38 }
  - { offset: 0x14B9AB, size: 0x8, addend: 0x0, symName: __ZN6zip32118TransactionRequest6to_uri14payment_params17hda91c103e7414ef6E, symObjAddr: 0x25F4, symBinAddr: 0x4BB44, symSize: 0x278 }
  - { offset: 0x14B9EE, size: 0x8, addend: 0x0, symName: '__ZN6zip32118TransactionRequest6to_uri14payment_params28_$u7b$$u7b$closure$u7d$$u7d$17h20db48ca0b5106c1E', symObjAddr: 0x286C, symBinAddr: 0x4BDBC, symSize: 0x80 }
  - { offset: 0x14BA57, size: 0x8, addend: 0x0, symName: '__ZN6zip32118TransactionRequest6to_uri14payment_params28_$u7b$$u7b$closure$u7d$$u7d$17h398b88a9c91a8854E', symObjAddr: 0x28EC, symBinAddr: 0x4BE3C, symSize: 0x64 }
  - { offset: 0x14BA96, size: 0x8, addend: 0x0, symName: '__ZN6zip32118TransactionRequest6to_uri14payment_params28_$u7b$$u7b$closure$u7d$$u7d$17ha9fe660444cf019aE', symObjAddr: 0x2950, symBinAddr: 0x4BEA0, symSize: 0x3C }
  - { offset: 0x14BAD5, size: 0x8, addend: 0x0, symName: '__ZN6zip32118TransactionRequest6to_uri14payment_params28_$u7b$$u7b$closure$u7d$$u7d$17hfda1809bf4e1a96bE', symObjAddr: 0x298C, symBinAddr: 0x4BEDC, symSize: 0x64 }
  - { offset: 0x14BB15, size: 0x8, addend: 0x0, symName: '__ZN6zip32118TransactionRequest6to_uri28_$u7b$$u7b$closure$u7d$$u7d$17h26bf3d7938b6edbfE', symObjAddr: 0x2E20, symBinAddr: 0x4C370, symSize: 0x15C }
  - { offset: 0x14BDFB, size: 0x8, addend: 0x0, symName: '__ZN56_$LT$zip321..Zip321Error$u20$as$u20$core..fmt..Debug$GT$3fmt17h2c8067ddfef770d2E', symObjAddr: 0x14E4, symBinAddr: 0x4B0C4, symSize: 0x250 }
  - { offset: 0x14BF1A, size: 0x8, addend: 0x0, symName: __ZN6zip32111Zip321Error13InvalidBase6417h8f48751b3b2faf78E, symObjAddr: 0x1FAC, symBinAddr: 0x4B72C, symSize: 0x1C }
  - { offset: 0x14BF48, size: 0x8, addend: 0x0, symName: __ZN6zip32111Zip321Error14MemoBytesError17hf556f79f2b87a803E, symObjAddr: 0x1FC8, symBinAddr: 0x4B748, symSize: 0x1C }
  - { offset: 0x14BF72, size: 0x8, addend: 0x0, symName: __ZN6zip32114memo_to_base6417h18abcf913e12bec8E, symObjAddr: 0x1FE4, symBinAddr: 0x4B764, symSize: 0x44 }
  - { offset: 0x14BF9E, size: 0x8, addend: 0x0, symName: __ZN6zip32116memo_from_base6417h8281b5d0e7cf5e18E, symObjAddr: 0x2028, symBinAddr: 0x4B7A8, symSize: 0x64 }
  - { offset: 0x14BFCF, size: 0x8, addend: 0x0, symName: '__ZN6zip32116memo_from_base6428_$u7b$$u7b$closure$u7d$$u7d$17hf497ae5d7f9efd99E', symObjAddr: 0x208C, symBinAddr: 0x4B80C, symSize: 0x84 }
  - { offset: 0x14C0BA, size: 0x8, addend: 0x0, symName: __ZN6zip3216render10addr_param17h195db6a3e36b6dd9E, symObjAddr: 0x396C, symBinAddr: 0x4CEBC, symSize: 0x12C }
  - { offset: 0x14C14B, size: 0x8, addend: 0x0, symName: __ZN6zip3216render10amount_str17h11c3843b8d1191b1E, symObjAddr: 0x3A98, symBinAddr: 0x4CFE8, symSize: 0x1CC }
  - { offset: 0x14C241, size: 0x8, addend: 0x0, symName: __ZN6zip3216render10memo_param17h46007062a7a81c42E, symObjAddr: 0x3C64, symBinAddr: 0x4D1B4, symSize: 0x12C }
  - { offset: 0x14C2D2, size: 0x8, addend: 0x0, symName: __ZN6zip3216render11param_index17hafaf070871b38c38E, symObjAddr: 0x3D90, symBinAddr: 0x4D2E0, symSize: 0xBC }
  - { offset: 0x14C388, size: 0x8, addend: 0x0, symName: __ZN6zip3216render12amount_param17hb00b48a006dd0a49E, symObjAddr: 0x3E4C, symBinAddr: 0x4D39C, symSize: 0x12C }
  - { offset: 0x14C419, size: 0x8, addend: 0x0, symName: __ZN6zip3216render9str_param17h475c6420adbd0d35E, symObjAddr: 0x3F78, symBinAddr: 0x4D4C8, symSize: 0x144 }
  - { offset: 0x14D026, size: 0x8, addend: 0x0, symName: __ZN6zip32118TransactionRequest3new17h7f62ce8b8f2b8a4aE, symObjAddr: 0x2254, symBinAddr: 0x4B890, symSize: 0x2B4 }
  - { offset: 0x14D129, size: 0x8, addend: 0x0, symName: __ZN6zip32118TransactionRequest6to_uri17hbc9c3469ac516257E, symObjAddr: 0x29F0, symBinAddr: 0x4BF40, symSize: 0x430 }
  - { offset: 0x14D26A, size: 0x8, addend: 0x0, symName: __ZN6zip32118TransactionRequest8from_uri17h4ad1d5376cb9079dE, symObjAddr: 0x2F7C, symBinAddr: 0x4C4CC, symSize: 0x818 }
  - { offset: 0x14D3A0, size: 0x8, addend: 0x0, symName: __ZN6zip32118TransactionRequest8payments17hdf5ebb0dc034c667E, symObjAddr: 0x3958, symBinAddr: 0x4CEA8, symSize: 0x14 }
  - { offset: 0x14D3F7, size: 0x8, addend: 0x0, symName: __ZN6zip3217Payment17recipient_address17hf68e73480fb97cd8E, symObjAddr: 0x41E4, symBinAddr: 0x4D60C, symSize: 0x14 }
  - { offset: 0x14D419, size: 0x8, addend: 0x0, symName: __ZN6zip3217Payment3new17h5cc72474c4ec1187E, symObjAddr: 0x41F8, symBinAddr: 0x4D620, symSize: 0x2E8 }
  - { offset: 0x14D493, size: 0x8, addend: 0x0, symName: __ZN6zip3217Payment4memo17hc3c389ea9410362bE, symObjAddr: 0x44E0, symBinAddr: 0x4D908, symSize: 0x24 }
  - { offset: 0x14D4B5, size: 0x8, addend: 0x0, symName: __ZN6zip3217Payment5label17h1e57384d69266633E, symObjAddr: 0x4504, symBinAddr: 0x4D92C, symSize: 0x24 }
  - { offset: 0x14D4D7, size: 0x8, addend: 0x0, symName: __ZN6zip3217Payment6amount17h23ac36d3457a5dbfE, symObjAddr: 0x4528, symBinAddr: 0x4D950, symSize: 0x18 }
  - { offset: 0x14D4F9, size: 0x8, addend: 0x0, symName: __ZN6zip3217Payment7message17h7d6f0f9cbdb2a701E, symObjAddr: 0x4540, symBinAddr: 0x4D968, symSize: 0x24 }
  - { offset: 0x14D7D1, size: 0x8, addend: 0x0, symName: '__ZN107_$LT$core..iter..adapters..fuse..Fuse$LT$I$GT$$u20$as$u20$core..iter..adapters..fuse..FuseImpl$LT$I$GT$$GT$4next17h961b6737c4f134cfE', symObjAddr: 0x0, symBinAddr: 0x4D9E0, symSize: 0x88 }
  - { offset: 0x14DDB7, size: 0x8, addend: 0x0, symName: '__ZN111_$LT$alloc..vec..Vec$LT$T$GT$$u20$as$u20$alloc..vec..spec_from_iter_nested..SpecFromIterNested$LT$T$C$I$GT$$GT$39from_iter$u7b$$u7b$reify.shim$u7d$$u7d$17h03e8a83fd712f948E', symObjAddr: 0x88, symBinAddr: 0x4DA68, symSize: 0x1C }
  - { offset: 0x14EFE3, size: 0x8, addend: 0x0, symName: __ZN5alloc11collections5btree3mem7replace17h0b5832b95654dae7E, symObjAddr: 0x313C, symBinAddr: 0x50ACC, symSize: 0x90 }
  - { offset: 0x14F0CC, size: 0x8, addend: 0x0, symName: __ZN5alloc11collections5btree3mem7replace17h5da991a8f2475e4fE, symObjAddr: 0x31CC, symBinAddr: 0x50B5C, symSize: 0xCC }
  - { offset: 0x14F1BC, size: 0x8, addend: 0x0, symName: __ZN5alloc11collections5btree3mem7replace17h75bab5e00b8b7b06E, symObjAddr: 0x3298, symBinAddr: 0x50C28, symSize: 0xC4 }
  - { offset: 0x14F2AB, size: 0x8, addend: 0x0, symName: __ZN5alloc11collections5btree3mem7replace17h76708372385400a7E, symObjAddr: 0x335C, symBinAddr: 0x50CEC, symSize: 0xCC }
  - { offset: 0x14F39B, size: 0x8, addend: 0x0, symName: __ZN5alloc11collections5btree3mem7replace17h8827f7f7ffd15910E, symObjAddr: 0x3428, symBinAddr: 0x50DB8, symSize: 0x90 }
  - { offset: 0x14F489, size: 0x8, addend: 0x0, symName: '__ZN5alloc11collections5btree3mem8take_mut28_$u7b$$u7b$closure$u7d$$u7d$17h1a8aa031fd3627bdE', symObjAddr: 0x34B8, symBinAddr: 0x50E48, symSize: 0x28 }
  - { offset: 0x14F4D6, size: 0x8, addend: 0x0, symName: '__ZN5alloc11collections5btree3mem8take_mut28_$u7b$$u7b$closure$u7d$$u7d$17h266d9f1c100a6794E', symObjAddr: 0x34E0, symBinAddr: 0x50E70, symSize: 0x28 }
  - { offset: 0x14F554, size: 0x8, addend: 0x0, symName: '__ZN93_$LT$alloc..collections..btree..mem..replace..PanicGuard$u20$as$u20$core..ops..drop..Drop$GT$4drop17h8b68e966f03bc33cE', symObjAddr: 0x5678, symBinAddr: 0x52EC8, symSize: 0xC }
  - { offset: 0x14F65A, size: 0x8, addend: 0x0, symName: '__ZN5alloc5slice29_$LT$impl$u20$$u5b$T$u5d$$GT$8into_vec17ha92fed242a042a05E', symObjAddr: 0x3508, symBinAddr: 0x50E98, symSize: 0x4C }
  - { offset: 0x14F9CA, size: 0x8, addend: 0x0, symName: '__ZN4core3ptr100drop_in_place$LT$core..option..Option$LT$core..option..IntoIter$LT$alloc..string..String$GT$$GT$$GT$17h35d80bf5034f1601E', symObjAddr: 0x9A4, symBinAddr: 0x4E384, symSize: 0x48 }
  - { offset: 0x14F9F9, size: 0x8, addend: 0x0, symName: '__ZN4core3ptr104drop_in_place$LT$alloc..raw_vec..RawVec$LT$$LP$alloc..string..String$C$alloc..string..String$RP$$GT$$GT$17h5753556b4e60f421E', symObjAddr: 0x9EC, symBinAddr: 0x4E3CC, symSize: 0x24 }
  - { offset: 0x14FA28, size: 0x8, addend: 0x0, symName: '__ZN4core3ptr104drop_in_place$LT$core..slice..sort..stable..merge..MergeState$LT$$LP$usize$C$zip321..Payment$RP$$GT$$GT$17h9c5d200d55fe1a3fE', symObjAddr: 0xA10, symBinAddr: 0x4E3F0, symSize: 0x24 }
  - { offset: 0x14FA57, size: 0x8, addend: 0x0, symName: '__ZN4core3ptr108drop_in_place$LT$core..option..Option$LT$core..option..Option$LT$$LP$usize$C$zip321..Payment$RP$$GT$$GT$$GT$17h6c38df44112d8e1eE', symObjAddr: 0xA34, symBinAddr: 0x4E414, symSize: 0x48 }
  - { offset: 0x14FA86, size: 0x8, addend: 0x0, symName: '__ZN4core3ptr108drop_in_place$LT$core..slice..sort..shared..smallsort..CopyOnDrop$LT$$LP$usize$C$zip321..Payment$RP$$GT$$GT$17hbf9dd2405d719d6cE', symObjAddr: 0xA7C, symBinAddr: 0x4E45C, symSize: 0x24 }
  - { offset: 0x14FAB5, size: 0x8, addend: 0x0, symName: '__ZN4core3ptr1101drop_in_place$LT$core..iter..adapters..flatten..FlatMap$LT$alloc..collections..btree..map..Iter$LT$usize$C$zip321..Payment$GT$$C$core..iter..adapters..chain..Chain$LT$core..iter..adapters..chain..Chain$LT$core..iter..sources..empty..Empty$LT$alloc..string..String$GT$$C$core..option..IntoIter$LT$alloc..string..String$GT$$GT$$C$core..iter..adapters..chain..Chain$LT$core..iter..adapters..chain..Chain$LT$core..iter..adapters..chain..Chain$LT$core..iter..adapters..chain..Chain$LT$core..iter..adapters..chain..Chain$LT$core..iter..sources..empty..Empty$LT$alloc..string..String$GT$$C$core..option..IntoIter$LT$alloc..string..String$GT$$GT$$C$core..option..IntoIter$LT$alloc..string..String$GT$$GT$$C$core..option..IntoIter$LT$alloc..string..String$GT$$GT$$C$core..option..IntoIter$LT$alloc..string..String$GT$$GT$$C$core..iter..adapters..map..Map$LT$core..slice..iter..Iter$LT$$LP$alloc..string..String$C$alloc..string..String$RP$$GT$$C$zip321..TransactionRequest..to_uri..payment_params..$u7b$$u7b$closure$u7d$$u7d$$GT$$GT$$GT$$C$zip321..TransactionRequest..to_uri..$u7b$$u7b$closure$u7d$$u7d$$GT$$GT$17h662799a623af29ffE', symObjAddr: 0xAA0, symBinAddr: 0x4E480, symSize: 0x24 }
  - { offset: 0x14FAE4, size: 0x8, addend: 0x0, symName: '__ZN4core3ptr1145drop_in_place$LT$core..iter..adapters..flatten..FlattenCompat$LT$core..iter..adapters..map..Map$LT$alloc..collections..btree..map..Iter$LT$usize$C$zip321..Payment$GT$$C$zip321..TransactionRequest..to_uri..$u7b$$u7b$closure$u7d$$u7d$$GT$$C$core..iter..adapters..chain..Chain$LT$core..iter..adapters..chain..Chain$LT$core..iter..sources..empty..Empty$LT$alloc..string..String$GT$$C$core..option..IntoIter$LT$alloc..string..String$GT$$GT$$C$core..iter..adapters..chain..Chain$LT$core..iter..adapters..chain..Chain$LT$core..iter..adapters..chain..Chain$LT$core..iter..adapters..chain..Chain$LT$core..iter..adapters..chain..Chain$LT$core..iter..sources..empty..Empty$LT$alloc..string..String$GT$$C$core..option..IntoIter$LT$alloc..string..String$GT$$GT$$C$core..option..IntoIter$LT$alloc..string..String$GT$$GT$$C$core..option..IntoIter$LT$alloc..string..String$GT$$GT$$C$core..option..IntoIter$LT$alloc..string..String$GT$$GT$$C$core..iter..adapters..map..Map$LT$core..slice..iter..Iter$LT$$LP$alloc..string..String$C$alloc..string..String$RP$$GT$$C$zip321..TransactionRequest..to_uri..payment_params..$u7b$$u7b$closure$u7d$$u7d$$GT$$GT$$GT$$GT$$GT$17h300687ab89536a3bE', symObjAddr: 0xAC4, symBinAddr: 0x4E4A4, symSize: 0x64 }
  - { offset: 0x14FB13, size: 0x8, addend: 0x0, symName: '__ZN4core3ptr1177drop_in_place$LT$core..iter..adapters..map..map_fold$LT$$RF$$LP$alloc..string..String$C$alloc..string..String$RP$$C$alloc..string..String$C$$LP$$RP$$C$zip321..TransactionRequest..to_uri..payment_params..$u7b$$u7b$closure$u7d$$u7d$$C$core..iter..traits..iterator..Iterator..for_each..call$LT$alloc..string..String$C$alloc..vec..Vec$LT$alloc..string..String$GT$..extend_trusted$LT$core..iter..adapters..chain..Chain$LT$core..iter..adapters..chain..Chain$LT$core..iter..adapters..chain..Chain$LT$core..iter..adapters..chain..Chain$LT$core..iter..adapters..chain..Chain$LT$core..iter..sources..empty..Empty$LT$alloc..string..String$GT$$C$core..option..IntoIter$LT$alloc..string..String$GT$$GT$$C$core..option..IntoIter$LT$alloc..string..String$GT$$GT$$C$core..option..IntoIter$LT$alloc..string..String$GT$$GT$$C$core..option..IntoIter$LT$alloc..string..String$GT$$GT$$C$core..iter..adapters..map..Map$LT$core..slice..iter..Iter$LT$$LP$alloc..string..String$C$alloc..string..String$RP$$GT$$C$zip321..TransactionRequest..to_uri..payment_params..$u7b$$u7b$closure$u7d$$u7d$$GT$$GT$$GT$..$u7b$$u7b$closure$u7d$$u7d$$GT$..$u7b$$u7b$closure$u7d$$u7d$$GT$..$u7b$$u7b$closure$u7d$$u7d$$GT$17h738b40cc17500472E', symObjAddr: 0xB28, symBinAddr: 0x4E508, symSize: 0x24 }
  - { offset: 0x14FB42, size: 0x8, addend: 0x0, symName: '__ZN4core3ptr117drop_in_place$LT$alloc..boxed..Box$LT$core..mem..maybe_uninit..MaybeUninit$LT$zcash_address..ZcashAddress$GT$$GT$$GT$17ha5e4aeb6254f982dE', symObjAddr: 0xB4C, symBinAddr: 0x4E52C, symSize: 0x2C }
  - { offset: 0x14FB71, size: 0x8, addend: 0x0, symName: '__ZN4core3ptr120drop_in_place$LT$alloc..collections..btree..map..BTreeMap$LT$usize$C$alloc..vec..Vec$LT$zip321..parse..Param$GT$$GT$$GT$17h1629d801a8264c76E', symObjAddr: 0xB9C, symBinAddr: 0x4E558, symSize: 0x24 }
  - { offset: 0x14FBA0, size: 0x8, addend: 0x0, symName: '__ZN4core3ptr120drop_in_place$LT$alloc..collections..btree..map..IntoIter$LT$usize$C$alloc..vec..Vec$LT$zip321..parse..Param$GT$$GT$$GT$17h32df80a8e1512634E', symObjAddr: 0xBC0, symBinAddr: 0x4E57C, symSize: 0x24 }
  - { offset: 0x14FBCF, size: 0x8, addend: 0x0, symName: '__ZN4core3ptr124drop_in_place$LT$core..option..Option$LT$core..result..Result$LT$core..convert..Infallible$C$zip321..Zip321Error$GT$$GT$$GT$17h7727102e1f587fccE', symObjAddr: 0xC10, symBinAddr: 0x4E5A0, symSize: 0x4C }
  - { offset: 0x14FBFE, size: 0x8, addend: 0x0, symName: '__ZN4core3ptr125drop_in_place$LT$core..iter..adapters..enumerate..Enumerate$LT$alloc..vec..into_iter..IntoIter$LT$zip321..Payment$GT$$GT$$GT$17h4f6a8f57d406b616E', symObjAddr: 0xC5C, symBinAddr: 0x4E5EC, symSize: 0x24 }
  - { offset: 0x14FC2D, size: 0x8, addend: 0x0, symName: '__ZN4core3ptr139drop_in_place$LT$core..iter..adapters..peekable..Peekable$LT$alloc..vec..into_iter..IntoIter$LT$$LP$usize$C$zip321..Payment$RP$$GT$$GT$$GT$17hfb645d2ba02970a0E', symObjAddr: 0xC80, symBinAddr: 0x4E610, symSize: 0x5C }
  - { offset: 0x14FC5C, size: 0x8, addend: 0x0, symName: '__ZN4core3ptr142drop_in_place$LT$core..result..Result$LT$core..option..Option$LT$zip321..parse..IndexedParam$GT$$C$zcash_address..encoding..ParseError$GT$$GT$17h89903fbd1a697fbbE', symObjAddr: 0xCDC, symBinAddr: 0x4E66C, symSize: 0x60 }
  - { offset: 0x14FC8B, size: 0x8, addend: 0x0, symName: '__ZN4core3ptr145drop_in_place$LT$core..array..iter..iter_inner..PolymorphicIter$LT$$u5b$core..mem..maybe_uninit..MaybeUninit$LT$usize$GT$$u3b$$u20$2$u5d$$GT$$GT$17h46f7f33a6cddc973E', symObjAddr: 0xD3C, symBinAddr: 0x4E6CC, symSize: 0x24 }
  - { offset: 0x14FCBA, size: 0x8, addend: 0x0, symName: '__ZN4core3ptr146drop_in_place$LT$alloc..boxed..Box$LT$alloc..collections..btree..node..LeafNode$LT$usize$C$alloc..vec..Vec$LT$zip321..parse..Param$GT$$GT$$GT$$GT$17hc772c7377476fad3E', symObjAddr: 0xD60, symBinAddr: 0x4E6F0, symSize: 0x2C }
  - { offset: 0x14FCE9, size: 0x8, addend: 0x0, symName: '__ZN4core3ptr150drop_in_place$LT$alloc..boxed..Box$LT$alloc..collections..btree..node..InternalNode$LT$usize$C$alloc..vec..Vec$LT$zip321..parse..Param$GT$$GT$$GT$$GT$17h68c50f029a471f57E', symObjAddr: 0xD8C, symBinAddr: 0x4E71C, symSize: 0x2C }
  - { offset: 0x14FD18, size: 0x8, addend: 0x0, symName: '__ZN4core3ptr169drop_in_place$LT$$LT$alloc..vec..into_iter..IntoIter$LT$T$C$A$GT$$u20$as$u20$core..ops..drop..Drop$GT$..drop..DropGuard$LT$zip321..Payment$C$alloc..alloc..Global$GT$$GT$17hf8183b0116eb698dE', symObjAddr: 0xDB8, symBinAddr: 0x4E748, symSize: 0x24 }
  - { offset: 0x14FD47, size: 0x8, addend: 0x0, symName: '__ZN4core3ptr172drop_in_place$LT$alloc..collections..btree..node..SplitResult$LT$usize$C$alloc..vec..Vec$LT$zip321..parse..Param$GT$$C$alloc..collections..btree..node..marker..Leaf$GT$$GT$17h40f89c2e57f1b29cE', symObjAddr: 0xDDC, symBinAddr: 0x4E76C, symSize: 0x24 }
  - { offset: 0x14FD76, size: 0x8, addend: 0x0, symName: '__ZN4core3ptr174drop_in_place$LT$$LT$alloc..vec..into_iter..IntoIter$LT$T$C$A$GT$$u20$as$u20$core..ops..drop..Drop$GT$..drop..DropGuard$LT$zip321..parse..Param$C$alloc..alloc..Global$GT$$GT$17hc3b223bd85f81253E', symObjAddr: 0xE00, symBinAddr: 0x4E790, symSize: 0x24 }
  - { offset: 0x14FDA5, size: 0x8, addend: 0x0, symName: '__ZN4core3ptr176drop_in_place$LT$alloc..collections..btree..node..SplitResult$LT$usize$C$alloc..vec..Vec$LT$zip321..parse..Param$GT$$C$alloc..collections..btree..node..marker..Internal$GT$$GT$17h26cc8f36178a0891E', symObjAddr: 0xE24, symBinAddr: 0x4E7B4, symSize: 0x24 }
  - { offset: 0x14FDD4, size: 0x8, addend: 0x0, symName: '__ZN4core3ptr179drop_in_place$LT$core..iter..adapters..chain..Chain$LT$core..iter..sources..empty..Empty$LT$alloc..string..String$GT$$C$core..option..IntoIter$LT$alloc..string..String$GT$$GT$$GT$17h0a4c2963ef99f621E', symObjAddr: 0xE48, symBinAddr: 0x4E7D8, symSize: 0x24 }
  - { offset: 0x14FE03, size: 0x8, addend: 0x0, symName: '__ZN4core3ptr181drop_in_place$LT$$LT$alloc..vec..into_iter..IntoIter$LT$T$C$A$GT$$u20$as$u20$core..ops..drop..Drop$GT$..drop..DropGuard$LT$zip321..parse..IndexedParam$C$alloc..alloc..Global$GT$$GT$17hbc4f3d90d4f63014E', symObjAddr: 0xE6C, symBinAddr: 0x4E7FC, symSize: 0x24 }
  - { offset: 0x14FE32, size: 0x8, addend: 0x0, symName: '__ZN4core3ptr185drop_in_place$LT$$LT$alloc..vec..into_iter..IntoIter$LT$T$C$A$GT$$u20$as$u20$core..ops..drop..Drop$GT$..drop..DropGuard$LT$$LP$usize$C$zip321..Payment$RP$$C$alloc..alloc..Global$GT$$GT$17h6426e6c50634d9a4E', symObjAddr: 0xE90, symBinAddr: 0x4E820, symSize: 0x24 }
  - { offset: 0x14FE61, size: 0x8, addend: 0x0, symName: '__ZN4core3ptr186drop_in_place$LT$alloc..collections..btree..dedup_sorted_iter..DedupSortedIter$LT$usize$C$zip321..Payment$C$alloc..vec..into_iter..IntoIter$LT$$LP$usize$C$zip321..Payment$RP$$GT$$GT$$GT$17h619bf318a13c9230E', symObjAddr: 0xEB4, symBinAddr: 0x4E844, symSize: 0x24 }
  - { offset: 0x14FE90, size: 0x8, addend: 0x0, symName: '__ZN4core3ptr190drop_in_place$LT$$LT$alloc..collections..btree..map..IntoIter$LT$K$C$V$C$A$GT$$u20$as$u20$core..ops..drop..Drop$GT$..drop..DropGuard$LT$usize$C$zip321..Payment$C$alloc..alloc..Global$GT$$GT$17hfc1fb5f30267d012E', symObjAddr: 0xED8, symBinAddr: 0x4E868, symSize: 0x24 }
  - { offset: 0x14FEBF, size: 0x8, addend: 0x0, symName: '__ZN4core3ptr204drop_in_place$LT$$LT$T$u20$as$u20$alloc..slice..$LT$impl$u20$$u5b$T$u5d$$GT$..to_vec_in..ConvertVec$GT$..to_vec..DropGuard$LT$zcash_address..kind..unified..address..Receiver$C$alloc..alloc..Global$GT$$GT$17he915120047f81789E', symObjAddr: 0xEFC, symBinAddr: 0x4E88C, symSize: 0x24 }
  - { offset: 0x14FEEE, size: 0x8, addend: 0x0, symName: '__ZN4core3ptr207drop_in_place$LT$core..option..Option$LT$core..iter..adapters..chain..Chain$LT$core..iter..sources..empty..Empty$LT$alloc..string..String$GT$$C$core..option..IntoIter$LT$alloc..string..String$GT$$GT$$GT$$GT$17h8785e4820a72011eE', symObjAddr: 0xF20, symBinAddr: 0x4E8B0, symSize: 0x4C }
  - { offset: 0x14FF1D, size: 0x8, addend: 0x0, symName: '__ZN4core3ptr218drop_in_place$LT$$LT$alloc..collections..btree..map..IntoIter$LT$K$C$V$C$A$GT$$u20$as$u20$core..ops..drop..Drop$GT$..drop..DropGuard$LT$usize$C$alloc..vec..Vec$LT$zip321..parse..Param$GT$$C$alloc..alloc..Global$GT$$GT$17hbab92166587af165E', symObjAddr: 0xF6C, symBinAddr: 0x4E8FC, symSize: 0x24 }
  - { offset: 0x14FF4C, size: 0x8, addend: 0x0, symName: '__ZN4core3ptr226drop_in_place$LT$core..iter..adapters..map..Map$LT$alloc..collections..btree..map..IntoIter$LT$usize$C$alloc..vec..Vec$LT$zip321..parse..Param$GT$$GT$$C$zip321..TransactionRequest..from_uri..$u7b$$u7b$closure$u7d$$u7d$$GT$$GT$17h89a304c51d08774cE', symObjAddr: 0xF90, symBinAddr: 0x4E920, symSize: 0x24 }
  - { offset: 0x14FF7B, size: 0x8, addend: 0x0, symName: '__ZN4core3ptr232drop_in_place$LT$alloc..vec..Vec$LT$$LP$usize$C$zip321..Payment$RP$$GT$..extend_trusted$LT$core..iter..adapters..enumerate..Enumerate$LT$alloc..vec..into_iter..IntoIter$LT$zip321..Payment$GT$$GT$$GT$..$u7b$$u7b$closure$u7d$$u7d$$GT$17hb25f183432b3f23cE', symObjAddr: 0xFB4, symBinAddr: 0x4E944, symSize: 0x24 }
  - { offset: 0x14FFAA, size: 0x8, addend: 0x0, symName: '__ZN4core3ptr273drop_in_place$LT$alloc..collections..btree..node..Handle$LT$alloc..collections..btree..node..NodeRef$LT$alloc..collections..btree..node..marker..Dying$C$K$C$V$C$NodeType$GT$$C$alloc..collections..btree..node..marker..KV$GT$..drop_key_val..Dropper$LT$zip321..Payment$GT$$GT$17h72ff027f9dfd62c5E', symObjAddr: 0xFD8, symBinAddr: 0x4E968, symSize: 0x24 }
  - { offset: 0x14FFD9, size: 0x8, addend: 0x0, symName: '__ZN4core3ptr275drop_in_place$LT$core..iter..adapters..chain..Chain$LT$core..iter..adapters..chain..Chain$LT$core..iter..sources..empty..Empty$LT$alloc..string..String$GT$$C$core..option..IntoIter$LT$alloc..string..String$GT$$GT$$C$core..option..IntoIter$LT$alloc..string..String$GT$$GT$$GT$17h0327085806425f31E', symObjAddr: 0xFFC, symBinAddr: 0x4E98C, symSize: 0x5C }
  - { offset: 0x150008, size: 0x8, addend: 0x0, symName: '__ZN4core3ptr301drop_in_place$LT$alloc..collections..btree..node..Handle$LT$alloc..collections..btree..node..NodeRef$LT$alloc..collections..btree..node..marker..Dying$C$K$C$V$C$NodeType$GT$$C$alloc..collections..btree..node..marker..KV$GT$..drop_key_val..Dropper$LT$alloc..vec..Vec$LT$zip321..parse..Param$GT$$GT$$GT$17h02c9bcda005916b9E', symObjAddr: 0x1058, symBinAddr: 0x4E9E8, symSize: 0x24 }
  - { offset: 0x150037, size: 0x8, addend: 0x0, symName: '__ZN4core3ptr303drop_in_place$LT$core..option..Option$LT$core..iter..adapters..chain..Chain$LT$core..iter..adapters..chain..Chain$LT$core..iter..sources..empty..Empty$LT$alloc..string..String$GT$$C$core..option..IntoIter$LT$alloc..string..String$GT$$GT$$C$core..option..IntoIter$LT$alloc..string..String$GT$$GT$$GT$$GT$17hb4c0dea48f19600dE', symObjAddr: 0x107C, symBinAddr: 0x4EA0C, symSize: 0x4C }
  - { offset: 0x150066, size: 0x8, addend: 0x0, symName: '__ZN4core3ptr346drop_in_place$LT$core..iter..adapters..GenericShunt$LT$core..iter..adapters..map..Map$LT$alloc..collections..btree..map..IntoIter$LT$usize$C$alloc..vec..Vec$LT$zip321..parse..Param$GT$$GT$$C$zip321..TransactionRequest..from_uri..$u7b$$u7b$closure$u7d$$u7d$$GT$$C$core..result..Result$LT$core..convert..Infallible$C$zip321..Zip321Error$GT$$GT$$GT$17ha1339b1f5a0c9e08E', symObjAddr: 0x10C8, symBinAddr: 0x4EA58, symSize: 0x24 }
  - { offset: 0x150095, size: 0x8, addend: 0x0, symName: '__ZN4core3ptr357drop_in_place$LT$core..iter..traits..iterator..Iterator..for_each..call$LT$$LP$usize$C$zip321..Payment$RP$$C$alloc..vec..Vec$LT$$LP$usize$C$zip321..Payment$RP$$GT$..extend_trusted$LT$core..iter..adapters..enumerate..Enumerate$LT$alloc..vec..into_iter..IntoIter$LT$zip321..Payment$GT$$GT$$GT$..$u7b$$u7b$closure$u7d$$u7d$$GT$..$u7b$$u7b$closure$u7d$$u7d$$GT$17had6d2381aa0464e6E', symObjAddr: 0x10EC, symBinAddr: 0x4EA7C, symSize: 0x24 }
  - { offset: 0x1500C4, size: 0x8, addend: 0x0, symName: '__ZN4core3ptr36drop_in_place$LT$zip321..Payment$GT$17hd0959398ae44e022E', symObjAddr: 0x1110, symBinAddr: 0x4EAA0, symSize: 0xEC }
  - { offset: 0x1500F3, size: 0x8, addend: 0x0, symName: '__ZN4core3ptr371drop_in_place$LT$core..iter..adapters..chain..Chain$LT$core..iter..adapters..chain..Chain$LT$core..iter..adapters..chain..Chain$LT$core..iter..sources..empty..Empty$LT$alloc..string..String$GT$$C$core..option..IntoIter$LT$alloc..string..String$GT$$GT$$C$core..option..IntoIter$LT$alloc..string..String$GT$$GT$$C$core..option..IntoIter$LT$alloc..string..String$GT$$GT$$GT$17h0a8b58b1d3fe6e5aE', symObjAddr: 0x11FC, symBinAddr: 0x4EB8C, symSize: 0x5C }
  - { offset: 0x150122, size: 0x8, addend: 0x0, symName: '__ZN4core3ptr399drop_in_place$LT$core..option..Option$LT$core..iter..adapters..chain..Chain$LT$core..iter..adapters..chain..Chain$LT$core..iter..adapters..chain..Chain$LT$core..iter..sources..empty..Empty$LT$alloc..string..String$GT$$C$core..option..IntoIter$LT$alloc..string..String$GT$$GT$$C$core..option..IntoIter$LT$alloc..string..String$GT$$GT$$C$core..option..IntoIter$LT$alloc..string..String$GT$$GT$$GT$$GT$17hd3b9247221e12cc5E', symObjAddr: 0x1258, symBinAddr: 0x4EBE8, symSize: 0x4C }
  - { offset: 0x150151, size: 0x8, addend: 0x0, symName: '__ZN4core3ptr40drop_in_place$LT$zip321..Zip321Error$GT$17had6d572ef48fdef7E', symObjAddr: 0x12A4, symBinAddr: 0x4EC34, symSize: 0x9C }
  - { offset: 0x150180, size: 0x8, addend: 0x0, symName: '__ZN4core3ptr41drop_in_place$LT$zip321..parse..Param$GT$17hbe1357cb6b693990E', symObjAddr: 0x1340, symBinAddr: 0x4ECD0, symSize: 0x114 }
  - { offset: 0x1501AF, size: 0x8, addend: 0x0, symName: '__ZN4core3ptr467drop_in_place$LT$core..iter..adapters..chain..Chain$LT$core..iter..adapters..chain..Chain$LT$core..iter..adapters..chain..Chain$LT$core..iter..adapters..chain..Chain$LT$core..iter..sources..empty..Empty$LT$alloc..string..String$GT$$C$core..option..IntoIter$LT$alloc..string..String$GT$$GT$$C$core..option..IntoIter$LT$alloc..string..String$GT$$GT$$C$core..option..IntoIter$LT$alloc..string..String$GT$$GT$$C$core..option..IntoIter$LT$alloc..string..String$GT$$GT$$GT$17hda8c16cc8ef7a1b0E', symObjAddr: 0x1454, symBinAddr: 0x4EDE4, symSize: 0x5C }
  - { offset: 0x1501DE, size: 0x8, addend: 0x0, symName: '__ZN4core3ptr46drop_in_place$LT$$u5b$zip321..Payment$u5d$$GT$17hff50623de0b6fbb2E', symObjAddr: 0x14B0, symBinAddr: 0x4EE40, symSize: 0xC4 }
  - { offset: 0x15020D, size: 0x8, addend: 0x0, symName: '__ZN4core3ptr47drop_in_place$LT$zcash_address..AddressKind$GT$17hbecfbc38d82a819cE', symObjAddr: 0x1574, symBinAddr: 0x4EF04, symSize: 0x44 }
  - { offset: 0x15023C, size: 0x8, addend: 0x0, symName: '__ZN4core3ptr47drop_in_place$LT$zip321..TransactionRequest$GT$17h0341fb5faeef841aE', symObjAddr: 0x15B8, symBinAddr: 0x4EF48, symSize: 0x24 }
  - { offset: 0x15026B, size: 0x8, addend: 0x0, symName: '__ZN4core3ptr48drop_in_place$LT$zcash_address..ZcashAddress$GT$17h168434b3a005e4e4E', symObjAddr: 0x15DC, symBinAddr: 0x4EF6C, symSize: 0x24 }
  - { offset: 0x15029A, size: 0x8, addend: 0x0, symName: '__ZN4core3ptr48drop_in_place$LT$zip321..parse..IndexedParam$GT$17h102b48929ed37d4aE', symObjAddr: 0x1600, symBinAddr: 0x4EF90, symSize: 0x24 }
  - { offset: 0x1502C9, size: 0x8, addend: 0x0, symName: '__ZN4core3ptr495drop_in_place$LT$core..option..Option$LT$core..iter..adapters..chain..Chain$LT$core..iter..adapters..chain..Chain$LT$core..iter..adapters..chain..Chain$LT$core..iter..adapters..chain..Chain$LT$core..iter..sources..empty..Empty$LT$alloc..string..String$GT$$C$core..option..IntoIter$LT$alloc..string..String$GT$$GT$$C$core..option..IntoIter$LT$alloc..string..String$GT$$GT$$C$core..option..IntoIter$LT$alloc..string..String$GT$$GT$$C$core..option..IntoIter$LT$alloc..string..String$GT$$GT$$GT$$GT$17hac538dcbdf1dde2dE', symObjAddr: 0x1624, symBinAddr: 0x4EFB4, symSize: 0x4C }
  - { offset: 0x1502F8, size: 0x8, addend: 0x0, symName: '__ZN4core3ptr50drop_in_place$LT$alloc..borrow..Cow$LT$str$GT$$GT$17h467f1dcdc6c886f8E', symObjAddr: 0x1670, symBinAddr: 0x4F000, symSize: 0x48 }
  - { offset: 0x150327, size: 0x8, addend: 0x0, symName: '__ZN4core3ptr51drop_in_place$LT$$u5b$zip321..parse..Param$u5d$$GT$17he369f8b91ae71f9dE', symObjAddr: 0x16B8, symBinAddr: 0x4F048, symSize: 0xC4 }
  - { offset: 0x150356, size: 0x8, addend: 0x0, symName: '__ZN4core3ptr52drop_in_place$LT$$LP$usize$C$zip321..Payment$RP$$GT$17hc6b31cec475ec785E', symObjAddr: 0x177C, symBinAddr: 0x4F10C, symSize: 0x24 }
  - { offset: 0x150385, size: 0x8, addend: 0x0, symName: '__ZN4core3ptr52drop_in_place$LT$$u5b$alloc..string..String$u5d$$GT$17h7b344abda5bb6644E', symObjAddr: 0x17A0, symBinAddr: 0x4F130, symSize: 0xC4 }
  - { offset: 0x1503B4, size: 0x8, addend: 0x0, symName: '__ZN4core3ptr549drop_in_place$LT$$LT$core..iter..adapters..enumerate..Enumerate$LT$I$GT$$u20$as$u20$core..iter..traits..iterator..Iterator$GT$..fold..enumerate$LT$zip321..Payment$C$$LP$$RP$$C$core..iter..traits..iterator..Iterator..for_each..call$LT$$LP$usize$C$zip321..Payment$RP$$C$alloc..vec..Vec$LT$$LP$usize$C$zip321..Payment$RP$$GT$..extend_trusted$LT$core..iter..adapters..enumerate..Enumerate$LT$alloc..vec..into_iter..IntoIter$LT$zip321..Payment$GT$$GT$$GT$..$u7b$$u7b$closure$u7d$$u7d$$GT$..$u7b$$u7b$closure$u7d$$u7d$$GT$..$u7b$$u7b$closure$u7d$$u7d$$GT$17hb71d98cc0d7ae330E', symObjAddr: 0x1864, symBinAddr: 0x4F1F4, symSize: 0x24 }
  - { offset: 0x1503E3, size: 0x8, addend: 0x0, symName: '__ZN4core3ptr56drop_in_place$LT$zcash_address..encoding..ParseError$GT$17h8b85a4eceeffdb09E', symObjAddr: 0x1888, symBinAddr: 0x4F218, symSize: 0x58 }
  - { offset: 0x150412, size: 0x8, addend: 0x0, symName: '__ZN4core3ptr58drop_in_place$LT$$u5b$zip321..parse..IndexedParam$u5d$$GT$17h5eb7abef0a546191E', symObjAddr: 0x18E0, symBinAddr: 0x4F270, symSize: 0xC4 }
  - { offset: 0x150441, size: 0x8, addend: 0x0, symName: '__ZN4core3ptr59drop_in_place$LT$alloc..vec..Vec$LT$zip321..Payment$GT$$GT$17h7eec3b62e738394aE', symObjAddr: 0x19A4, symBinAddr: 0x4F334, symSize: 0x5C }
  - { offset: 0x150470, size: 0x8, addend: 0x0, symName: '__ZN4core3ptr62drop_in_place$LT$$u5b$$LP$usize$C$zip321..Payment$RP$$u5d$$GT$17h9b466f75a6149e37E', symObjAddr: 0x1A00, symBinAddr: 0x4F390, symSize: 0xC4 }
  - { offset: 0x15049F, size: 0x8, addend: 0x0, symName: '__ZN4core3ptr64drop_in_place$LT$alloc..vec..Vec$LT$zip321..parse..Param$GT$$GT$17hae3524eaa2791fbcE', symObjAddr: 0x1AC4, symBinAddr: 0x4F454, symSize: 0x5C }
  - { offset: 0x1504CE, size: 0x8, addend: 0x0, symName: '__ZN4core3ptr65drop_in_place$LT$alloc..vec..Vec$LT$alloc..string..String$GT$$GT$17hc7a67031f49dda4fE', symObjAddr: 0x1B20, symBinAddr: 0x4F4B0, symSize: 0x5C }
  - { offset: 0x1504FD, size: 0x8, addend: 0x0, symName: '__ZN4core3ptr66drop_in_place$LT$alloc..raw_vec..RawVec$LT$zip321..Payment$GT$$GT$17h7e95e257ec1e0d79E', symObjAddr: 0x1B7C, symBinAddr: 0x4F50C, symSize: 0x24 }
  - { offset: 0x15052C, size: 0x8, addend: 0x0, symName: '__ZN4core3ptr67drop_in_place$LT$zcash_address..kind..unified..address..Address$GT$17h2c28a4153bab895bE', symObjAddr: 0x1BA0, symBinAddr: 0x4F530, symSize: 0x24 }
  - { offset: 0x15055B, size: 0x8, addend: 0x0, symName: '__ZN4core3ptr68drop_in_place$LT$core..option..Item$LT$alloc..string..String$GT$$GT$17h49d6cab618a3a9b7E', symObjAddr: 0x1BC4, symBinAddr: 0x4F554, symSize: 0x24 }
  - { offset: 0x15058A, size: 0x8, addend: 0x0, symName: '__ZN4core3ptr70drop_in_place$LT$core..option..Option$LT$alloc..string..String$GT$$GT$17hd0df5605981cd31bE', symObjAddr: 0x1BE8, symBinAddr: 0x4F578, symSize: 0x48 }
  - { offset: 0x1505B9, size: 0x8, addend: 0x0, symName: '__ZN4core3ptr716drop_in_place$LT$core..iter..adapters..chain..Chain$LT$core..iter..adapters..chain..Chain$LT$core..iter..adapters..chain..Chain$LT$core..iter..adapters..chain..Chain$LT$core..iter..adapters..chain..Chain$LT$core..iter..sources..empty..Empty$LT$alloc..string..String$GT$$C$core..option..IntoIter$LT$alloc..string..String$GT$$GT$$C$core..option..IntoIter$LT$alloc..string..String$GT$$GT$$C$core..option..IntoIter$LT$alloc..string..String$GT$$GT$$C$core..option..IntoIter$LT$alloc..string..String$GT$$GT$$C$core..iter..adapters..map..Map$LT$core..slice..iter..Iter$LT$$LP$alloc..string..String$C$alloc..string..String$RP$$GT$$C$zip321..TransactionRequest..to_uri..payment_params..$u7b$$u7b$closure$u7d$$u7d$$GT$$GT$$GT$17h79fe709928bafcb5E', symObjAddr: 0x1C30, symBinAddr: 0x4F5C0, symSize: 0x24 }
  - { offset: 0x1505E8, size: 0x8, addend: 0x0, symName: '__ZN4core3ptr71drop_in_place$LT$alloc..raw_vec..RawVec$LT$zip321..parse..Param$GT$$GT$17h3fc458d31016f1fdE', symObjAddr: 0x1C54, symBinAddr: 0x4F5E4, symSize: 0x24 }
  - { offset: 0x150617, size: 0x8, addend: 0x0, symName: '__ZN4core3ptr71drop_in_place$LT$alloc..vec..Vec$LT$zip321..parse..IndexedParam$GT$$GT$17h09a4d17f206bb287E', symObjAddr: 0x1C78, symBinAddr: 0x4F608, symSize: 0x5C }
  - { offset: 0x150646, size: 0x8, addend: 0x0, symName: '__ZN4core3ptr71drop_in_place$LT$core..array..iter..IntoIter$LT$usize$C$2_usize$GT$$GT$17hd58c31153a54388dE', symObjAddr: 0x1CD4, symBinAddr: 0x4F664, symSize: 0x5C }
  - { offset: 0x150675, size: 0x8, addend: 0x0, symName: '__ZN4core3ptr72drop_in_place$LT$alloc..collections..btree..mem..replace..PanicGuard$GT$17h7549bb013d5aee47E', symObjAddr: 0x1D30, symBinAddr: 0x4F6C0, symSize: 0x24 }
  - { offset: 0x1506A4, size: 0x8, addend: 0x0, symName: '__ZN4core3ptr72drop_in_place$LT$alloc..raw_vec..RawVec$LT$alloc..string..String$GT$$GT$17he50c0de0887a9efbE', symObjAddr: 0x1D54, symBinAddr: 0x4F6E4, symSize: 0x24 }
  - { offset: 0x1506D3, size: 0x8, addend: 0x0, symName: '__ZN4core3ptr72drop_in_place$LT$core..option..IntoIter$LT$alloc..string..String$GT$$GT$17h6c365882d53d072dE', symObjAddr: 0x1D78, symBinAddr: 0x4F708, symSize: 0x24 }
  - { offset: 0x150702, size: 0x8, addend: 0x0, symName: '__ZN4core3ptr73drop_in_place$LT$alloc..boxed..Box$LT$zcash_address..ZcashAddress$GT$$GT$17h025f63cf02bb15daE', symObjAddr: 0x1D9C, symBinAddr: 0x4F72C, symSize: 0x60 }
  - { offset: 0x150731, size: 0x8, addend: 0x0, symName: '__ZN4core3ptr744drop_in_place$LT$core..option..Option$LT$core..iter..adapters..chain..Chain$LT$core..iter..adapters..chain..Chain$LT$core..iter..adapters..chain..Chain$LT$core..iter..adapters..chain..Chain$LT$core..iter..adapters..chain..Chain$LT$core..iter..sources..empty..Empty$LT$alloc..string..String$GT$$C$core..option..IntoIter$LT$alloc..string..String$GT$$GT$$C$core..option..IntoIter$LT$alloc..string..String$GT$$GT$$C$core..option..IntoIter$LT$alloc..string..String$GT$$GT$$C$core..option..IntoIter$LT$alloc..string..String$GT$$GT$$C$core..iter..adapters..map..Map$LT$core..slice..iter..Iter$LT$$LP$alloc..string..String$C$alloc..string..String$RP$$GT$$C$zip321..TransactionRequest..to_uri..payment_params..$u7b$$u7b$closure$u7d$$u7d$$GT$$GT$$GT$$GT$17h3f3f30e03088eb73E', symObjAddr: 0x1DFC, symBinAddr: 0x4F78C, symSize: 0x44 }
  - { offset: 0x150760, size: 0x8, addend: 0x0, symName: '__ZN4core3ptr74drop_in_place$LT$$LP$alloc..string..String$C$alloc..string..String$RP$$GT$17h0757e4454a8d32a1E', symObjAddr: 0x1E40, symBinAddr: 0x4F7D0, symSize: 0x60 }
  - { offset: 0x15078F, size: 0x8, addend: 0x0, symName: '__ZN4core3ptr75drop_in_place$LT$alloc..vec..Vec$LT$$LP$usize$C$zip321..Payment$RP$$GT$$GT$17h67fbc4a8491801d8E', symObjAddr: 0x1EA0, symBinAddr: 0x4F830, symSize: 0x5C }
  - { offset: 0x1507BE, size: 0x8, addend: 0x0, symName: '__ZN4core3ptr75drop_in_place$LT$alloc..vec..into_iter..IntoIter$LT$zip321..Payment$GT$$GT$17h1834546530bce1cdE', symObjAddr: 0x1EFC, symBinAddr: 0x4F88C, symSize: 0x24 }
  - { offset: 0x1507ED, size: 0x8, addend: 0x0, symName: '__ZN4core3ptr76drop_in_place$LT$core..option..Option$LT$zip321..parse..IndexedParam$GT$$GT$17h8b4056765b22cd51E', symObjAddr: 0x1F20, symBinAddr: 0x4F8B0, symSize: 0x4C }
  - { offset: 0x15081C, size: 0x8, addend: 0x0, symName: '__ZN4core3ptr77drop_in_place$LT$alloc..boxed..Box$LT$zcash_protocol..memo..MemoBytes$GT$$GT$17h6435e5b84c024198E', symObjAddr: 0x1F6C, symBinAddr: 0x4F8FC, symSize: 0x60 }
  - { offset: 0x15084B, size: 0x8, addend: 0x0, symName: '__ZN4core3ptr78drop_in_place$LT$alloc..raw_vec..RawVec$LT$zip321..parse..IndexedParam$GT$$GT$17h024d4c41a4934da4E', symObjAddr: 0x1FCC, symBinAddr: 0x4F95C, symSize: 0x24 }
  - { offset: 0x15087A, size: 0x8, addend: 0x0, symName: '__ZN4core3ptr80drop_in_place$LT$$LP$usize$C$alloc..vec..Vec$LT$zip321..parse..Param$GT$$RP$$GT$17hb3fa34633b79141cE', symObjAddr: 0x1FF0, symBinAddr: 0x4F980, symSize: 0x24 }
  - { offset: 0x1508A9, size: 0x8, addend: 0x0, symName: '__ZN4core3ptr80drop_in_place$LT$alloc..vec..into_iter..IntoIter$LT$zip321..parse..Param$GT$$GT$17h33c5311bb1be0134E', symObjAddr: 0x2014, symBinAddr: 0x4F9A4, symSize: 0x24 }
  - { offset: 0x1508D8, size: 0x8, addend: 0x0, symName: '__ZN4core3ptr80drop_in_place$LT$core..option..Option$LT$$LP$usize$C$zip321..Payment$RP$$GT$$GT$17h8a095a7e55b1f0faE', symObjAddr: 0x2038, symBinAddr: 0x4F9C8, symSize: 0x48 }
  - { offset: 0x150907, size: 0x8, addend: 0x0, symName: '__ZN4core3ptr80drop_in_place$LT$core..option..Option$LT$zcash_protocol..memo..MemoBytes$GT$$GT$17hb05464e972d70708E', symObjAddr: 0x2080, symBinAddr: 0x4FA10, symSize: 0x44 }
  - { offset: 0x150936, size: 0x8, addend: 0x0, symName: '__ZN4core3ptr813drop_in_place$LT$alloc..vec..Vec$LT$alloc..string..String$GT$..extend_trusted$LT$core..iter..adapters..chain..Chain$LT$core..iter..adapters..chain..Chain$LT$core..iter..adapters..chain..Chain$LT$core..iter..adapters..chain..Chain$LT$core..iter..adapters..chain..Chain$LT$core..iter..sources..empty..Empty$LT$alloc..string..String$GT$$C$core..option..IntoIter$LT$alloc..string..String$GT$$GT$$C$core..option..IntoIter$LT$alloc..string..String$GT$$GT$$C$core..option..IntoIter$LT$alloc..string..String$GT$$GT$$C$core..option..IntoIter$LT$alloc..string..String$GT$$GT$$C$core..iter..adapters..map..Map$LT$core..slice..iter..Iter$LT$$LP$alloc..string..String$C$alloc..string..String$RP$$GT$$C$zip321..TransactionRequest..to_uri..payment_params..$u7b$$u7b$closure$u7d$$u7d$$GT$$GT$$GT$..$u7b$$u7b$closure$u7d$$u7d$$GT$17h79c8d77652735e97E', symObjAddr: 0x20C4, symBinAddr: 0x4FA54, symSize: 0x24 }
  - { offset: 0x150965, size: 0x8, addend: 0x0, symName: '__ZN4core3ptr82drop_in_place$LT$alloc..raw_vec..RawVec$LT$$LP$usize$C$zip321..Payment$RP$$GT$$GT$17h7771f1902cea86ceE', symObjAddr: 0x20E8, symBinAddr: 0x4FA78, symSize: 0x24 }
  - { offset: 0x150994, size: 0x8, addend: 0x0, symName: '__ZN4core3ptr84drop_in_place$LT$$u5b$$LP$alloc..string..String$C$alloc..string..String$RP$$u5d$$GT$17he650c8812177540cE', symObjAddr: 0x210C, symBinAddr: 0x4FA9C, symSize: 0xC4 }
  - { offset: 0x1509C3, size: 0x8, addend: 0x0, symName: '__ZN4core3ptr87drop_in_place$LT$alloc..vec..into_iter..IntoIter$LT$zip321..parse..IndexedParam$GT$$GT$17h5e6c7250fd07014dE', symObjAddr: 0x21D0, symBinAddr: 0x4FB60, symSize: 0x24 }
  - { offset: 0x1509F2, size: 0x8, addend: 0x0, symName: '__ZN4core3ptr919drop_in_place$LT$core..iter..adapters..chain..Chain$LT$core..iter..adapters..chain..Chain$LT$core..iter..sources..empty..Empty$LT$alloc..string..String$GT$$C$core..option..IntoIter$LT$alloc..string..String$GT$$GT$$C$core..iter..adapters..chain..Chain$LT$core..iter..adapters..chain..Chain$LT$core..iter..adapters..chain..Chain$LT$core..iter..adapters..chain..Chain$LT$core..iter..adapters..chain..Chain$LT$core..iter..sources..empty..Empty$LT$alloc..string..String$GT$$C$core..option..IntoIter$LT$alloc..string..String$GT$$GT$$C$core..option..IntoIter$LT$alloc..string..String$GT$$GT$$C$core..option..IntoIter$LT$alloc..string..String$GT$$GT$$C$core..option..IntoIter$LT$alloc..string..String$GT$$GT$$C$core..iter..adapters..map..Map$LT$core..slice..iter..Iter$LT$$LP$alloc..string..String$C$alloc..string..String$RP$$GT$$C$zip321..TransactionRequest..to_uri..payment_params..$u7b$$u7b$closure$u7d$$u7d$$GT$$GT$$GT$$GT$17he2d8440d93f2f540E', symObjAddr: 0x21F4, symBinAddr: 0x4FB84, symSize: 0x5C }
  - { offset: 0x150A21, size: 0x8, addend: 0x0, symName: '__ZN4core3ptr91drop_in_place$LT$alloc..vec..into_iter..IntoIter$LT$$LP$usize$C$zip321..Payment$RP$$GT$$GT$17h6cf78139603cf60eE', symObjAddr: 0x2250, symBinAddr: 0x4FBE0, symSize: 0x24 }
  - { offset: 0x150A50, size: 0x8, addend: 0x0, symName: '__ZN4core3ptr928drop_in_place$LT$core..iter..traits..iterator..Iterator..for_each..call$LT$alloc..string..String$C$alloc..vec..Vec$LT$alloc..string..String$GT$..extend_trusted$LT$core..iter..adapters..chain..Chain$LT$core..iter..adapters..chain..Chain$LT$core..iter..adapters..chain..Chain$LT$core..iter..adapters..chain..Chain$LT$core..iter..adapters..chain..Chain$LT$core..iter..sources..empty..Empty$LT$alloc..string..String$GT$$C$core..option..IntoIter$LT$alloc..string..String$GT$$GT$$C$core..option..IntoIter$LT$alloc..string..String$GT$$GT$$C$core..option..IntoIter$LT$alloc..string..String$GT$$GT$$C$core..option..IntoIter$LT$alloc..string..String$GT$$GT$$C$core..iter..adapters..map..Map$LT$core..slice..iter..Iter$LT$$LP$alloc..string..String$C$alloc..string..String$RP$$GT$$C$zip321..TransactionRequest..to_uri..payment_params..$u7b$$u7b$closure$u7d$$u7d$$GT$$GT$$GT$..$u7b$$u7b$closure$u7d$$u7d$$GT$..$u7b$$u7b$closure$u7d$$u7d$$GT$17ha51f97e77e1649e2E', symObjAddr: 0x2274, symBinAddr: 0x4FC04, symSize: 0x24 }
  - { offset: 0x150A7F, size: 0x8, addend: 0x0, symName: '__ZN4core3ptr92drop_in_place$LT$alloc..collections..btree..map..BTreeMap$LT$usize$C$zip321..Payment$GT$$GT$17hef618cccad8f3c3dE', symObjAddr: 0x2298, symBinAddr: 0x4FC28, symSize: 0x24 }
  - { offset: 0x150AAE, size: 0x8, addend: 0x0, symName: '__ZN4core3ptr92drop_in_place$LT$alloc..collections..btree..map..IntoIter$LT$usize$C$zip321..Payment$GT$$GT$17h9b0b0da4c2dea680E', symObjAddr: 0x22BC, symBinAddr: 0x4FC4C, symSize: 0x24 }
  - { offset: 0x150ADD, size: 0x8, addend: 0x0, symName: '__ZN4core3ptr92drop_in_place$LT$core..option..Option$LT$alloc..vec..Vec$LT$zip321..parse..Param$GT$$GT$$GT$17h5a5247a3108eb1efE', symObjAddr: 0x22E0, symBinAddr: 0x4FC70, symSize: 0x48 }
  - { offset: 0x150B0C, size: 0x8, addend: 0x0, symName: '__ZN4core3ptr947drop_in_place$LT$core..option..Option$LT$core..iter..adapters..chain..Chain$LT$core..iter..adapters..chain..Chain$LT$core..iter..sources..empty..Empty$LT$alloc..string..String$GT$$C$core..option..IntoIter$LT$alloc..string..String$GT$$GT$$C$core..iter..adapters..chain..Chain$LT$core..iter..adapters..chain..Chain$LT$core..iter..adapters..chain..Chain$LT$core..iter..adapters..chain..Chain$LT$core..iter..adapters..chain..Chain$LT$core..iter..sources..empty..Empty$LT$alloc..string..String$GT$$C$core..option..IntoIter$LT$alloc..string..String$GT$$GT$$C$core..option..IntoIter$LT$alloc..string..String$GT$$GT$$C$core..option..IntoIter$LT$alloc..string..String$GT$$GT$$C$core..option..IntoIter$LT$alloc..string..String$GT$$GT$$C$core..iter..adapters..map..Map$LT$core..slice..iter..Iter$LT$$LP$alloc..string..String$C$alloc..string..String$RP$$GT$$C$zip321..TransactionRequest..to_uri..payment_params..$u7b$$u7b$closure$u7d$$u7d$$GT$$GT$$GT$$GT$$GT$17h881d6cadd64c00e8E', symObjAddr: 0x2328, symBinAddr: 0x4FCB8, symSize: 0x44 }
  - { offset: 0x150B3B, size: 0x8, addend: 0x0, symName: '__ZN4core3ptr96drop_in_place$LT$core..ops..control_flow..ControlFlow$LT$$LP$usize$C$zip321..Payment$RP$$GT$$GT$17h272b9335229b2c25E', symObjAddr: 0x236C, symBinAddr: 0x4FCFC, symSize: 0x48 }
  - { offset: 0x150B6A, size: 0x8, addend: 0x0, symName: '__ZN4core3ptr96drop_in_place$LT$core..result..Result$LT$core..convert..Infallible$C$zip321..Zip321Error$GT$$GT$17h345e77828ccc33beE', symObjAddr: 0x23B4, symBinAddr: 0x4FD44, symSize: 0x30 }
  - { offset: 0x150B99, size: 0x8, addend: 0x0, symName: '__ZN4core3ptr97drop_in_place$LT$alloc..vec..Vec$LT$$LP$alloc..string..String$C$alloc..string..String$RP$$GT$$GT$17hd71f1f83cd5356c7E', symObjAddr: 0x23E4, symBinAddr: 0x4FD74, symSize: 0x5C }
  - { offset: 0x1520EB, size: 0x8, addend: 0x0, symName: '__ZN107_$LT$core..iter..adapters..fuse..Fuse$LT$I$GT$$u20$as$u20$core..iter..adapters..fuse..FuseImpl$LT$I$GT$$GT$4next17h961b6737c4f134cfE', symObjAddr: 0x0, symBinAddr: 0x4D9E0, symSize: 0x88 }
  - { offset: 0x1526B5, size: 0x8, addend: 0x0, symName: __ZN4core3ops8function5FnMut8call_mut17h13a31098ced48004E, symObjAddr: 0x4EC, symBinAddr: 0x4DECC, symSize: 0x30 }
  - { offset: 0x1526F9, size: 0x8, addend: 0x0, symName: __ZN4core3ops8function5FnMut8call_mut17h4c24457d8ff33972E, symObjAddr: 0x51C, symBinAddr: 0x4DEFC, symSize: 0x48 }
  - { offset: 0x15273D, size: 0x8, addend: 0x0, symName: __ZN4core3ops8function5FnMut8call_mut17h58d042e70c8d71aaE, symObjAddr: 0x564, symBinAddr: 0x4DF44, symSize: 0x30 }
  - { offset: 0x152781, size: 0x8, addend: 0x0, symName: __ZN4core3ops8function5FnMut8call_mut17h75132712ca6a549fE, symObjAddr: 0x594, symBinAddr: 0x4DF74, symSize: 0x30 }
  - { offset: 0x1527C5, size: 0x8, addend: 0x0, symName: __ZN4core3ops8function5FnMut8call_mut17h7525b43c7407a14bE, symObjAddr: 0x5C4, symBinAddr: 0x4DFA4, symSize: 0x30 }
  - { offset: 0x152809, size: 0x8, addend: 0x0, symName: __ZN4core3ops8function5FnMut8call_mut17h8476955ad3c4e6d4E, symObjAddr: 0x5F4, symBinAddr: 0x4DFD4, symSize: 0x30 }
  - { offset: 0x15284D, size: 0x8, addend: 0x0, symName: __ZN4core3ops8function5FnMut8call_mut17h9f9eabb9bbe064d6E, symObjAddr: 0x624, symBinAddr: 0x4E004, symSize: 0x48 }
  - { offset: 0x152891, size: 0x8, addend: 0x0, symName: __ZN4core3ops8function5FnMut8call_mut17ha5bf99bf2099e0bdE, symObjAddr: 0x66C, symBinAddr: 0x4E04C, symSize: 0x30 }
  - { offset: 0x1528D5, size: 0x8, addend: 0x0, symName: __ZN4core3ops8function5FnMut8call_mut17hd9448f7b42a37974E, symObjAddr: 0x69C, symBinAddr: 0x4E07C, symSize: 0x30 }
  - { offset: 0x152919, size: 0x8, addend: 0x0, symName: __ZN4core3ops8function5FnMut8call_mut17he5a195de4a0dc8c8E, symObjAddr: 0x6CC, symBinAddr: 0x4E0AC, symSize: 0x30 }
  - { offset: 0x152963, size: 0x8, addend: 0x0, symName: __ZN4core3ops8function6FnOnce9call_once17h0b84ea6ec227d6f7E, symObjAddr: 0x6FC, symBinAddr: 0x4E0DC, symSize: 0x84 }
  - { offset: 0x1529C4, size: 0x8, addend: 0x0, symName: __ZN4core3ops8function6FnOnce9call_once17h1529bda40520683aE, symObjAddr: 0x780, symBinAddr: 0x4E160, symSize: 0x24 }
  - { offset: 0x152A08, size: 0x8, addend: 0x0, symName: __ZN4core3ops8function6FnOnce9call_once17h2d104470629612ccE, symObjAddr: 0x7A4, symBinAddr: 0x4E184, symSize: 0x24 }
  - { offset: 0x152A4C, size: 0x8, addend: 0x0, symName: __ZN4core3ops8function6FnOnce9call_once17h36466857eb87da7aE, symObjAddr: 0x7C8, symBinAddr: 0x4E1A8, symSize: 0x24 }
  - { offset: 0x152A90, size: 0x8, addend: 0x0, symName: __ZN4core3ops8function6FnOnce9call_once17h3cddc52acc9b8722E, symObjAddr: 0x7EC, symBinAddr: 0x4E1CC, symSize: 0x24 }
  - { offset: 0x152AD4, size: 0x8, addend: 0x0, symName: __ZN4core3ops8function6FnOnce9call_once17h479a4289c94d542bE, symObjAddr: 0x810, symBinAddr: 0x4E1F0, symSize: 0x24 }
  - { offset: 0x152B18, size: 0x8, addend: 0x0, symName: __ZN4core3ops8function6FnOnce9call_once17h64ef7e81212fa66bE, symObjAddr: 0x834, symBinAddr: 0x4E214, symSize: 0x24 }
  - { offset: 0x152B5C, size: 0x8, addend: 0x0, symName: __ZN4core3ops8function6FnOnce9call_once17h6d6e963380b5479aE, symObjAddr: 0x858, symBinAddr: 0x4E238, symSize: 0x28 }
  - { offset: 0x152BA0, size: 0x8, addend: 0x0, symName: __ZN4core3ops8function6FnOnce9call_once17ha1260c17cd7b273eE, symObjAddr: 0x880, symBinAddr: 0x4E260, symSize: 0x6C }
  - { offset: 0x152C01, size: 0x8, addend: 0x0, symName: __ZN4core3ops8function6FnOnce9call_once17hb5cb32b6886e6f5aE, symObjAddr: 0x8EC, symBinAddr: 0x4E2CC, symSize: 0x24 }
  - { offset: 0x152C45, size: 0x8, addend: 0x0, symName: __ZN4core3ops8function6FnOnce9call_once17hb947b0a29c2af29eE, symObjAddr: 0x910, symBinAddr: 0x4E2F0, symSize: 0x24 }
  - { offset: 0x152C89, size: 0x8, addend: 0x0, symName: __ZN4core3ops8function6FnOnce9call_once17hbb7022f030aaa3c5E, symObjAddr: 0x934, symBinAddr: 0x4E314, symSize: 0x24 }
  - { offset: 0x152CCD, size: 0x8, addend: 0x0, symName: __ZN4core3ops8function6FnOnce9call_once17hcb941d29066f3b63E, symObjAddr: 0x958, symBinAddr: 0x4E338, symSize: 0x24 }
  - { offset: 0x152D11, size: 0x8, addend: 0x0, symName: __ZN4core3ops8function6FnOnce9call_once17hea013b740e8ad2daE, symObjAddr: 0x97C, symBinAddr: 0x4E35C, symSize: 0x28 }
  - { offset: 0x152DD7, size: 0x8, addend: 0x0, symName: '__ZN49_$LT$F$u20$as$u20$core..str..pattern..Pattern$GT$13into_searcher17h45463ec76fbebfe4E', symObjAddr: 0x448, symBinAddr: 0x4DE28, symSize: 0x50 }
  - { offset: 0x152E1D, size: 0x8, addend: 0x0, symName: '__ZN49_$LT$F$u20$as$u20$core..str..pattern..Pattern$GT$13into_searcher17h8e90595d64b62e96E', symObjAddr: 0x498, symBinAddr: 0x4DE78, symSize: 0x54 }
  - { offset: 0x152E69, size: 0x8, addend: 0x0, symName: '__ZN53_$LT$F$u20$as$u20$core..str..pattern..MultiCharEq$GT$7matches17h6688613ace77e6d3E', symObjAddr: 0x2EEC, symBinAddr: 0x5087C, symSize: 0x28 }
  - { offset: 0x152EAF, size: 0x8, addend: 0x0, symName: '__ZN53_$LT$F$u20$as$u20$core..str..pattern..MultiCharEq$GT$7matches17hadf3ec8175c369b1E', symObjAddr: 0x2F14, symBinAddr: 0x508A4, symSize: 0x28 }
  - { offset: 0x153043, size: 0x8, addend: 0x0, symName: __ZN4core4char7convert18from_u32_unchecked18precondition_check17h7d18a504b62af9a0E, symObjAddr: 0x2440, symBinAddr: 0x4FDD0, symSize: 0x104 }
  - { offset: 0x15314D, size: 0x8, addend: 0x0, symName: __ZN4core4char7methods15encode_utf8_raw17hd510df552aea6d95E, symObjAddr: 0x2544, symBinAddr: 0x4FED4, symSize: 0x110 }
  - { offset: 0x153234, size: 0x8, addend: 0x0, symName: '__ZN4core4char7methods22_$LT$impl$u20$char$GT$14is_ascii_digit17h178800d07bafdd2cE', symObjAddr: 0x2654, symBinAddr: 0x4FFE4, symSize: 0x64 }
  - { offset: 0x153262, size: 0x8, addend: 0x0, symName: '__ZN4core4char7methods22_$LT$impl$u20$char$GT$19is_ascii_alphabetic17h5d64e281ae33133bE', symObjAddr: 0x26B8, symBinAddr: 0x50048, symSize: 0x9C }
  - { offset: 0x153290, size: 0x8, addend: 0x0, symName: '__ZN4core4char7methods22_$LT$impl$u20$char$GT$8len_utf817h1c7c61fd7e06648fE', symObjAddr: 0x2754, symBinAddr: 0x500E4, symSize: 0x20 }
  - { offset: 0x1532BE, size: 0x8, addend: 0x0, symName: '__ZN4core4char7methods22_$LT$impl$u20$char$GT$8to_digit17h5b202d6ea5a8b30bE', symObjAddr: 0x2774, symBinAddr: 0x50104, symSize: 0x14C }
  - { offset: 0x15338A, size: 0x8, addend: 0x0, symName: __ZN4core4char7methods25encode_utf8_raw_unchecked17he8b26554eef4c554E, symObjAddr: 0x28C0, symBinAddr: 0x50250, symSize: 0x188 }
  - { offset: 0x153534, size: 0x8, addend: 0x0, symName: __ZN4core4char7methods8len_utf817h893ec86304dfbeebE, symObjAddr: 0x2A48, symBinAddr: 0x503D8, symSize: 0x74 }
  - { offset: 0x153E24, size: 0x8, addend: 0x0, symName: '__ZN4core5slice29_$LT$impl$u20$$u5b$T$u5d$$GT$4iter17ha0f634ac2c0e00c3E', symObjAddr: 0x2ABC, symBinAddr: 0x5044C, symSize: 0x28 }
  - { offset: 0x153EBD, size: 0x8, addend: 0x0, symName: __ZN4core5slice3raw14from_raw_parts18precondition_check17h70108701e1da58d7E, symObjAddr: 0x2AE4, symBinAddr: 0x50474, symSize: 0x1D8 }
  - { offset: 0x15405B, size: 0x8, addend: 0x0, symName: __ZN4core5slice3raw18from_raw_parts_mut18precondition_check17h565c0734f08f89e2E, symObjAddr: 0x2CBC, symBinAddr: 0x5064C, symSize: 0x1D8 }
  - { offset: 0x154253, size: 0x8, addend: 0x0, symName: '__ZN4core5slice4iter87_$LT$impl$u20$core..iter..traits..collect..IntoIterator$u20$for$u20$$RF$$u5b$T$u5d$$GT$9into_iter17hc5de2059569b7b7aE', symObjAddr: 0x2E94, symBinAddr: 0x50824, symSize: 0x58 }
  - { offset: 0x1548FA, size: 0x8, addend: 0x0, symName: __ZN3nom5bytes8complete3tag17h5620cbddbb457399E, symObjAddr: 0x134, symBinAddr: 0x4DB14, symSize: 0x18 }
  - { offset: 0x154946, size: 0x8, addend: 0x0, symName: '__ZN3nom5bytes8complete3tag28_$u7b$$u7b$closure$u7d$$u7d$17h7d3f2468709fc595E', symObjAddr: 0x14C, symBinAddr: 0x4DB2C, symSize: 0x26C }
  - { offset: 0x154AB7, size: 0x8, addend: 0x0, symName: __ZN3nom5bytes8complete9take_till17h3929d64004c6669dE, symObjAddr: 0x3B8, symBinAddr: 0x4DD98, symSize: 0xC }
  - { offset: 0x154B01, size: 0x8, addend: 0x0, symName: '__ZN3nom5bytes8complete9take_till28_$u7b$$u7b$closure$u7d$$u7d$17hb3c0341d19b815c6E', symObjAddr: 0x3C4, symBinAddr: 0x4DDA4, symSize: 0x58 }
  - { offset: 0x154B60, size: 0x8, addend: 0x0, symName: '__ZN3nom5bytes8complete9take_till28_$u7b$$u7b$closure$u7d$$u7d$28_$u7b$$u7b$closure$u7d$$u7d$17hf05c8d733c4fe4a2E', symObjAddr: 0x41C, symBinAddr: 0x4DDFC, symSize: 0x2C }
  - { offset: 0x154BEF, size: 0x8, addend: 0x0, symName: '__ZN60_$LT$F$u20$as$u20$nom..internal..Parser$LT$I$C$O$C$E$GT$$GT$5parse17h5a4f1bb072063fa5E', symObjAddr: 0x3554, symBinAddr: 0x50EE4, symSize: 0x30 }
  - { offset: 0x154C50, size: 0x8, addend: 0x0, symName: '__ZN60_$LT$F$u20$as$u20$nom..internal..Parser$LT$I$C$O$C$E$GT$$GT$5parse17h6dfbba952f018d58E', symObjAddr: 0x3584, symBinAddr: 0x50F14, symSize: 0x30 }
  - { offset: 0x154CB1, size: 0x8, addend: 0x0, symName: '__ZN60_$LT$F$u20$as$u20$nom..internal..Parser$LT$I$C$O$C$E$GT$$GT$5parse17h9e6c7166feb3aef4E', symObjAddr: 0x35B4, symBinAddr: 0x50F44, symSize: 0x30 }
  - { offset: 0x154D12, size: 0x8, addend: 0x0, symName: '__ZN60_$LT$F$u20$as$u20$nom..internal..Parser$LT$I$C$O$C$E$GT$$GT$5parse17ha465e45ebec1ace6E', symObjAddr: 0x35E4, symBinAddr: 0x50F74, symSize: 0x30 }
  - { offset: 0x154D73, size: 0x8, addend: 0x0, symName: '__ZN60_$LT$F$u20$as$u20$nom..internal..Parser$LT$I$C$O$C$E$GT$$GT$5parse17hd87e7655533f4edeE', symObjAddr: 0x3614, symBinAddr: 0x50FA4, symSize: 0x30 }
  - { offset: 0x154DD4, size: 0x8, addend: 0x0, symName: '__ZN60_$LT$F$u20$as$u20$nom..internal..Parser$LT$I$C$O$C$E$GT$$GT$5parse17hd8a3519dcd8be952E', symObjAddr: 0x3644, symBinAddr: 0x50FD4, symSize: 0x30 }
  - { offset: 0x155123, size: 0x8, addend: 0x0, symName: '__ZN57_$LT$zip321..parse..Param$u20$as$u20$core..fmt..Debug$GT$3fmt17h67cfb8c731ac66f2E', symObjAddr: 0x2F3C, symBinAddr: 0x508CC, symSize: 0x200 }
  - { offset: 0x155225, size: 0x8, addend: 0x0, symName: __ZN6zip3215parse10to_payment17h96056266a96696caE, symObjAddr: 0x3674, symBinAddr: 0x51004, symSize: 0x844 }
  - { offset: 0x155383, size: 0x8, addend: 0x0, symName: '__ZN6zip3215parse10to_payment28_$u7b$$u7b$closure$u7d$$u7d$17hdaa3c96ca6237a44E', symObjAddr: 0x3EB8, symBinAddr: 0x51848, symSize: 0x74 }
  - { offset: 0x155400, size: 0x8, addend: 0x0, symName: __ZN6zip3215parse10zcashparam17h998ca6f0b376f6d9E, symObjAddr: 0x3F2C, symBinAddr: 0x518BC, symSize: 0x64 }
  - { offset: 0x15542E, size: 0x8, addend: 0x0, symName: __ZN6zip3215parse11alphanum_or17h905e62dbe0202847E, symObjAddr: 0x3F90, symBinAddr: 0x51920, symSize: 0x18 }
  - { offset: 0x155461, size: 0x8, addend: 0x0, symName: '__ZN6zip3215parse11alphanum_or28_$u7b$$u7b$closure$u7d$$u7d$17h31851b6478d4eeceE', symObjAddr: 0x3FA8, symBinAddr: 0x51938, symSize: 0x3C }
  - { offset: 0x1554A5, size: 0x8, addend: 0x0, symName: '__ZN6zip3215parse11alphanum_or28_$u7b$$u7b$closure$u7d$$u7d$28_$u7b$$u7b$closure$u7d$$u7d$17hd4c165bc603bc363E', symObjAddr: 0x3FE4, symBinAddr: 0x51974, symSize: 0x78 }
  - { offset: 0x15552B, size: 0x8, addend: 0x0, symName: __ZN6zip3215parse12indexed_name17h6ab17f25358e2277E, symObjAddr: 0x405C, symBinAddr: 0x519EC, symSize: 0xD0 }
  - { offset: 0x15557C, size: 0x8, addend: 0x0, symName: '__ZN6zip3215parse12indexed_name28_$u7b$$u7b$closure$u7d$$u7d$17hcd7baab4bac31f1aE', symObjAddr: 0x412C, symBinAddr: 0x51ABC, symSize: 0x70 }
  - { offset: 0x1555BD, size: 0x8, addend: 0x0, symName: __ZN6zip3215parse12parse_amount17h8192acc6370f4e57E, symObjAddr: 0x419C, symBinAddr: 0x51B2C, symSize: 0x70 }
  - { offset: 0x1555F0, size: 0x8, addend: 0x0, symName: '__ZN6zip3215parse12parse_amount28_$u7b$$u7b$closure$u7d$$u7d$17h5ba45a1d9d578b23E', symObjAddr: 0x420C, symBinAddr: 0x51B9C, symSize: 0x70 }
  - { offset: 0x155629, size: 0x8, addend: 0x0, symName: '__ZN6zip3215parse12parse_amount28_$u7b$$u7b$closure$u7d$$u7d$17h6ce40f662a8b7c03E', symObjAddr: 0x427C, symBinAddr: 0x51C0C, symSize: 0x2E0 }
  - { offset: 0x155791, size: 0x8, addend: 0x0, symName: '__ZN6zip3215parse12parse_amount28_$u7b$$u7b$closure$u7d$$u7d$28_$u7b$$u7b$closure$u7d$$u7d$17h8c196920a86cab16E', symObjAddr: 0x455C, symBinAddr: 0x51EEC, symSize: 0x28 }
  - { offset: 0x1557CA, size: 0x8, addend: 0x0, symName: '__ZN6zip3215parse12parse_amount28_$u7b$$u7b$closure$u7d$$u7d$28_$u7b$$u7b$closure$u7d$$u7d$17hb357cf6fe244c571E', symObjAddr: 0x4584, symBinAddr: 0x51F14, symSize: 0x34 }
  - { offset: 0x155809, size: 0x8, addend: 0x0, symName: '__ZN6zip3215parse12parse_amount28_$u7b$$u7b$closure$u7d$$u7d$28_$u7b$$u7b$closure$u7d$$u7d$17hddfa5e17f9921019E', symObjAddr: 0x45B8, symBinAddr: 0x51F48, symSize: 0x9C }
  - { offset: 0x1558B2, size: 0x8, addend: 0x0, symName: '__ZN6zip3215parse12parse_amount28_$u7b$$u7b$closure$u7d$$u7d$28_$u7b$$u7b$closure$u7d$$u7d$17hec5f25ace966cfe2E', symObjAddr: 0x4654, symBinAddr: 0x51FE4, symSize: 0x28 }
  - { offset: 0x155909, size: 0x8, addend: 0x0, symName: __ZN6zip3215parse16to_indexed_param17h74916713bfaa2f29E, symObjAddr: 0x467C, symBinAddr: 0x5200C, symSize: 0x598 }
  - { offset: 0x155AA9, size: 0x8, addend: 0x0, symName: '__ZN6zip3215parse16to_indexed_param28_$u7b$$u7b$closure$u7d$$u7d$17h23e7d6b7f26d3268E', symObjAddr: 0x4C14, symBinAddr: 0x525A4, symSize: 0x1C }
  - { offset: 0x155AE3, size: 0x8, addend: 0x0, symName: '__ZN6zip3215parse16to_indexed_param28_$u7b$$u7b$closure$u7d$$u7d$17h77987e0a90e1b044E', symObjAddr: 0x4C30, symBinAddr: 0x525C0, symSize: 0x1C }
  - { offset: 0x155B1D, size: 0x8, addend: 0x0, symName: '__ZN6zip3215parse16to_indexed_param28_$u7b$$u7b$closure$u7d$$u7d$17h938d7c39d5fe4711E', symObjAddr: 0x4C4C, symBinAddr: 0x525DC, symSize: 0x28 }
  - { offset: 0x155B56, size: 0x8, addend: 0x0, symName: '__ZN6zip3215parse16to_indexed_param28_$u7b$$u7b$closure$u7d$$u7d$17h9dd4522b141e309dE', symObjAddr: 0x4C74, symBinAddr: 0x52604, symSize: 0x1C }
  - { offset: 0x155B90, size: 0x8, addend: 0x0, symName: '__ZN6zip3215parse16to_indexed_param28_$u7b$$u7b$closure$u7d$$u7d$17ha3b8ae37dab06b6cE', symObjAddr: 0x4C90, symBinAddr: 0x52620, symSize: 0x44 }
  - { offset: 0x155BCA, size: 0x8, addend: 0x0, symName: '__ZN6zip3215parse16to_indexed_param28_$u7b$$u7b$closure$u7d$$u7d$17ha84afff99c58703dE', symObjAddr: 0x4CD4, symBinAddr: 0x52664, symSize: 0x40 }
  - { offset: 0x155C04, size: 0x8, addend: 0x0, symName: '__ZN6zip3215parse16to_indexed_param28_$u7b$$u7b$closure$u7d$$u7d$17hb3ce079ee39bf42aE', symObjAddr: 0x4D14, symBinAddr: 0x526A4, symSize: 0x24 }
  - { offset: 0x155C57, size: 0x8, addend: 0x0, symName: '__ZN6zip3215parse16to_indexed_param28_$u7b$$u7b$closure$u7d$$u7d$17hd24cefda0eaf760aE', symObjAddr: 0x4D38, symBinAddr: 0x526C8, symSize: 0xD0 }
  - { offset: 0x155CEA, size: 0x8, addend: 0x0, symName: '__ZN6zip3215parse16to_indexed_param28_$u7b$$u7b$closure$u7d$$u7d$17hd6e1fecd45570fd1E', symObjAddr: 0x4E08, symBinAddr: 0x52798, symSize: 0xE0 }
  - { offset: 0x155D2A, size: 0x8, addend: 0x0, symName: '__ZN6zip3215parse16to_indexed_param28_$u7b$$u7b$closure$u7d$$u7d$17hd945e7f0d02a2e5fE', symObjAddr: 0x4EE8, symBinAddr: 0x52878, symSize: 0x1C }
  - { offset: 0x155D64, size: 0x8, addend: 0x0, symName: '__ZN6zip3215parse16to_indexed_param28_$u7b$$u7b$closure$u7d$$u7d$17hec23a8b99fa033d2E', symObjAddr: 0x4F04, symBinAddr: 0x52894, symSize: 0xA4 }
  - { offset: 0x155E1A, size: 0x8, addend: 0x0, symName: __ZN6zip3215parse19has_duplicate_param17h4a02323025f89cefE, symObjAddr: 0x4FA8, symBinAddr: 0x52938, symSize: 0x27C }
  - { offset: 0x155EDD, size: 0x8, addend: 0x0, symName: __ZN6zip3215parse5Param4Addr17h3959ee1123808acaE, symObjAddr: 0x5224, symBinAddr: 0x52BB4, symSize: 0x24 }
  - { offset: 0x155F0D, size: 0x8, addend: 0x0, symName: __ZN6zip3215parse5Param4Memo17h8896991852720713E, symObjAddr: 0x5248, symBinAddr: 0x52BD8, symSize: 0x28 }
  - { offset: 0x155F39, size: 0x8, addend: 0x0, symName: __ZN6zip3215parse6qchars17h1d408ee45771839dE, symObjAddr: 0x53B0, symBinAddr: 0x52C00, symSize: 0x64 }
  - { offset: 0x155F67, size: 0x8, addend: 0x0, symName: __ZN6zip3215parse9lead_addr17hf55b4da7c7653a46E, symObjAddr: 0x5414, symBinAddr: 0x52C64, symSize: 0x80 }
  - { offset: 0x155F9A, size: 0x8, addend: 0x0, symName: '__ZN6zip3215parse9lead_addr28_$u7b$$u7b$closure$u7d$$u7d$17h40885e945658bdbeE', symObjAddr: 0x5494, symBinAddr: 0x52CE4, symSize: 0xAC }
  - { offset: 0x155FD3, size: 0x8, addend: 0x0, symName: '__ZN6zip3215parse9lead_addr28_$u7b$$u7b$closure$u7d$$u7d$17h8e5e6a84bc71456dE', symObjAddr: 0x5540, symBinAddr: 0x52D90, symSize: 0x1C }
  - { offset: 0x156011, size: 0x8, addend: 0x0, symName: '__ZN6zip3215parse9lead_addr28_$u7b$$u7b$closure$u7d$$u7d$28_$u7b$$u7b$closure$u7d$$u7d$17h6edd1a9a7bd6e648E', symObjAddr: 0x555C, symBinAddr: 0x52DAC, symSize: 0xB8 }
  - { offset: 0x156081, size: 0x8, addend: 0x0, symName: __ZN6zip3215parse9namechars17he5964a6ef0705f26E, symObjAddr: 0x5614, symBinAddr: 0x52E64, symSize: 0x64 }
  - { offset: 0x156332, size: 0x8, addend: 0x0, symName: __ZN16percent_encoding14percent_decode17h09efb01b5f4fd18dE, symObjAddr: 0xA4, symBinAddr: 0x4DA84, symSize: 0x28 }
  - { offset: 0x15635E, size: 0x8, addend: 0x0, symName: __ZN16percent_encoding14percent_encode17h839e6be5a03ab259E, symObjAddr: 0xCC, symBinAddr: 0x4DAAC, symSize: 0x2C }
  - { offset: 0x156398, size: 0x8, addend: 0x0, symName: __ZN16percent_encoding19utf8_percent_encode17hfd8bdd9e16224c5cE, symObjAddr: 0xF8, symBinAddr: 0x4DAD8, symSize: 0x3C }
  - { offset: 0x15775E, size: 0x8, addend: 0x0, symName: '__ZN101_$LT$core..iter..sources..empty..Empty$LT$T$GT$$u20$as$u20$core..iter..traits..iterator..Iterator$GT$4next17h6391e00237b559dbE', symObjAddr: 0x0, symBinAddr: 0x52ED4, symSize: 0x1C }
  - { offset: 0x157956, size: 0x8, addend: 0x0, symName: __ZN3nom8sequence14separated_pair17h856e994f85abe4e9E, symObjAddr: 0x288, symBinAddr: 0x5315C, symSize: 0x10 }
  - { offset: 0x1579EB, size: 0x8, addend: 0x0, symName: '__ZN3nom8sequence14separated_pair28_$u7b$$u7b$closure$u7d$$u7d$17h7caa9d90aa6de501E', symObjAddr: 0x298, symBinAddr: 0x5316C, symSize: 0x24C }
  - { offset: 0x157B2F, size: 0x8, addend: 0x0, symName: '__ZN3nom8sequence14separated_pair28_$u7b$$u7b$closure$u7d$$u7d$28_$u7b$$u7b$closure$u7d$$u7d$17hf29963f5df60554aE', symObjAddr: 0x4E4, symBinAddr: 0x533B8, symSize: 0x7C }
  - { offset: 0x157C07, size: 0x8, addend: 0x0, symName: __ZN3nom8sequence5tuple17h027ac6e466a0f6d5E, symObjAddr: 0x560, symBinAddr: 0x53434, symSize: 0x18 }
  - { offset: 0x157C59, size: 0x8, addend: 0x0, symName: __ZN3nom8sequence5tuple17h125f5d25cdb4135fE, symObjAddr: 0x578, symBinAddr: 0x5344C, symSize: 0x18 }
  - { offset: 0x157CAB, size: 0x8, addend: 0x0, symName: __ZN3nom8sequence5tuple17h1cccd50ca3b54176E, symObjAddr: 0x590, symBinAddr: 0x53464, symSize: 0x10 }
  - { offset: 0x157CFD, size: 0x8, addend: 0x0, symName: __ZN3nom8sequence5tuple17heeef97e47af10225E, symObjAddr: 0x5A0, symBinAddr: 0x53474, symSize: 0xC }
  - { offset: 0x157D50, size: 0x8, addend: 0x0, symName: '__ZN3nom8sequence5tuple28_$u7b$$u7b$closure$u7d$$u7d$17h1c2de00560bc74e0E', symObjAddr: 0x5AC, symBinAddr: 0x53480, symSize: 0x30 }
  - { offset: 0x157DB3, size: 0x8, addend: 0x0, symName: '__ZN3nom8sequence5tuple28_$u7b$$u7b$closure$u7d$$u7d$17h4befcc6419340b27E', symObjAddr: 0x5DC, symBinAddr: 0x534B0, symSize: 0x30 }
  - { offset: 0x157E16, size: 0x8, addend: 0x0, symName: '__ZN3nom8sequence5tuple28_$u7b$$u7b$closure$u7d$$u7d$17h5fe1e4faa843d3cfE', symObjAddr: 0x60C, symBinAddr: 0x534E0, symSize: 0x30 }
  - { offset: 0x157E79, size: 0x8, addend: 0x0, symName: '__ZN3nom8sequence5tuple28_$u7b$$u7b$closure$u7d$$u7d$17ha3e5a9a60ee1d7a2E', symObjAddr: 0x63C, symBinAddr: 0x53510, symSize: 0x30 }
  - { offset: 0x157F29, size: 0x8, addend: 0x0, symName: __ZN3nom8sequence8preceded17h07275f1f6ed9dd5aE, symObjAddr: 0x66C, symBinAddr: 0x53540, symSize: 0x18 }
  - { offset: 0x157F99, size: 0x8, addend: 0x0, symName: __ZN3nom8sequence8preceded17h355951a22981a137E, symObjAddr: 0x684, symBinAddr: 0x53558, symSize: 0x10 }
  - { offset: 0x158009, size: 0x8, addend: 0x0, symName: __ZN3nom8sequence8preceded17h6a624c0c6ef63f9cE, symObjAddr: 0x694, symBinAddr: 0x53568, symSize: 0x14 }
  - { offset: 0x158079, size: 0x8, addend: 0x0, symName: __ZN3nom8sequence8preceded17he6e262ef90df6ba9E, symObjAddr: 0x6A8, symBinAddr: 0x5357C, symSize: 0x28 }
  - { offset: 0x1580EE, size: 0x8, addend: 0x0, symName: '__ZN3nom8sequence8preceded28_$u7b$$u7b$closure$u7d$$u7d$17h0823b9700f1f275fE', symObjAddr: 0x6D0, symBinAddr: 0x535A4, symSize: 0x124 }
  - { offset: 0x1581CD, size: 0x8, addend: 0x0, symName: '__ZN3nom8sequence8preceded28_$u7b$$u7b$closure$u7d$$u7d$17h094229a08aeb98d2E', symObjAddr: 0x7F4, symBinAddr: 0x536C8, symSize: 0x128 }
  - { offset: 0x1582AC, size: 0x8, addend: 0x0, symName: '__ZN3nom8sequence8preceded28_$u7b$$u7b$closure$u7d$$u7d$17hd43e7ea8d96c5458E', symObjAddr: 0x91C, symBinAddr: 0x537F0, symSize: 0x128 }
  - { offset: 0x15838B, size: 0x8, addend: 0x0, symName: '__ZN3nom8sequence8preceded28_$u7b$$u7b$closure$u7d$$u7d$17hf1b173c2f48af413E', symObjAddr: 0xA44, symBinAddr: 0x53918, symSize: 0x128 }
  - { offset: 0x1584EE, size: 0x8, addend: 0x0, symName: '__ZN60_$LT$F$u20$as$u20$nom..internal..Parser$LT$I$C$O$C$E$GT$$GT$5parse17h3da58e76e1216c9bE', symObjAddr: 0x1D9C, symBinAddr: 0x54C70, symSize: 0x30 }
  - { offset: 0x15854F, size: 0x8, addend: 0x0, symName: '__ZN60_$LT$F$u20$as$u20$nom..internal..Parser$LT$I$C$O$C$E$GT$$GT$5parse17h4ce7d2054d3351e5E', symObjAddr: 0x1DCC, symBinAddr: 0x54CA0, symSize: 0x30 }
  - { offset: 0x1585B0, size: 0x8, addend: 0x0, symName: '__ZN60_$LT$F$u20$as$u20$nom..internal..Parser$LT$I$C$O$C$E$GT$$GT$5parse17h77a1e0449bcfe944E', symObjAddr: 0x1DFC, symBinAddr: 0x54CD0, symSize: 0x30 }
  - { offset: 0x158611, size: 0x8, addend: 0x0, symName: '__ZN60_$LT$F$u20$as$u20$nom..internal..Parser$LT$I$C$O$C$E$GT$$GT$5parse17hae7254288e7ed468E', symObjAddr: 0x1E2C, symBinAddr: 0x54D00, symSize: 0x30 }
  - { offset: 0x158672, size: 0x8, addend: 0x0, symName: '__ZN60_$LT$F$u20$as$u20$nom..internal..Parser$LT$I$C$O$C$E$GT$$GT$5parse17hbe6da542dca9b4d1E', symObjAddr: 0x1E5C, symBinAddr: 0x54D30, symSize: 0x30 }
  - { offset: 0x1586D3, size: 0x8, addend: 0x0, symName: '__ZN60_$LT$F$u20$as$u20$nom..internal..Parser$LT$I$C$O$C$E$GT$$GT$5parse17hc4de928a2e0c9fcfE', symObjAddr: 0x1E8C, symBinAddr: 0x54D60, symSize: 0x30 }
  - { offset: 0x158734, size: 0x8, addend: 0x0, symName: '__ZN60_$LT$F$u20$as$u20$nom..internal..Parser$LT$I$C$O$C$E$GT$$GT$5parse17he46ba51999ba1935E', symObjAddr: 0x1EBC, symBinAddr: 0x54D90, symSize: 0x30 }
  - { offset: 0x158795, size: 0x8, addend: 0x0, symName: '__ZN60_$LT$F$u20$as$u20$nom..internal..Parser$LT$I$C$O$C$E$GT$$GT$5parse17hf44db8baa3ffcf81E', symObjAddr: 0x1EEC, symBinAddr: 0x54DC0, symSize: 0x30 }
  - { offset: 0x158C94, size: 0x8, addend: 0x0, symName: '__ZN101_$LT$core..iter..sources..empty..Empty$LT$T$GT$$u20$as$u20$core..iter..traits..iterator..Iterator$GT$4next17h6391e00237b559dbE', symObjAddr: 0x0, symBinAddr: 0x52ED4, symSize: 0x1C }
  - { offset: 0x158CC9, size: 0x8, addend: 0x0, symName: '__ZN101_$LT$core..iter..sources..empty..Empty$LT$T$GT$$u20$as$u20$core..iter..traits..iterator..Iterator$GT$9size_hint17h22d2f790e391a87fE', symObjAddr: 0x1C, symBinAddr: 0x52EF0, symSize: 0x34 }
  - { offset: 0x158D1D, size: 0x8, addend: 0x0, symName: __ZN4core4iter7sources5empty5empty17h2a0e33b980ed05c3E, symObjAddr: 0x18C8, symBinAddr: 0x5479C, symSize: 0x4 }
  - { offset: 0x158E43, size: 0x8, addend: 0x0, symName: __ZN4core4iter6traits8iterator8Iterator4fold17hb7099e66d99d525eE, symObjAddr: 0x179C, symBinAddr: 0x54670, symSize: 0xC0 }
  - { offset: 0x158ED2, size: 0x8, addend: 0x0, symName: __ZN4core4iter6traits8iterator8Iterator5chain17h68dde5bcca595793E, symObjAddr: 0x185C, symBinAddr: 0x54730, symSize: 0x6C }
  - { offset: 0x159A80, size: 0x8, addend: 0x0, symName: '__ZN4core3str21_$LT$impl$u20$str$GT$11starts_with17h8062692edae59b7aE', symObjAddr: 0xB6C, symBinAddr: 0x53A40, symSize: 0x4C }
  - { offset: 0x159AC6, size: 0x8, addend: 0x0, symName: '__ZN4core3str21_$LT$impl$u20$str$GT$13get_unchecked17h67ceacc43fe20ddfE', symObjAddr: 0xBB8, symBinAddr: 0x53A8C, symSize: 0x44 }
  - { offset: 0x159B0C, size: 0x8, addend: 0x0, symName: '__ZN4core3str21_$LT$impl$u20$str$GT$13get_unchecked17he7898c13fe0a69b3E', symObjAddr: 0xBFC, symBinAddr: 0x53AD0, symSize: 0x44 }
  - { offset: 0x159B7C, size: 0x8, addend: 0x0, symName: '__ZN4core3str21_$LT$impl$u20$str$GT$16split_at_checked17hf248feccd5671898E', symObjAddr: 0xC40, symBinAddr: 0x53B14, symSize: 0x100 }
  - { offset: 0x159C29, size: 0x8, addend: 0x0, symName: '__ZN4core3str21_$LT$impl$u20$str$GT$16trim_end_matches17h904fdad3047ecdbaE', symObjAddr: 0xD40, symBinAddr: 0x53C14, symSize: 0xF0 }
  - { offset: 0x159D9F, size: 0x8, addend: 0x0, symName: '__ZN4core3str21_$LT$impl$u20$str$GT$18split_at_unchecked17h84b145c6b075600fE', symObjAddr: 0xE30, symBinAddr: 0x53D04, symSize: 0xE4 }
  - { offset: 0x159F6F, size: 0x8, addend: 0x0, symName: '__ZN4core3str21_$LT$impl$u20$str$GT$3len17hf4274d81fb8e2a6aE', symObjAddr: 0xF14, symBinAddr: 0x53DE8, symSize: 0x1C }
  - { offset: 0x159FC4, size: 0x8, addend: 0x0, symName: '__ZN4core3str21_$LT$impl$u20$str$GT$4find17h33ac4829a68f003fE', symObjAddr: 0xF30, symBinAddr: 0x53E04, symSize: 0xD0 }
  - { offset: 0x15A051, size: 0x8, addend: 0x0, symName: '__ZN4core3str21_$LT$impl$u20$str$GT$4find17h437c168c80faef43E', symObjAddr: 0x1000, symBinAddr: 0x53ED4, symSize: 0xCC }
  - { offset: 0x15A0DD, size: 0x8, addend: 0x0, symName: '__ZN4core3str21_$LT$impl$u20$str$GT$4find17h4fe1eb10fa07aff2E', symObjAddr: 0x10CC, symBinAddr: 0x53FA0, symSize: 0xAC }
  - { offset: 0x15A169, size: 0x8, addend: 0x0, symName: '__ZN4core3str21_$LT$impl$u20$str$GT$4find17h5335bad3e641c0c1E', symObjAddr: 0x1178, symBinAddr: 0x5404C, symSize: 0xAC }
  - { offset: 0x15A1F5, size: 0x8, addend: 0x0, symName: '__ZN4core3str21_$LT$impl$u20$str$GT$4find17h817cb7fed422594eE', symObjAddr: 0x1224, symBinAddr: 0x540F8, symSize: 0xAC }
  - { offset: 0x15A281, size: 0x8, addend: 0x0, symName: '__ZN4core3str21_$LT$impl$u20$str$GT$5chars17h8f37399ef908a226E', symObjAddr: 0x12D0, symBinAddr: 0x541A4, symSize: 0x20 }
  - { offset: 0x15A2EF, size: 0x8, addend: 0x0, symName: '__ZN4core3str21_$LT$impl$u20$str$GT$5parse17h8d05d919c718e326E', symObjAddr: 0x12F0, symBinAddr: 0x541C4, symSize: 0x28 }
  - { offset: 0x15A326, size: 0x8, addend: 0x0, symName: '__ZN4core3str21_$LT$impl$u20$str$GT$5parse17hbb1d415e6abc9eb3E', symObjAddr: 0x1318, symBinAddr: 0x541EC, symSize: 0x28 }
  - { offset: 0x15A35D, size: 0x8, addend: 0x0, symName: '__ZN4core3str21_$LT$impl$u20$str$GT$8contains17ha2d4fc7ffd9d7936E', symObjAddr: 0x1340, symBinAddr: 0x54214, symSize: 0x44 }
  - { offset: 0x15A3A3, size: 0x8, addend: 0x0, symName: '__ZN4core3str21_$LT$impl$u20$str$GT$8is_empty17h204c24ce6d50dc15E', symObjAddr: 0x1384, symBinAddr: 0x54258, symSize: 0x1C }
  - { offset: 0x15A3CF, size: 0x8, addend: 0x0, symName: '__ZN4core3str21_$LT$impl$u20$str$GT$8split_at17h733ecf2512387092E', symObjAddr: 0x13A0, symBinAddr: 0x54274, symSize: 0x84 }
  - { offset: 0x15A762, size: 0x8, addend: 0x0, symName: '__ZN4core3str74_$LT$impl$u20$core..convert..AsRef$LT$$u5b$u8$u5d$$GT$$u20$for$u20$str$GT$6as_ref17h2b86285be297ffeaE', symObjAddr: 0x1424, symBinAddr: 0x542F8, symSize: 0x18 }
  - { offset: 0x15A79B, size: 0x8, addend: 0x0, symName: __ZN4core3str7pattern15ReverseSearcher16next_reject_back17hc5e64317e9229873E, symObjAddr: 0x143C, symBinAddr: 0x54310, symSize: 0x90 }
  - { offset: 0x15A806, size: 0x8, addend: 0x0, symName: __ZN4core3str7pattern8Searcher10next_match17h0a31c9278572b774E, symObjAddr: 0x14CC, symBinAddr: 0x543A0, symSize: 0x90 }
  - { offset: 0x15A867, size: 0x8, addend: 0x0, symName: __ZN4core3str7pattern8Searcher10next_match17h0c61d43b0290c62fE, symObjAddr: 0x155C, symBinAddr: 0x54430, symSize: 0x90 }
  - { offset: 0x15A8C8, size: 0x8, addend: 0x0, symName: __ZN4core3str7pattern8Searcher10next_match17h221196e1dc6900dcE, symObjAddr: 0x15EC, symBinAddr: 0x544C0, symSize: 0x90 }
  - { offset: 0x15A929, size: 0x8, addend: 0x0, symName: __ZN4core3str7pattern8Searcher10next_match17h2b0a60dc67ed9295E, symObjAddr: 0x167C, symBinAddr: 0x54550, symSize: 0x90 }
  - { offset: 0x15A98A, size: 0x8, addend: 0x0, symName: __ZN4core3str7pattern8Searcher10next_match17hcb10fbc2d6abf697E, symObjAddr: 0x170C, symBinAddr: 0x545E0, symSize: 0x90 }
  - { offset: 0x15A9F1, size: 0x8, addend: 0x0, symName: '__ZN52_$LT$char$u20$as$u20$core..str..pattern..Pattern$GT$13into_searcher17hb10eae666219e589E', symObjAddr: 0x1954, symBinAddr: 0x54828, symSize: 0x114 }
  - { offset: 0x15AB09, size: 0x8, addend: 0x0, symName: '__ZN52_$LT$char$u20$as$u20$core..str..pattern..Pattern$GT$15is_contained_in17hfaec461282654dc0E', symObjAddr: 0x1A68, symBinAddr: 0x5493C, symSize: 0xD8 }
  - { offset: 0x15AC1A, size: 0x8, addend: 0x0, symName: '__ZN55_$LT$$RF$str$u20$as$u20$core..str..pattern..Pattern$GT$12is_prefix_of17h865dedf02148cff0E', symObjAddr: 0x1B40, symBinAddr: 0x54A14, symSize: 0x4C }
  - { offset: 0x15AC81, size: 0x8, addend: 0x0, symName: '__ZN55_$LT$$RF$str$u20$as$u20$core..str..pattern..Pattern$GT$15is_contained_in17h3a402fc6c219d800E', symObjAddr: 0x1B8C, symBinAddr: 0x54A60, symSize: 0x210 }
  - { offset: 0x15B07E, size: 0x8, addend: 0x0, symName: '__ZN80_$LT$core..str..pattern..StrSearcher$u20$as$u20$core..str..pattern..Searcher$GT$10next_match17h45c662b40a2f0c8fE', symObjAddr: 0x1F1C, symBinAddr: 0x54DF0, symSize: 0x148 }
  - { offset: 0x15B10A, size: 0x8, addend: 0x0, symName: '__ZN80_$LT$core..str..pattern..StrSearcher$u20$as$u20$core..str..pattern..Searcher$GT$4next17h729c67efd27ebda8E', symObjAddr: 0x2064, symBinAddr: 0x54F38, symSize: 0x454 }
  - { offset: 0x15B41D, size: 0x8, addend: 0x0, symName: '__ZN88_$LT$core..str..pattern..CharSearcher$u20$as$u20$core..str..pattern..ReverseSearcher$GT$9next_back17h281b48f58548e29dE', symObjAddr: 0x24B8, symBinAddr: 0x5538C, symSize: 0x1E4 }
  - { offset: 0x15B6F3, size: 0x8, addend: 0x0, symName: '__ZN95_$LT$core..str..pattern..MultiCharEqPattern$LT$C$GT$$u20$as$u20$core..str..pattern..Pattern$GT$13into_searcher17h03dafeabe7c6a86fE', symObjAddr: 0x269C, symBinAddr: 0x55570, symSize: 0xC0 }
  - { offset: 0x15B74F, size: 0x8, addend: 0x0, symName: '__ZN95_$LT$core..str..pattern..MultiCharEqPattern$LT$C$GT$$u20$as$u20$core..str..pattern..Pattern$GT$13into_searcher17h4c8d9a1acc742a38E', symObjAddr: 0x275C, symBinAddr: 0x55630, symSize: 0x90 }
  - { offset: 0x15B7AB, size: 0x8, addend: 0x0, symName: '__ZN95_$LT$core..str..pattern..MultiCharEqPattern$LT$C$GT$$u20$as$u20$core..str..pattern..Pattern$GT$13into_searcher17hdb15bcb5d448709dE', symObjAddr: 0x27EC, symBinAddr: 0x556C0, symSize: 0x90 }
  - { offset: 0x15B807, size: 0x8, addend: 0x0, symName: '__ZN95_$LT$core..str..pattern..MultiCharEqPattern$LT$C$GT$$u20$as$u20$core..str..pattern..Pattern$GT$13into_searcher17hdc38dc2cbeebd8a6E', symObjAddr: 0x287C, symBinAddr: 0x55750, symSize: 0x90 }
  - { offset: 0x15B863, size: 0x8, addend: 0x0, symName: '__ZN95_$LT$core..str..pattern..MultiCharEqPattern$LT$C$GT$$u20$as$u20$core..str..pattern..Pattern$GT$13into_searcher17he6310ba5557dda50E', symObjAddr: 0x290C, symBinAddr: 0x557E0, symSize: 0xAC }
  - { offset: 0x15B8C5, size: 0x8, addend: 0x0, symName: '__ZN97_$LT$core..str..pattern..MultiCharEqSearcher$LT$C$GT$$u20$as$u20$core..str..pattern..Searcher$GT$4next17h18dce586cb67f364E', symObjAddr: 0x29B8, symBinAddr: 0x5588C, symSize: 0x138 }
  - { offset: 0x15B9ED, size: 0x8, addend: 0x0, symName: '__ZN97_$LT$core..str..pattern..MultiCharEqSearcher$LT$C$GT$$u20$as$u20$core..str..pattern..Searcher$GT$4next17h473745cebc5e7fcbE', symObjAddr: 0x2AF0, symBinAddr: 0x559C4, symSize: 0x138 }
  - { offset: 0x15BB15, size: 0x8, addend: 0x0, symName: '__ZN97_$LT$core..str..pattern..MultiCharEqSearcher$LT$C$GT$$u20$as$u20$core..str..pattern..Searcher$GT$4next17h6d85fcb602d83a8fE', symObjAddr: 0x2C28, symBinAddr: 0x55AFC, symSize: 0x138 }
  - { offset: 0x15BC3D, size: 0x8, addend: 0x0, symName: '__ZN97_$LT$core..str..pattern..MultiCharEqSearcher$LT$C$GT$$u20$as$u20$core..str..pattern..Searcher$GT$4next17ha12cf548e0cff367E', symObjAddr: 0x2D60, symBinAddr: 0x55C34, symSize: 0x138 }
  - { offset: 0x15BD65, size: 0x8, addend: 0x0, symName: '__ZN97_$LT$core..str..pattern..MultiCharEqSearcher$LT$C$GT$$u20$as$u20$core..str..pattern..Searcher$GT$4next17hddcc45ff88815990E', symObjAddr: 0x2E98, symBinAddr: 0x55D6C, symSize: 0x138 }
  - { offset: 0x15BE93, size: 0x8, addend: 0x0, symName: '__ZN99_$LT$core..str..pattern..CharPredicateSearcher$LT$F$GT$$u20$as$u20$core..str..pattern..Searcher$GT$10next_match17h0d137ef00099b22aE', symObjAddr: 0x2FD0, symBinAddr: 0x55EA4, symSize: 0x24 }
  - { offset: 0x15BECA, size: 0x8, addend: 0x0, symName: '__ZN99_$LT$core..str..pattern..CharPredicateSearcher$LT$F$GT$$u20$as$u20$core..str..pattern..Searcher$GT$10next_match17h0ed1f6e03d95a754E', symObjAddr: 0x2FF4, symBinAddr: 0x55EC8, symSize: 0x24 }
  - { offset: 0x15BF01, size: 0x8, addend: 0x0, symName: '__ZN99_$LT$core..str..pattern..CharPredicateSearcher$LT$F$GT$$u20$as$u20$core..str..pattern..Searcher$GT$10next_match17h398ffd7651b88e1eE', symObjAddr: 0x3018, symBinAddr: 0x55EEC, symSize: 0x24 }
  - { offset: 0x15BF38, size: 0x8, addend: 0x0, symName: '__ZN99_$LT$core..str..pattern..CharPredicateSearcher$LT$F$GT$$u20$as$u20$core..str..pattern..Searcher$GT$10next_match17hb56176648efe8516E', symObjAddr: 0x303C, symBinAddr: 0x55F10, symSize: 0x24 }
  - { offset: 0x15BF6F, size: 0x8, addend: 0x0, symName: '__ZN99_$LT$core..str..pattern..CharPredicateSearcher$LT$F$GT$$u20$as$u20$core..str..pattern..Searcher$GT$10next_match17hffaeb760ce12a591E', symObjAddr: 0x3060, symBinAddr: 0x55F34, symSize: 0x24 }
  - { offset: 0x15D070, size: 0x8, addend: 0x0, symName: __ZN4core9panicking19unreachable_display17h8328ce35edbf5c85E, symObjAddr: 0x18CC, symBinAddr: 0x547A0, symSize: 0x88 }
  - { offset: 0x15D55E, size: 0x8, addend: 0x0, symName: '__ZN137_$LT$alloc..collections..btree..dedup_sorted_iter..DedupSortedIter$LT$K$C$V$C$I$GT$$u20$as$u20$core..iter..traits..iterator..Iterator$GT$4next17hd6a15a384c421c81E', symObjAddr: 0x50, symBinAddr: 0x52F24, symSize: 0x238 }
  - { offset: 0x15E636, size: 0x8, addend: 0x0, symName: '__ZN102_$LT$core..iter..adapters..zip..Zip$LT$A$C$B$GT$$u20$as$u20$core..iter..traits..iterator..Iterator$GT$4next17he9a933bed00136d4E', symObjAddr: 0x0, symBinAddr: 0x55F58, symSize: 0x24 }
  - { offset: 0x15ECEF, size: 0x8, addend: 0x0, symName: '__ZN5alloc11collections5btree3map5entry28VacantEntry$LT$K$C$V$C$A$GT$12insert_entry28_$u7b$$u7b$closure$u7d$$u7d$17hdb3e500c512295ffE', symObjAddr: 0x237C, symBinAddr: 0x57C8C, symSize: 0x15C }
  - { offset: 0x15F736, size: 0x8, addend: 0x0, symName: __ZN4core3ptr11write_bytes18precondition_check17h5d326273f84c2c8fE, symObjAddr: 0x410, symBinAddr: 0x56368, symSize: 0x16C }
  - { offset: 0x15F88A, size: 0x8, addend: 0x0, symName: __ZN4core3ptr19copy_nonoverlapping18precondition_check17hcf64009d7b4603a6E, symObjAddr: 0x57C, symBinAddr: 0x564D4, symSize: 0x36C }
  - { offset: 0x15FD5D, size: 0x8, addend: 0x0, symName: __ZN4core3ptr4copy18precondition_check17hcad7ffb77f7e96e7E, symObjAddr: 0xF30, symBinAddr: 0x56840, symSize: 0x240 }
  - { offset: 0x160386, size: 0x8, addend: 0x0, symName: '__ZN102_$LT$core..iter..adapters..zip..Zip$LT$A$C$B$GT$$u20$as$u20$core..iter..traits..iterator..Iterator$GT$4next17he9a933bed00136d4E', symObjAddr: 0x0, symBinAddr: 0x55F58, symSize: 0x24 }
  - { offset: 0x1603CA, size: 0x8, addend: 0x0, symName: '__ZN111_$LT$core..iter..adapters..zip..Zip$LT$A$C$B$GT$$u20$as$u20$core..iter..adapters..zip..ZipImpl$LT$A$C$B$GT$$GT$3new17hf0964c8139d88306E', symObjAddr: 0x24, symBinAddr: 0x55F7C, symSize: 0xBC }
  - { offset: 0x16045D, size: 0x8, addend: 0x0, symName: '__ZN111_$LT$core..iter..adapters..zip..Zip$LT$A$C$B$GT$$u20$as$u20$core..iter..adapters..zip..ZipImpl$LT$A$C$B$GT$$GT$4next17h8f5a91101dd9ab45E', symObjAddr: 0xE0, symBinAddr: 0x56038, symSize: 0xB0 }
  - { offset: 0x160510, size: 0x8, addend: 0x0, symName: __ZN4core4iter6traits8iterator8Iterator8position17heea7a98314898a70E, symObjAddr: 0x1170, symBinAddr: 0x56A80, symSize: 0x88 }
  - { offset: 0x1605B5, size: 0x8, addend: 0x0, symName: __ZN4core4iter6traits8iterator8Iterator8try_fold17h64f94c51a4182c65E, symObjAddr: 0x11F8, symBinAddr: 0x56B08, symSize: 0x178 }
  - { offset: 0x1607BE, size: 0x8, addend: 0x0, symName: '__ZN4core3fmt3num50_$LT$impl$u20$core..fmt..Debug$u20$for$u20$u32$GT$3fmt17h72f2d54551069334E', symObjAddr: 0x190, symBinAddr: 0x560E8, symSize: 0x90 }
  - { offset: 0x160838, size: 0x8, addend: 0x0, symName: '__ZN4core3fmt3num50_$LT$impl$u20$core..fmt..Debug$u20$for$u20$u64$GT$3fmt17h3ce36d8e3aa12a45E', symObjAddr: 0x220, symBinAddr: 0x56178, symSize: 0x90 }
  - { offset: 0x1608B2, size: 0x8, addend: 0x0, symName: '__ZN4core3fmt3num52_$LT$impl$u20$core..fmt..Debug$u20$for$u20$usize$GT$3fmt17he4309d010e70c963E', symObjAddr: 0x2B0, symBinAddr: 0x56208, symSize: 0x90 }
  - { offset: 0x160D35, size: 0x8, addend: 0x0, symName: __ZN4core5slice4sort6stable5merge5merge17hbc7bc73def5db573E, symObjAddr: 0x1A70, symBinAddr: 0x57380, symSize: 0x334 }
  - { offset: 0x160FA7, size: 0x8, addend: 0x0, symName: __ZN4core5slice4sort6stable5merge5merge17hcf2f684d8a5b3257E, symObjAddr: 0x1DA4, symBinAddr: 0x576B4, symSize: 0x334 }
  - { offset: 0x16121E, size: 0x8, addend: 0x0, symName: '__ZN95_$LT$core..slice..sort..stable..merge..MergeState$LT$T$GT$$u20$as$u20$core..ops..drop..Drop$GT$4drop17h64770c57934d5aa8E', symObjAddr: 0x25D0, symBinAddr: 0x57EE0, symSize: 0xF4 }
  - { offset: 0x161EBA, size: 0x8, addend: 0x0, symName: __ZN4core3fmt8builders9DebugList7entries17h72c081be8eb1cc42E, symObjAddr: 0x340, symBinAddr: 0x56298, symSize: 0xD0 }
  - { offset: 0x1622C6, size: 0x8, addend: 0x0, symName: '__ZN4core5slice4sort6stable5merge19MergeState$LT$T$GT$10merge_down17h7530390a37fd4de5E', symObjAddr: 0x1370, symBinAddr: 0x56C80, symSize: 0x1E0 }
  - { offset: 0x162476, size: 0x8, addend: 0x0, symName: '__ZN4core5slice4sort6stable5merge19MergeState$LT$T$GT$10merge_down17h78f087a33a0bcefcE', symObjAddr: 0x1550, symBinAddr: 0x56E60, symSize: 0x1E0 }
  - { offset: 0x16260C, size: 0x8, addend: 0x0, symName: '__ZN4core5slice4sort6stable5merge19MergeState$LT$T$GT$8merge_up17h6bdc9459d8b9f0f5E', symObjAddr: 0x1730, symBinAddr: 0x57040, symSize: 0x1A0 }
  - { offset: 0x162752, size: 0x8, addend: 0x0, symName: '__ZN4core5slice4sort6stable5merge19MergeState$LT$T$GT$8merge_up17ha50312960c569301E', symObjAddr: 0x18D0, symBinAddr: 0x571E0, symSize: 0x1A0 }
  - { offset: 0x162CB0, size: 0x8, addend: 0x0, symName: '__ZN5alloc11collections5btree3map5entry28VacantEntry$LT$K$C$V$C$A$GT$12insert_entry17h18e459b12144ae1dE', symObjAddr: 0x20D8, symBinAddr: 0x579E8, symSize: 0x2A4 }
  - { offset: 0x16307E, size: 0x8, addend: 0x0, symName: '__ZN5alloc11collections5btree3map5entry30OccupiedEntry$LT$K$C$V$C$A$GT$6insert17hf847eb25821b75c1E', symObjAddr: 0x24D8, symBinAddr: 0x57DE8, symSize: 0xA0 }
  - { offset: 0x163108, size: 0x8, addend: 0x0, symName: '__ZN5alloc11collections5btree3map5entry30OccupiedEntry$LT$K$C$V$C$A$GT$8into_mut17hdc999db811459c31E', symObjAddr: 0x2578, symBinAddr: 0x57E88, symSize: 0x58 }
  - { offset: 0x16320A, size: 0x8, addend: 0x0, symName: '__ZN100_$LT$core..array..iter..iter_inner..PolymorphicIter$LT$DATA$GT$$u20$as$u20$core..ops..drop..Drop$GT$4drop17h47d2607cc5dbb073E', symObjAddr: 0x0, symBinAddr: 0x57FD4, symSize: 0x38 }
  - { offset: 0x163312, size: 0x8, addend: 0x0, symName: '__ZN45_$LT$T$u20$as$u20$alloc..string..ToString$GT$9to_string17h7164ee30daed3b2eE', symObjAddr: 0x2B10, symBinAddr: 0x5AAE4, symSize: 0x24 }
  - { offset: 0x16334F, size: 0x8, addend: 0x0, symName: '__ZN49_$LT$T$u20$as$u20$alloc..string..SpecToString$GT$14spec_to_string17h03e52d0f7d729a31E', symObjAddr: 0x2C0C, symBinAddr: 0x5ABE0, symSize: 0xF4 }
  - { offset: 0x16343D, size: 0x8, addend: 0x0, symName: '__ZN65_$LT$alloc..string..String$u20$as$u20$core..ops..deref..Deref$GT$5deref17h500545aefe1bec4dE', symObjAddr: 0x3CA8, symBinAddr: 0x5BBDC, symSize: 0x24 }
  - { offset: 0x163471, size: 0x8, addend: 0x0, symName: '__ZN58_$LT$alloc..string..String$u20$as$u20$core..fmt..Debug$GT$3fmt17heffa49f87cb03946E', symObjAddr: 0x3028, symBinAddr: 0x5AF5C, symSize: 0x88 }
  - { offset: 0x1635D6, size: 0x8, addend: 0x0, symName: '__ZN58_$LT$alloc..string..String$u20$as$u20$core..fmt..Write$GT$10write_char17h0fc57a5aeb5a3b15E', symObjAddr: 0x30B0, symBinAddr: 0x5AFE4, symSize: 0x38 }
  - { offset: 0x163613, size: 0x8, addend: 0x0, symName: '__ZN58_$LT$alloc..string..String$u20$as$u20$core..fmt..Write$GT$9write_str17h14fc7a2dc891cfcdE', symObjAddr: 0x30E8, symBinAddr: 0x5B01C, symSize: 0x40 }
  - { offset: 0x163677, size: 0x8, addend: 0x0, symName: '__ZN62_$LT$alloc..string..String$u20$as$u20$core..cmp..PartialEq$GT$2eq17hf8d5f86f35197f7aE', symObjAddr: 0x3A8C, symBinAddr: 0x5B9C0, symSize: 0x2C }
  - { offset: 0x1636BA, size: 0x8, addend: 0x0, symName: '__ZN65_$LT$alloc..string..FromUtf8Error$u20$as$u20$core..fmt..Debug$GT$3fmt17hcd190e90910dc802E', symObjAddr: 0x3C20, symBinAddr: 0x5BB54, symSize: 0x88 }
  - { offset: 0x1636FD, size: 0x8, addend: 0x0, symName: '__ZN74_$LT$alloc..string..String$u20$as$u20$core..ops..index..Index$LT$I$GT$$GT$5index17h3840b540aba0ea0bE', symObjAddr: 0x3E68, symBinAddr: 0x5BD9C, symSize: 0x84 }
  - { offset: 0x163B25, size: 0x8, addend: 0x0, symName: '__ZN59_$LT$alloc..alloc..Global$u20$as$u20$core..clone..Clone$GT$5clone17h574d0a1043da512cE', symObjAddr: 0x3128, symBinAddr: 0x5B05C, symSize: 0x10 }
  - { offset: 0x163B7B, size: 0x8, addend: 0x0, symName: '__ZN63_$LT$alloc..alloc..Global$u20$as$u20$core..alloc..Allocator$GT$10deallocate17ha0e0ac77293c0242E', symObjAddr: 0x3AB8, symBinAddr: 0x5B9EC, symSize: 0x80 }
  - { offset: 0x163C42, size: 0x8, addend: 0x0, symName: '__ZN63_$LT$alloc..alloc..Global$u20$as$u20$core..alloc..Allocator$GT$8allocate17h7e6c6b276bb09265E', symObjAddr: 0x3B38, symBinAddr: 0x5BA6C, symSize: 0x34 }
  - { offset: 0x163C7D, size: 0x8, addend: 0x0, symName: __ZN5alloc5alloc15exchange_malloc17hd9f68266ca61d222E, symObjAddr: 0x31B4, symBinAddr: 0x5B0E8, symSize: 0xAC }
  - { offset: 0x163F46, size: 0x8, addend: 0x0, symName: '__ZN5alloc3str75_$LT$impl$u20$alloc..slice..Join$LT$$RF$str$GT$$u20$for$u20$$u5b$S$u5d$$GT$4join17h6734b3e562af5979E', symObjAddr: 0x3138, symBinAddr: 0x5B06C, symSize: 0x50 }
  - { offset: 0x163FAC, size: 0x8, addend: 0x0, symName: '__ZN5alloc3str83_$LT$impl$u20$core..borrow..Borrow$LT$str$GT$$u20$for$u20$alloc..string..String$GT$6borrow17h22c241cd15bf1901E', symObjAddr: 0x3188, symBinAddr: 0x5B0BC, symSize: 0x2C }
  - { offset: 0x163FE4, size: 0x8, addend: 0x0, symName: '__ZN5alloc5slice29_$LT$impl$u20$$u5b$T$u5d$$GT$4join17h0dd29c73322e80f1E', symObjAddr: 0x345C, symBinAddr: 0x5B390, symSize: 0x34 }
  - { offset: 0x1648FA, size: 0x8, addend: 0x0, symName: '__ZN49_$LT$F$u20$as$u20$core..str..pattern..Pattern$GT$13into_searcher17h1734e0192a04ab76E', symObjAddr: 0x2B34, symBinAddr: 0x5AB08, symSize: 0x48 }
  - { offset: 0x164940, size: 0x8, addend: 0x0, symName: '__ZN49_$LT$F$u20$as$u20$core..str..pattern..Pattern$GT$13into_searcher17h878d1cdcd09f069cE', symObjAddr: 0x2B7C, symBinAddr: 0x5AB50, symSize: 0x48 }
  - { offset: 0x164986, size: 0x8, addend: 0x0, symName: '__ZN49_$LT$F$u20$as$u20$core..str..pattern..Pattern$GT$13into_searcher17hfd40b35f6363ca9aE', symObjAddr: 0x2BC4, symBinAddr: 0x5AB98, symSize: 0x48 }
  - { offset: 0x1649D2, size: 0x8, addend: 0x0, symName: '__ZN53_$LT$F$u20$as$u20$core..str..pattern..MultiCharEq$GT$7matches17h58d6724fca399c5dE', symObjAddr: 0x2FB0, symBinAddr: 0x5AEE4, symSize: 0x28 }
  - { offset: 0x164A18, size: 0x8, addend: 0x0, symName: '__ZN53_$LT$F$u20$as$u20$core..str..pattern..MultiCharEq$GT$7matches17h63d1ac629ab16b98E', symObjAddr: 0x2FD8, symBinAddr: 0x5AF0C, symSize: 0x28 }
  - { offset: 0x164A5E, size: 0x8, addend: 0x0, symName: '__ZN53_$LT$F$u20$as$u20$core..str..pattern..MultiCharEq$GT$7matches17h83050ad7bb1c31ddE', symObjAddr: 0x3000, symBinAddr: 0x5AF34, symSize: 0x28 }
  - { offset: 0x1650EF, size: 0x8, addend: 0x0, symName: '__ZN100_$LT$core..array..iter..iter_inner..PolymorphicIter$LT$DATA$GT$$u20$as$u20$core..ops..drop..Drop$GT$4drop17h47d2607cc5dbb073E', symObjAddr: 0x0, symBinAddr: 0x57FD4, symSize: 0x38 }
  - { offset: 0x165246, size: 0x8, addend: 0x0, symName: '__ZN42_$LT$$RF$T$u20$as$u20$core..fmt..Debug$GT$3fmt17h388543e3c7b166f3E', symObjAddr: 0x2AB0, symBinAddr: 0x5AA84, symSize: 0x30 }
  - { offset: 0x16528C, size: 0x8, addend: 0x0, symName: '__ZN42_$LT$$RF$T$u20$as$u20$core..fmt..Debug$GT$3fmt17hc3abf6290e252fa2E', symObjAddr: 0x2AE0, symBinAddr: 0x5AAB4, symSize: 0x30 }
  - { offset: 0x1653F2, size: 0x8, addend: 0x0, symName: '__ZN4core3cmp5impls69_$LT$impl$u20$core..cmp..PartialEq$LT$$RF$B$GT$$u20$for$u20$$RF$A$GT$2eq17heddf682316dfbb36E', symObjAddr: 0x2D00, symBinAddr: 0x5ACD4, symSize: 0x34 }
  - { offset: 0x16545D, size: 0x8, addend: 0x0, symName: '__ZN4core4iter8adapters8peekable17Peekable$LT$I$GT$4peek28_$u7b$$u7b$closure$u7d$$u7d$17h6c61a0b5c8972dc1E', symObjAddr: 0x2D34, symBinAddr: 0x5AD08, symSize: 0x24 }
  - { offset: 0x16560A, size: 0x8, addend: 0x0, symName: '__ZN4core5slice29_$LT$impl$u20$$u5b$T$u5d$$GT$4iter17h14138753b916d136E', symObjAddr: 0x2F88, symBinAddr: 0x5AEBC, symSize: 0x28 }
  - { offset: 0x1663C3, size: 0x8, addend: 0x0, symName: __ZN3nom10combinator13all_consuming17h6a369582f4dda208E, symObjAddr: 0x38, symBinAddr: 0x5800C, symSize: 0x10 }
  - { offset: 0x166415, size: 0x8, addend: 0x0, symName: __ZN3nom10combinator13all_consuming17h77cae9adbb9089bfE, symObjAddr: 0x48, symBinAddr: 0x5801C, symSize: 0x14 }
  - { offset: 0x16646C, size: 0x8, addend: 0x0, symName: '__ZN3nom10combinator13all_consuming28_$u7b$$u7b$closure$u7d$$u7d$17h1fd2c4c8608a21beE', symObjAddr: 0x5C, symBinAddr: 0x58030, symSize: 0x1F0 }
  - { offset: 0x166514, size: 0x8, addend: 0x0, symName: '__ZN3nom10combinator13all_consuming28_$u7b$$u7b$closure$u7d$$u7d$17hc33dac133ed8d3e8E', symObjAddr: 0x24C, symBinAddr: 0x58220, symSize: 0x21C }
  - { offset: 0x1665E3, size: 0x8, addend: 0x0, symName: __ZN3nom10combinator3opt17h03f416bcb19a773cE, symObjAddr: 0x468, symBinAddr: 0x5843C, symSize: 0x18 }
  - { offset: 0x166633, size: 0x8, addend: 0x0, symName: __ZN3nom10combinator3opt17h8897bc7c75aed3efE, symObjAddr: 0x480, symBinAddr: 0x58454, symSize: 0x10 }
  - { offset: 0x166688, size: 0x8, addend: 0x0, symName: '__ZN3nom10combinator3opt28_$u7b$$u7b$closure$u7d$$u7d$17h45d9cf4a685be622E', symObjAddr: 0x490, symBinAddr: 0x58464, symSize: 0x1E8 }
  - { offset: 0x166766, size: 0x8, addend: 0x0, symName: '__ZN3nom10combinator3opt28_$u7b$$u7b$closure$u7d$$u7d$17ha06ba6840d204521E', symObjAddr: 0x678, symBinAddr: 0x5864C, symSize: 0x1E8 }
  - { offset: 0x16686B, size: 0x8, addend: 0x0, symName: __ZN3nom10combinator7map_opt17ha472f70e8bd38d01E, symObjAddr: 0x860, symBinAddr: 0x58834, symSize: 0xC }
  - { offset: 0x1668D7, size: 0x8, addend: 0x0, symName: __ZN3nom10combinator7map_opt17hcbd66e837c5f4b08E, symObjAddr: 0x86C, symBinAddr: 0x58840, symSize: 0x18 }
  - { offset: 0x166947, size: 0x8, addend: 0x0, symName: __ZN3nom10combinator7map_opt17hdddf93ff765eb098E, symObjAddr: 0x884, symBinAddr: 0x58858, symSize: 0xC }
  - { offset: 0x1669B8, size: 0x8, addend: 0x0, symName: '__ZN3nom10combinator7map_opt28_$u7b$$u7b$closure$u7d$$u7d$17hb4e2b362724523ddE', symObjAddr: 0x890, symBinAddr: 0x58864, symSize: 0x2CC }
  - { offset: 0x166AD2, size: 0x8, addend: 0x0, symName: '__ZN3nom10combinator7map_opt28_$u7b$$u7b$closure$u7d$$u7d$17hd8b9a595bf458d46E', symObjAddr: 0xB5C, symBinAddr: 0x58B30, symSize: 0x2B4 }
  - { offset: 0x166BEA, size: 0x8, addend: 0x0, symName: '__ZN3nom10combinator7map_opt28_$u7b$$u7b$closure$u7d$$u7d$17hdaaf8eae6b6a0dcaE', symObjAddr: 0xE10, symBinAddr: 0x58DE4, symSize: 0x2B4 }
  - { offset: 0x166D5D, size: 0x8, addend: 0x0, symName: __ZN3nom10combinator7map_res17h1460e542af8390f3E, symObjAddr: 0x10C4, symBinAddr: 0x59098, symSize: 0x10 }
  - { offset: 0x166DD6, size: 0x8, addend: 0x0, symName: __ZN3nom10combinator7map_res17h75d0ac65adfff57aE, symObjAddr: 0x10D4, symBinAddr: 0x590A8, symSize: 0x10 }
  - { offset: 0x166E54, size: 0x8, addend: 0x0, symName: '__ZN3nom10combinator7map_res28_$u7b$$u7b$closure$u7d$$u7d$17hb783f1aad3eac8bbE', symObjAddr: 0x10E4, symBinAddr: 0x590B8, symSize: 0x2F8 }
  - { offset: 0x166F8C, size: 0x8, addend: 0x0, symName: '__ZN3nom10combinator7map_res28_$u7b$$u7b$closure$u7d$$u7d$17hfdfeafcbe90c54e9E', symObjAddr: 0x13DC, symBinAddr: 0x593B0, symSize: 0x33C }
  - { offset: 0x167102, size: 0x8, addend: 0x0, symName: __ZN3nom10combinator9recognize17h120bfe0130f71165E, symObjAddr: 0x1718, symBinAddr: 0x596EC, symSize: 0xC }
  - { offset: 0x167150, size: 0x8, addend: 0x0, symName: __ZN3nom10combinator9recognize17h86f39ea317555546E, symObjAddr: 0x1724, symBinAddr: 0x596F8, symSize: 0xC }
  - { offset: 0x16719E, size: 0x8, addend: 0x0, symName: __ZN3nom10combinator9recognize17hac1aed106c56a521E, symObjAddr: 0x1730, symBinAddr: 0x59704, symSize: 0x18 }
  - { offset: 0x1671F5, size: 0x8, addend: 0x0, symName: '__ZN3nom10combinator9recognize28_$u7b$$u7b$closure$u7d$$u7d$17h3fcc1cb5ae422d85E', symObjAddr: 0x1748, symBinAddr: 0x5971C, symSize: 0x204 }
  - { offset: 0x1672E2, size: 0x8, addend: 0x0, symName: '__ZN3nom10combinator9recognize28_$u7b$$u7b$closure$u7d$$u7d$17h7062e3f2f0291987E', symObjAddr: 0x194C, symBinAddr: 0x59920, symSize: 0x1E0 }
  - { offset: 0x1673CF, size: 0x8, addend: 0x0, symName: '__ZN3nom10combinator9recognize28_$u7b$$u7b$closure$u7d$$u7d$17heccfcb83e3cef8beE', symObjAddr: 0x1B2C, symBinAddr: 0x59B00, symSize: 0x1E0 }
  - { offset: 0x1674FC, size: 0x8, addend: 0x0, symName: __ZN3nom5multi15separated_list017h7a22a883596b5a2fE, symObjAddr: 0x1D0C, symBinAddr: 0x59CE0, symSize: 0x10 }
  - { offset: 0x167571, size: 0x8, addend: 0x0, symName: '__ZN3nom5multi15separated_list028_$u7b$$u7b$closure$u7d$$u7d$17h72c79b16f3600649E', symObjAddr: 0x1D1C, symBinAddr: 0x59CF0, symSize: 0x7A4 }
  - { offset: 0x167763, size: 0x8, addend: 0x0, symName: __ZN3nom9character8complete4char17h4197399a1d8b0707E, symObjAddr: 0x24C0, symBinAddr: 0x5A494, symSize: 0x10 }
  - { offset: 0x1677A6, size: 0x8, addend: 0x0, symName: '__ZN3nom9character8complete4char28_$u7b$$u7b$closure$u7d$$u7d$17h2e6fe3e52066eb8cE', symObjAddr: 0x24D0, symBinAddr: 0x5A4A4, symSize: 0x1F0 }
  - { offset: 0x167817, size: 0x8, addend: 0x0, symName: '__ZN3nom9character8complete4char28_$u7b$$u7b$closure$u7d$$u7d$28_$u7b$$u7b$closure$u7d$$u7d$17h053949178822c004E', symObjAddr: 0x26C0, symBinAddr: 0x5A694, symSize: 0x48 }
  - { offset: 0x16787A, size: 0x8, addend: 0x0, symName: __ZN3nom9character8complete6alpha117h0eece8950da58d59E, symObjAddr: 0x2708, symBinAddr: 0x5A6DC, symSize: 0x4C }
  - { offset: 0x1678BF, size: 0x8, addend: 0x0, symName: '__ZN3nom9character8complete6alpha128_$u7b$$u7b$closure$u7d$$u7d$17h9cbb12fe0f707330E', symObjAddr: 0x2754, symBinAddr: 0x5A728, symSize: 0x30 }
  - { offset: 0x167912, size: 0x8, addend: 0x0, symName: __ZN3nom9character8complete6digit017h4c94fed9c52491e5E, symObjAddr: 0x2784, symBinAddr: 0x5A758, symSize: 0x48 }
  - { offset: 0x167957, size: 0x8, addend: 0x0, symName: '__ZN3nom9character8complete6digit028_$u7b$$u7b$closure$u7d$$u7d$17he65cf9e70bd8a356E', symObjAddr: 0x27CC, symBinAddr: 0x5A7A0, symSize: 0x30 }
  - { offset: 0x1679AA, size: 0x8, addend: 0x0, symName: __ZN3nom9character8complete6digit117he67390a0b97dafb5E, symObjAddr: 0x27FC, symBinAddr: 0x5A7D0, symSize: 0x4C }
  - { offset: 0x1679EF, size: 0x8, addend: 0x0, symName: '__ZN3nom9character8complete6digit128_$u7b$$u7b$closure$u7d$$u7d$17h5a30ecc4a7d74b98E', symObjAddr: 0x2848, symBinAddr: 0x5A81C, symSize: 0x30 }
  - { offset: 0x167A42, size: 0x8, addend: 0x0, symName: __ZN3nom9character8complete6one_of17h6f9f919fa65c8df9E, symObjAddr: 0x2878, symBinAddr: 0x5A84C, symSize: 0x18 }
  - { offset: 0x167A8E, size: 0x8, addend: 0x0, symName: '__ZN3nom9character8complete6one_of28_$u7b$$u7b$closure$u7d$$u7d$17he3b035f95f6573baE', symObjAddr: 0x2890, symBinAddr: 0x5A864, symSize: 0x1EC }
  - { offset: 0x167B08, size: 0x8, addend: 0x0, symName: '__ZN3nom9character8complete6one_of28_$u7b$$u7b$closure$u7d$$u7d$28_$u7b$$u7b$closure$u7d$$u7d$17hb8fcc77ee8283705E', symObjAddr: 0x2A7C, symBinAddr: 0x5AA50, symSize: 0x34 }
  - { offset: 0x167B80, size: 0x8, addend: 0x0, symName: '__ZN60_$LT$F$u20$as$u20$nom..internal..Parser$LT$I$C$O$C$E$GT$$GT$5parse17h0124ba3811b8a621E', symObjAddr: 0x37EC, symBinAddr: 0x5B720, symSize: 0x30 }
  - { offset: 0x167BE1, size: 0x8, addend: 0x0, symName: '__ZN60_$LT$F$u20$as$u20$nom..internal..Parser$LT$I$C$O$C$E$GT$$GT$5parse17h083f1ac0530e73a5E', symObjAddr: 0x381C, symBinAddr: 0x5B750, symSize: 0x30 }
  - { offset: 0x167C42, size: 0x8, addend: 0x0, symName: '__ZN60_$LT$F$u20$as$u20$nom..internal..Parser$LT$I$C$O$C$E$GT$$GT$5parse17h299edc4434e8d331E', symObjAddr: 0x384C, symBinAddr: 0x5B780, symSize: 0x30 }
  - { offset: 0x167CA3, size: 0x8, addend: 0x0, symName: '__ZN60_$LT$F$u20$as$u20$nom..internal..Parser$LT$I$C$O$C$E$GT$$GT$5parse17h32ddc2ddd6354ed7E', symObjAddr: 0x387C, symBinAddr: 0x5B7B0, symSize: 0x30 }
  - { offset: 0x167D04, size: 0x8, addend: 0x0, symName: '__ZN60_$LT$F$u20$as$u20$nom..internal..Parser$LT$I$C$O$C$E$GT$$GT$5parse17h39bc185e30e653b3E', symObjAddr: 0x38AC, symBinAddr: 0x5B7E0, symSize: 0x30 }
  - { offset: 0x167D65, size: 0x8, addend: 0x0, symName: '__ZN60_$LT$F$u20$as$u20$nom..internal..Parser$LT$I$C$O$C$E$GT$$GT$5parse17h82c49bda14fcf308E', symObjAddr: 0x38DC, symBinAddr: 0x5B810, symSize: 0x30 }
  - { offset: 0x167DC6, size: 0x8, addend: 0x0, symName: '__ZN60_$LT$F$u20$as$u20$nom..internal..Parser$LT$I$C$O$C$E$GT$$GT$5parse17h8a33428ca5128f4bE', symObjAddr: 0x390C, symBinAddr: 0x5B840, symSize: 0x30 }
  - { offset: 0x167E27, size: 0x8, addend: 0x0, symName: '__ZN60_$LT$F$u20$as$u20$nom..internal..Parser$LT$I$C$O$C$E$GT$$GT$5parse17h97db6b43d617d391E', symObjAddr: 0x393C, symBinAddr: 0x5B870, symSize: 0x30 }
  - { offset: 0x167E88, size: 0x8, addend: 0x0, symName: '__ZN60_$LT$F$u20$as$u20$nom..internal..Parser$LT$I$C$O$C$E$GT$$GT$5parse17ha715b074dbb40cfaE', symObjAddr: 0x396C, symBinAddr: 0x5B8A0, symSize: 0x30 }
  - { offset: 0x167EE9, size: 0x8, addend: 0x0, symName: '__ZN60_$LT$F$u20$as$u20$nom..internal..Parser$LT$I$C$O$C$E$GT$$GT$5parse17hafd41842ef904131E', symObjAddr: 0x399C, symBinAddr: 0x5B8D0, symSize: 0x30 }
  - { offset: 0x167F4A, size: 0x8, addend: 0x0, symName: '__ZN60_$LT$F$u20$as$u20$nom..internal..Parser$LT$I$C$O$C$E$GT$$GT$5parse17hc6c6cfb2282a9baaE', symObjAddr: 0x39CC, symBinAddr: 0x5B900, symSize: 0x30 }
  - { offset: 0x167FAB, size: 0x8, addend: 0x0, symName: '__ZN60_$LT$F$u20$as$u20$nom..internal..Parser$LT$I$C$O$C$E$GT$$GT$5parse17hdd7aa2e643c9c8fbE', symObjAddr: 0x39FC, symBinAddr: 0x5B930, symSize: 0x30 }
  - { offset: 0x16800C, size: 0x8, addend: 0x0, symName: '__ZN60_$LT$F$u20$as$u20$nom..internal..Parser$LT$I$C$O$C$E$GT$$GT$5parse17he5d5b7b9db81fac2E', symObjAddr: 0x3A2C, symBinAddr: 0x5B960, symSize: 0x30 }
  - { offset: 0x16806D, size: 0x8, addend: 0x0, symName: '__ZN60_$LT$F$u20$as$u20$nom..internal..Parser$LT$I$C$O$C$E$GT$$GT$5parse17hfa3df30eb5097bcfE', symObjAddr: 0x3A5C, symBinAddr: 0x5B990, symSize: 0x30 }
  - { offset: 0x1680D4, size: 0x8, addend: 0x0, symName: '__ZN66_$LT$nom..internal..Err$LT$E$GT$$u20$as$u20$core..fmt..Display$GT$3fmt17hd02eb65d0a1f02f1E', symObjAddr: 0x3CCC, symBinAddr: 0x5BC00, symSize: 0x19C }
  - { offset: 0x1682BE, size: 0x8, addend: 0x0, symName: '__ZN95_$LT$$LP$FnA$C$FnB$RP$$u20$as$u20$nom..sequence..Tuple$LT$Input$C$$LP$A$C$B$RP$$C$Error$GT$$GT$5parse17h048909cda605d09fE', symObjAddr: 0x3EEC, symBinAddr: 0x5BE20, symSize: 0x230 }
  - { offset: 0x1683F0, size: 0x8, addend: 0x0, symName: '__ZN95_$LT$$LP$FnA$C$FnB$RP$$u20$as$u20$nom..sequence..Tuple$LT$Input$C$$LP$A$C$B$RP$$C$Error$GT$$GT$5parse17h75f2c42841803ec9E', symObjAddr: 0x411C, symBinAddr: 0x5C050, symSize: 0x234 }
  - { offset: 0x168522, size: 0x8, addend: 0x0, symName: '__ZN95_$LT$$LP$FnA$C$FnB$RP$$u20$as$u20$nom..sequence..Tuple$LT$Input$C$$LP$A$C$B$RP$$C$Error$GT$$GT$5parse17hacaa082709c21debE', symObjAddr: 0x4350, symBinAddr: 0x5C284, symSize: 0x234 }
  - { offset: 0x168654, size: 0x8, addend: 0x0, symName: '__ZN95_$LT$$LP$FnA$C$FnB$RP$$u20$as$u20$nom..sequence..Tuple$LT$Input$C$$LP$A$C$B$RP$$C$Error$GT$$GT$5parse17hded46b722f7dbc38E', symObjAddr: 0x4584, symBinAddr: 0x5C4B8, symSize: 0x234 }
  - { offset: 0x168941, size: 0x8, addend: 0x0, symName: '__ZN64_$LT$zcash_protocol..memo..Error$u20$as$u20$core..fmt..Debug$GT$3fmt17h76462ab970b82e52E', symObjAddr: 0x3B6C, symBinAddr: 0x5BAA0, symSize: 0xB4 }
  - { offset: 0x168C36, size: 0x8, addend: 0x0, symName: '__ZN4core5array4iter10iter_inner78PolymorphicIter$LT$$u5b$core..mem..maybe_uninit..MaybeUninit$LT$T$GT$$u5d$$GT$4next17h2c3e5e75ea26d6e7E', symObjAddr: 0x2D58, symBinAddr: 0x5AD2C, symSize: 0x190 }
  - { offset: 0x169132, size: 0x8, addend: 0x0, symName: __ZN5alloc5alloc6Global10alloc_impl17h9fe6dbc5f1bee431E, symObjAddr: 0x3260, symBinAddr: 0x5B194, symSize: 0x1FC }
  - { offset: 0x169654, size: 0x8, addend: 0x0, symName: __ZN5alloc6string6String4push17h3d6f784be261107fE, symObjAddr: 0x3490, symBinAddr: 0x5B3C4, symSize: 0x13C }
  - { offset: 0x169916, size: 0x8, addend: 0x0, symName: __ZN5alloc6string6String6as_str17h671c29f0a4239ae9E, symObjAddr: 0x35CC, symBinAddr: 0x5B500, symSize: 0x78 }
  - { offset: 0x169AE4, size: 0x8, addend: 0x0, symName: __ZN5alloc6string6String8push_str17h7d13dbde452a406dE, symObjAddr: 0x3644, symBinAddr: 0x5B578, symSize: 0x50 }
  - { offset: 0x169CBE, size: 0x8, addend: 0x0, symName: __ZN5alloc6string6String9from_utf817h76ea863251e6506cE, symObjAddr: 0x3694, symBinAddr: 0x5B5C8, symSize: 0x158 }
  - { offset: 0x16A805, size: 0x8, addend: 0x0, symName: '__ZN107_$LT$core..ops..range..RangeInclusive$LT$T$GT$$u20$as$u20$core..iter..range..RangeInclusiveIteratorImpl$GT$9spec_next17h90e54c57860a0b57E', symObjAddr: 0x0, symBinAddr: 0x5C6EC, symSize: 0x100 }
  - { offset: 0x16B6FA, size: 0x8, addend: 0x0, symName: '__ZN107_$LT$core..ops..range..RangeInclusive$LT$T$GT$$u20$as$u20$core..iter..range..RangeInclusiveIteratorImpl$GT$9spec_next17h90e54c57860a0b57E', symObjAddr: 0x0, symBinAddr: 0x5C6EC, symSize: 0x100 }
  - { offset: 0x16B7FB, size: 0x8, addend: 0x0, symName: '__ZN4core4iter5range110_$LT$impl$u20$core..iter..traits..iterator..Iterator$u20$for$u20$core..ops..range..RangeInclusive$LT$A$GT$$GT$4next17h6759a0f65af03d76E', symObjAddr: 0x568, symBinAddr: 0x5CB54, symSize: 0x24 }
  - { offset: 0x16BAD7, size: 0x8, addend: 0x0, symName: __ZN4core4iter6traits8iterator8Iterator3map17hae672b4a2892d91fE, symObjAddr: 0x58C, symBinAddr: 0x5CB78, symSize: 0x34 }
  - { offset: 0x16BB44, size: 0x8, addend: 0x0, symName: __ZN4core4iter6traits8iterator8Iterator3zip17h777bc2591ac46dc0E, symObjAddr: 0x5C0, symBinAddr: 0x5CBAC, symSize: 0xCC }
  - { offset: 0x16BBBA, size: 0x8, addend: 0x0, symName: __ZN4core4iter6traits8iterator8Iterator8try_fold17hbae4b6ea70fa848aE, symObjAddr: 0x68C, symBinAddr: 0x5CC78, symSize: 0x178 }
  - { offset: 0x16BD25, size: 0x8, addend: 0x0, symName: '__ZN63_$LT$I$u20$as$u20$core..iter..traits..collect..IntoIterator$GT$9into_iter17h717a9d2db78dc376E', symObjAddr: 0x2268, symBinAddr: 0x5E804, symSize: 0x1C }
  - { offset: 0x16BE2F, size: 0x8, addend: 0x0, symName: '__ZN110_$LT$core..ops..range..RangeFrom$LT$usize$GT$$u20$as$u20$core..slice..index..SliceIndex$LT$$u5b$T$u5d$$GT$$GT$9index_mut17h262683eae19b6763E', symObjAddr: 0x100, symBinAddr: 0x5C7EC, symSize: 0xAC }
  - { offset: 0x16C153, size: 0x8, addend: 0x0, symName: '__ZN91_$LT$core..slice..iter..Iter$LT$T$GT$$u20$as$u20$core..iter..traits..iterator..Iterator$GT$4fold17hcde3586265c76f86E', symObjAddr: 0x2548, symBinAddr: 0x5EAE4, symSize: 0x1C0 }
  - { offset: 0x16C2A8, size: 0x8, addend: 0x0, symName: '__ZN91_$LT$core..slice..iter..Iter$LT$T$GT$$u20$as$u20$core..iter..traits..iterator..Iterator$GT$4next17h7c096c6a9dfc2accE', symObjAddr: 0x2708, symBinAddr: 0x5ECA4, symSize: 0xA8 }
  - { offset: 0x16C3E2, size: 0x8, addend: 0x0, symName: '__ZN91_$LT$core..slice..iter..Iter$LT$T$GT$$u20$as$u20$core..iter..traits..iterator..Iterator$GT$4next17hdc9354963dc1d11fE', symObjAddr: 0x27B0, symBinAddr: 0x5ED4C, symSize: 0xA8 }
  - { offset: 0x16C51C, size: 0x8, addend: 0x0, symName: '__ZN91_$LT$core..slice..iter..Iter$LT$T$GT$$u20$as$u20$core..iter..traits..iterator..Iterator$GT$4next17hdefb01751702d880E', symObjAddr: 0x2858, symBinAddr: 0x5EDF4, symSize: 0xA8 }
  - { offset: 0x16C656, size: 0x8, addend: 0x0, symName: '__ZN91_$LT$core..slice..iter..Iter$LT$T$GT$$u20$as$u20$core..iter..traits..iterator..Iterator$GT$4next17he722b5dd2e06ae9aE', symObjAddr: 0x2900, symBinAddr: 0x5EE9C, symSize: 0xA8 }
  - { offset: 0x16C790, size: 0x8, addend: 0x0, symName: '__ZN91_$LT$core..slice..iter..Iter$LT$T$GT$$u20$as$u20$core..iter..traits..iterator..Iterator$GT$8find_map17hb9bd68c99cfc174bE', symObjAddr: 0x29A8, symBinAddr: 0x5EF44, symSize: 0xC0 }
  - { offset: 0x16C814, size: 0x8, addend: 0x0, symName: '__ZN91_$LT$core..slice..iter..Iter$LT$T$GT$$u20$as$u20$core..iter..traits..iterator..Iterator$GT$9size_hint17h1ba4e85e35d6a36aE', symObjAddr: 0x2A68, symBinAddr: 0x5F004, symSize: 0x60 }
  - { offset: 0x16D405, size: 0x8, addend: 0x0, symName: '__ZN4core3str6traits108_$LT$impl$u20$core..slice..index..SliceIndex$LT$str$GT$$u20$for$u20$core..ops..range..Range$LT$usize$GT$$GT$13get_unchecked17h06edad5c3e27ba54E', symObjAddr: 0x2AC, symBinAddr: 0x5C898, symSize: 0x84 }
  - { offset: 0x16D54A, size: 0x8, addend: 0x0, symName: '__ZN4core3str6traits110_$LT$impl$u20$core..slice..index..SliceIndex$LT$str$GT$$u20$for$u20$core..ops..range..RangeTo$LT$usize$GT$$GT$13get_unchecked17h5556d5dd05fc9edcE', symObjAddr: 0x330, symBinAddr: 0x5C91C, symSize: 0x50 }
  - { offset: 0x16D58D, size: 0x8, addend: 0x0, symName: '__ZN4core3str6traits112_$LT$impl$u20$core..slice..index..SliceIndex$LT$str$GT$$u20$for$u20$core..ops..range..RangeFrom$LT$usize$GT$$GT$13get_unchecked17h1971aacfd51dc324E', symObjAddr: 0x380, symBinAddr: 0x5C96C, symSize: 0x80 }
  - { offset: 0x16D700, size: 0x8, addend: 0x0, symName: '__ZN4core3str6traits112_$LT$impl$u20$core..slice..index..SliceIndex$LT$str$GT$$u20$for$u20$core..ops..range..RangeFrom$LT$usize$GT$$GT$3get17h0da3327a39180deeE', symObjAddr: 0x400, symBinAddr: 0x5C9EC, symSize: 0x150 }
  - { offset: 0x16D881, size: 0x8, addend: 0x0, symName: '__ZN4core3str6traits99_$LT$impl$u20$core..slice..index..SliceIndex$LT$str$GT$$u20$for$u20$core..ops..range..RangeFull$GT$5index17hf3d459ca7ff1ffe9E', symObjAddr: 0x550, symBinAddr: 0x5CB3C, symSize: 0x18 }
  - { offset: 0x16D8F4, size: 0x8, addend: 0x0, symName: '__ZN51_$LT$T$u20$as$u20$core..borrow..Borrow$LT$T$GT$$GT$6borrow17heb9b87069c7a5b30E', symObjAddr: 0x8B4, symBinAddr: 0x5CEA0, symSize: 0x14 }
  - { offset: 0x16E290, size: 0x8, addend: 0x0, symName: '__ZN63_$LT$u8$u20$as$u20$alloc..vec..spec_from_elem..SpecFromElem$GT$9from_elem17hcd2ae80809ebd603E', symObjAddr: 0x2284, symBinAddr: 0x5E820, symSize: 0x18C }
  - { offset: 0x16E841, size: 0x8, addend: 0x0, symName: '__ZN77_$LT$alloc..raw_vec..RawVec$LT$T$C$A$GT$$u20$as$u20$core..ops..drop..Drop$GT$4drop17h141f48d330ee66beE', symObjAddr: 0x2410, symBinAddr: 0x5E9AC, symSize: 0x34 }
  - { offset: 0x16E87D, size: 0x8, addend: 0x0, symName: '__ZN77_$LT$alloc..raw_vec..RawVec$LT$T$C$A$GT$$u20$as$u20$core..ops..drop..Drop$GT$4drop17h235374cf4569d2d6E', symObjAddr: 0x2444, symBinAddr: 0x5E9E0, symSize: 0x34 }
  - { offset: 0x16E8B9, size: 0x8, addend: 0x0, symName: '__ZN77_$LT$alloc..raw_vec..RawVec$LT$T$C$A$GT$$u20$as$u20$core..ops..drop..Drop$GT$4drop17h256c76bb72aec04cE', symObjAddr: 0x2478, symBinAddr: 0x5EA14, symSize: 0x34 }
  - { offset: 0x16E8F5, size: 0x8, addend: 0x0, symName: '__ZN77_$LT$alloc..raw_vec..RawVec$LT$T$C$A$GT$$u20$as$u20$core..ops..drop..Drop$GT$4drop17h741eeb992c8f147dE', symObjAddr: 0x24AC, symBinAddr: 0x5EA48, symSize: 0x34 }
  - { offset: 0x16E931, size: 0x8, addend: 0x0, symName: '__ZN77_$LT$alloc..raw_vec..RawVec$LT$T$C$A$GT$$u20$as$u20$core..ops..drop..Drop$GT$4drop17hce645d859b7f8ad6E', symObjAddr: 0x24E0, symBinAddr: 0x5EA7C, symSize: 0x34 }
  - { offset: 0x16E96D, size: 0x8, addend: 0x0, symName: '__ZN77_$LT$alloc..raw_vec..RawVec$LT$T$C$A$GT$$u20$as$u20$core..ops..drop..Drop$GT$4drop17hce67db44c23ec618E', symObjAddr: 0x2514, symBinAddr: 0x5EAB0, symSize: 0x34 }
  - { offset: 0x16EAE1, size: 0x8, addend: 0x0, symName: '__ZN5alloc3str17join_generic_copy28_$u7b$$u7b$closure$u7d$$u7d$28_$u7b$$u7b$closure$u7d$$u7d$17hd0949fef5671afa0E', symObjAddr: 0x2030, symBinAddr: 0x5E61C, symSize: 0x38 }
  - { offset: 0x16EB3A, size: 0x8, addend: 0x0, symName: '__ZN5alloc3str17join_generic_copy28_$u7b$$u7b$closure$u7d$$u7d$17h19915b3dd058c6ebE', symObjAddr: 0x1FA8, symBinAddr: 0x5E594, symSize: 0x88 }
  - { offset: 0x16EC08, size: 0x8, addend: 0x0, symName: __ZN5alloc3str17join_generic_copy17h54b69f5c02e48b74E, symObjAddr: 0x8C8, symBinAddr: 0x5CEB4, symSize: 0x16E0 }
  - { offset: 0x17048B, size: 0x8, addend: 0x0, symName: '__ZN4core5slice4iter13Iter$LT$T$GT$3new17h1bf8736c98fdd005E', symObjAddr: 0x804, symBinAddr: 0x5CDF0, symSize: 0x58 }
  - { offset: 0x17066F, size: 0x8, addend: 0x0, symName: '__ZN4core5slice4iter13Iter$LT$T$GT$3new17h609ea058da2a52bcE', symObjAddr: 0x85C, symBinAddr: 0x5CE48, symSize: 0x58 }
  - { offset: 0x170FDB, size: 0x8, addend: 0x0, symName: '__ZN5alloc7raw_vec19RawVec$LT$T$C$A$GT$8grow_one17h092cdb6614408676E', symObjAddr: 0x20B8, symBinAddr: 0x5E654, symSize: 0x90 }
  - { offset: 0x17108D, size: 0x8, addend: 0x0, symName: '__ZN5alloc7raw_vec19RawVec$LT$T$C$A$GT$8grow_one17h0a4bd207408ad344E', symObjAddr: 0x2148, symBinAddr: 0x5E6E4, symSize: 0x90 }
  - { offset: 0x17113F, size: 0x8, addend: 0x0, symName: '__ZN5alloc7raw_vec19RawVec$LT$T$C$A$GT$8grow_one17h14aa7808ef3a1a25E', symObjAddr: 0x21D8, symBinAddr: 0x5E774, symSize: 0x90 }
  - { offset: 0x171681, size: 0x8, addend: 0x0, symName: '__ZN102_$LT$core..iter..adapters..map..Map$LT$I$C$F$GT$$u20$as$u20$core..iter..traits..iterator..Iterator$GT$4fold17h86c25e645d73557aE', symObjAddr: 0x0, symBinAddr: 0x5F064, symSize: 0x58 }
  - { offset: 0x1717FF, size: 0x8, addend: 0x0, symName: '__ZN4core4iter8adapters3map8map_fold28_$u7b$$u7b$closure$u7d$$u7d$17hddd355db70d50adbE', symObjAddr: 0x14F8, symBinAddr: 0x6009C, symSize: 0x8C }
  - { offset: 0x17188A, size: 0x8, addend: 0x0, symName: '__ZN102_$LT$core..iter..adapters..map..Map$LT$I$C$F$GT$$u20$as$u20$core..iter..traits..iterator..Iterator$GT$4fold17h86c25e645d73557aE', symObjAddr: 0x0, symBinAddr: 0x5F064, symSize: 0x58 }
  - { offset: 0x171923, size: 0x8, addend: 0x0, symName: '__ZN102_$LT$core..iter..adapters..map..Map$LT$I$C$F$GT$$u20$as$u20$core..iter..traits..iterator..Iterator$GT$4next17h1c828c03419203c9E', symObjAddr: 0x58, symBinAddr: 0x5F0BC, symSize: 0x90 }
  - { offset: 0x1719CF, size: 0x8, addend: 0x0, symName: '__ZN102_$LT$core..iter..adapters..map..Map$LT$I$C$F$GT$$u20$as$u20$core..iter..traits..iterator..Iterator$GT$4next17h76953b4d354d9989E', symObjAddr: 0xE8, symBinAddr: 0x5F14C, symSize: 0xB0 }
  - { offset: 0x171A6B, size: 0x8, addend: 0x0, symName: '__ZN102_$LT$core..iter..adapters..map..Map$LT$I$C$F$GT$$u20$as$u20$core..iter..traits..iterator..Iterator$GT$8try_fold17h0ea0e8be72eb7ddfE', symObjAddr: 0x1CC, symBinAddr: 0x5F1FC, symSize: 0x54 }
  - { offset: 0x171B0E, size: 0x8, addend: 0x0, symName: '__ZN102_$LT$core..iter..adapters..map..Map$LT$I$C$F$GT$$u20$as$u20$core..iter..traits..iterator..Iterator$GT$9size_hint17hb56d606e38783749E', symObjAddr: 0x220, symBinAddr: 0x5F250, symSize: 0x24 }
  - { offset: 0x171B55, size: 0x8, addend: 0x0, symName: '__ZN102_$LT$core..iter..adapters..map..Map$LT$I$C$F$GT$$u20$as$u20$core..iter..traits..iterator..Iterator$GT$9size_hint17hce1f1c9e4ff83ad6E', symObjAddr: 0x244, symBinAddr: 0x5F274, symSize: 0x24 }
  - { offset: 0x171B9C, size: 0x8, addend: 0x0, symName: '__ZN102_$LT$core..iter..adapters..map..Map$LT$I$C$F$GT$$u20$as$u20$core..iter..traits..iterator..Iterator$GT$9size_hint17hebb858d65a5a0a66E', symObjAddr: 0x268, symBinAddr: 0x5F298, symSize: 0x24 }
  - { offset: 0x171C64, size: 0x8, addend: 0x0, symName: '__ZN4core4iter8adapters3map12map_try_fold28_$u7b$$u7b$closure$u7d$$u7d$17h705bb5528fd4cec0E', symObjAddr: 0x1398, symBinAddr: 0x5FF3C, symSize: 0xB8 }
  - { offset: 0x171CF7, size: 0x8, addend: 0x0, symName: '__ZN4core4iter8adapters3map12map_try_fold28_$u7b$$u7b$closure$u7d$$u7d$17heda42a90208d904aE', symObjAddr: 0x1450, symBinAddr: 0x5FFF4, symSize: 0xA8 }
  - { offset: 0x172111, size: 0x8, addend: 0x0, symName: __ZN4core4iter6traits8iterator8Iterator3map17hde29b9841af71e62E, symObjAddr: 0xD14, symBinAddr: 0x5FC4C, symSize: 0x30 }
  - { offset: 0x17217F, size: 0x8, addend: 0x0, symName: __ZN4core4iter6traits8iterator8Iterator3map17hde5baf7e22e02514E, symObjAddr: 0xD44, symBinAddr: 0x5FC7C, symSize: 0x30 }
  - { offset: 0x1721ED, size: 0x8, addend: 0x0, symName: __ZN4core4iter6traits8iterator8Iterator7collect17ha24f7033725678adE, symObjAddr: 0xDE4, symBinAddr: 0x5FCAC, symSize: 0x6C }
  - { offset: 0x1722AA, size: 0x8, addend: 0x0, symName: __ZN4core4iter6traits8iterator8Iterator8flat_map17hb1addf3d5209a0abE, symObjAddr: 0xE50, symBinAddr: 0x5FD18, symSize: 0xC8 }
  - { offset: 0x17237C, size: 0x8, addend: 0x0, symName: __ZN4core4iter6traits8iterator8Iterator8try_fold17h38562f2749ece22dE, symObjAddr: 0x1050, symBinAddr: 0x5FDE0, symSize: 0x15C }
